
1hello-inf.elf:     file format elf32-littlearm


Disassembly of section .text:

00008000 <__code_start__>:
    8000:	e3a00013 	mov	r0, #19
    8004:	e3800080 	orr	r0, r0, #128	; 0x80
    8008:	e129f000 	msr	CPSR_fc, r0
    800c:	e3a01000 	mov	r1, #0
    8010:	ee071f95 	mcr	15, 0, r1, cr7, cr5, {4}
    8014:	e3a0d302 	mov	sp, #134217728	; 0x8000000
    8018:	e3a0b000 	mov	fp, #0
    801c:	eb0002d8 	bl	8b84 <_cstart>
    8020:	eb0002f3 	bl	8bf4 <rpi_reboot>

00008024 <PUT32>:
    8024:	e5801000 	str	r1, [r0]
    8028:	e12fff1e 	bx	lr

0000802c <GET32>:
    802c:	e5900000 	ldr	r0, [r0]
    8030:	e12fff1e 	bx	lr

00008034 <BRANCHTO>:
    8034:	e12fff10 	bx	r0

00008038 <notmain>:
    8038:	e92d4010 	push	{r4, lr}
    803c:	eb000012 	bl	808c <uart_init>
    8040:	e59f0004 	ldr	r0, [pc, #4]	; 804c <notmain+0x14>
    8044:	eb0000d6 	bl	83a4 <printk>
    8048:	eafffffc 	b	8040 <notmain+0x8>
    804c:	00008ec0 	andeq	r8, r0, r0, asr #29

00008050 <uart_can_getc>:
    8050:	e52de004 	push	{lr}		; (str lr, [sp, #-4]!)
    8054:	e24dd00c 	sub	sp, sp, #12
    8058:	e59f3020 	ldr	r3, [pc, #32]	; 8080 <uart_can_getc+0x30>
    805c:	e59f2020 	ldr	r2, [pc, #32]	; 8084 <uart_can_getc+0x34>
    8060:	e5832000 	str	r2, [r3]
    8064:	e59f001c 	ldr	r0, [pc, #28]	; 8088 <uart_can_getc+0x38>
    8068:	ebffffef 	bl	802c <GET32>
    806c:	e58d0004 	str	r0, [sp, #4]
    8070:	e5dd0004 	ldrb	r0, [sp, #4]
    8074:	e2000001 	and	r0, r0, #1
    8078:	e28dd00c 	add	sp, sp, #12
    807c:	e49df004 	pop	{pc}		; (ldr pc, [sp], #4)
    8080:	00009050 	andeq	r9, r0, r0, asr r0
    8084:	20215000 	eorcs	r5, r1, r0
    8088:	20215064 	eorcs	r5, r1, r4, rrx

0000808c <uart_init>:
    808c:	e92d4070 	push	{r4, r5, r6, lr}
    8090:	e59f4180 	ldr	r4, [pc, #384]	; 8218 <uart_init+0x18c>
    8094:	e59f3180 	ldr	r3, [pc, #384]	; 821c <uart_init+0x190>
    8098:	e5843000 	str	r3, [r4]
    809c:	e3a01002 	mov	r1, #2
    80a0:	e3a0000e 	mov	r0, #14
    80a4:	eb000308 	bl	8ccc <gpio_set_function>
    80a8:	e3a01002 	mov	r1, #2
    80ac:	e3a0000f 	mov	r0, #15
    80b0:	eb000305 	bl	8ccc <gpio_set_function>
    80b4:	e5945000 	ldr	r5, [r4]
    80b8:	e2850004 	add	r0, r5, #4
    80bc:	ebffffda 	bl	802c <GET32>
    80c0:	e5850004 	str	r0, [r5, #4]
    80c4:	e5943000 	ldr	r3, [r4]
    80c8:	e5d32004 	ldrb	r2, [r3, #4]
    80cc:	e3822001 	orr	r2, r2, #1
    80d0:	e1a00003 	mov	r0, r3
    80d4:	e5e02004 	strb	r2, [r0, #4]!
    80d8:	e5931004 	ldr	r1, [r3, #4]
    80dc:	ebffffd0 	bl	8024 <PUT32>
    80e0:	e5945000 	ldr	r5, [r4]
    80e4:	e2850060 	add	r0, r5, #96	; 0x60
    80e8:	ebffffcf 	bl	802c <GET32>
    80ec:	e5850060 	str	r0, [r5, #96]	; 0x60
    80f0:	e5943000 	ldr	r3, [r4]
    80f4:	e5d32060 	ldrb	r2, [r3, #96]	; 0x60
    80f8:	e3c22001 	bic	r2, r2, #1
    80fc:	e5c32060 	strb	r2, [r3, #96]	; 0x60
    8100:	e6ef2072 	uxtb	r2, r2
    8104:	e3c22002 	bic	r2, r2, #2
    8108:	e1a00003 	mov	r0, r3
    810c:	e5e02060 	strb	r2, [r0, #96]!	; 0x60
    8110:	e5931060 	ldr	r1, [r3, #96]	; 0x60
    8114:	ebffffc2 	bl	8024 <PUT32>
    8118:	e5945000 	ldr	r5, [r4]
    811c:	e2850044 	add	r0, r5, #68	; 0x44
    8120:	ebffffc1 	bl	802c <GET32>
    8124:	e5850044 	str	r0, [r5, #68]	; 0x44
    8128:	e5943000 	ldr	r3, [r4]
    812c:	e5d32044 	ldrb	r2, [r3, #68]	; 0x44
    8130:	e3c22002 	bic	r2, r2, #2
    8134:	e5c32044 	strb	r2, [r3, #68]	; 0x44
    8138:	e6ef2072 	uxtb	r2, r2
    813c:	e3c22001 	bic	r2, r2, #1
    8140:	e1a00003 	mov	r0, r3
    8144:	e5e02044 	strb	r2, [r0, #68]!	; 0x44
    8148:	e5931044 	ldr	r1, [r3, #68]	; 0x44
    814c:	ebffffb4 	bl	8024 <PUT32>
    8150:	e5945000 	ldr	r5, [r4]
    8154:	e2850048 	add	r0, r5, #72	; 0x48
    8158:	ebffffb3 	bl	802c <GET32>
    815c:	e5850048 	str	r0, [r5, #72]	; 0x48
    8160:	e5943000 	ldr	r3, [r4]
    8164:	e5d32048 	ldrb	r2, [r3, #72]	; 0x48
    8168:	e3822002 	orr	r2, r2, #2
    816c:	e5c32048 	strb	r2, [r3, #72]	; 0x48
    8170:	e6ef2072 	uxtb	r2, r2
    8174:	e3822004 	orr	r2, r2, #4
    8178:	e1a00003 	mov	r0, r3
    817c:	e5e02048 	strb	r2, [r0, #72]!	; 0x48
    8180:	e5931048 	ldr	r1, [r3, #72]	; 0x48
    8184:	ebffffa6 	bl	8024 <PUT32>
    8188:	e5945000 	ldr	r5, [r4]
    818c:	e2850068 	add	r0, r5, #104	; 0x68
    8190:	ebffffa5 	bl	802c <GET32>
    8194:	e5850068 	str	r0, [r5, #104]	; 0x68
    8198:	e5943000 	ldr	r3, [r4]
    819c:	e1a00003 	mov	r0, r3
    81a0:	e59f2078 	ldr	r2, [pc, #120]	; 8220 <uart_init+0x194>
    81a4:	e1e026b8 	strh	r2, [r0, #104]!	; 0x68
    81a8:	e5931068 	ldr	r1, [r3, #104]	; 0x68
    81ac:	ebffff9c 	bl	8024 <PUT32>
    81b0:	e5945000 	ldr	r5, [r4]
    81b4:	e285004c 	add	r0, r5, #76	; 0x4c
    81b8:	ebffff9b 	bl	802c <GET32>
    81bc:	e585004c 	str	r0, [r5, #76]	; 0x4c
    81c0:	e5943000 	ldr	r3, [r4]
    81c4:	e5d3204c 	ldrb	r2, [r3, #76]	; 0x4c
    81c8:	e3822001 	orr	r2, r2, #1
    81cc:	e1a00003 	mov	r0, r3
    81d0:	e5e0204c 	strb	r2, [r0, #76]!	; 0x4c
    81d4:	e593104c 	ldr	r1, [r3, #76]	; 0x4c
    81d8:	ebffff91 	bl	8024 <PUT32>
    81dc:	e5945000 	ldr	r5, [r4]
    81e0:	e2850060 	add	r0, r5, #96	; 0x60
    81e4:	ebffff90 	bl	802c <GET32>
    81e8:	e5850060 	str	r0, [r5, #96]	; 0x60
    81ec:	e5943000 	ldr	r3, [r4]
    81f0:	e5d32060 	ldrb	r2, [r3, #96]	; 0x60
    81f4:	e3822001 	orr	r2, r2, #1
    81f8:	e5c32060 	strb	r2, [r3, #96]	; 0x60
    81fc:	e6ef2072 	uxtb	r2, r2
    8200:	e3822002 	orr	r2, r2, #2
    8204:	e1a00003 	mov	r0, r3
    8208:	e5e02060 	strb	r2, [r0, #96]!	; 0x60
    820c:	e5931060 	ldr	r1, [r3, #96]	; 0x60
    8210:	ebffff83 	bl	8024 <PUT32>
    8214:	e8bd8070 	pop	{r4, r5, r6, pc}
    8218:	00009050 	andeq	r9, r0, r0, asr r0
    821c:	20215000 	eorcs	r5, r1, r0
    8220:	0000010e 	andeq	r0, r0, lr, lsl #2

00008224 <uart_getc>:
    8224:	e92d4010 	push	{r4, lr}
    8228:	e59f3028 	ldr	r3, [pc, #40]	; 8258 <uart_getc+0x34>
    822c:	e59f2028 	ldr	r2, [pc, #40]	; 825c <uart_getc+0x38>
    8230:	e5832000 	str	r2, [r3]
    8234:	ebffff85 	bl	8050 <uart_can_getc>
    8238:	e3500000 	cmp	r0, #0
    823c:	0afffffc 	beq	8234 <uart_getc+0x10>
    8240:	e59f3010 	ldr	r3, [pc, #16]	; 8258 <uart_getc+0x34>
    8244:	e5930000 	ldr	r0, [r3]
    8248:	e2800040 	add	r0, r0, #64	; 0x40
    824c:	ebffff76 	bl	802c <GET32>
    8250:	e6ef0070 	uxtb	r0, r0
    8254:	e8bd8010 	pop	{r4, pc}
    8258:	00009050 	andeq	r9, r0, r0, asr r0
    825c:	20215000 	eorcs	r5, r1, r0

00008260 <uart_can_putc>:
    8260:	e52de004 	push	{lr}		; (str lr, [sp, #-4]!)
    8264:	e24dd00c 	sub	sp, sp, #12
    8268:	e59f3024 	ldr	r3, [pc, #36]	; 8294 <uart_can_putc+0x34>
    826c:	e59f2024 	ldr	r2, [pc, #36]	; 8298 <uart_can_putc+0x38>
    8270:	e5832000 	str	r2, [r3]
    8274:	e59f0020 	ldr	r0, [pc, #32]	; 829c <uart_can_putc+0x3c>
    8278:	ebffff6b 	bl	802c <GET32>
    827c:	e58d0004 	str	r0, [sp, #4]
    8280:	e5dd0004 	ldrb	r0, [sp, #4]
    8284:	e1a000a0 	lsr	r0, r0, #1
    8288:	e2000001 	and	r0, r0, #1
    828c:	e28dd00c 	add	sp, sp, #12
    8290:	e49df004 	pop	{pc}		; (ldr pc, [sp], #4)
    8294:	00009050 	andeq	r9, r0, r0, asr r0
    8298:	20215000 	eorcs	r5, r1, r0
    829c:	20215064 	eorcs	r5, r1, r4, rrx

000082a0 <uart_putc>:
    82a0:	e92d4010 	push	{r4, lr}
    82a4:	e1a04000 	mov	r4, r0
    82a8:	e59f3028 	ldr	r3, [pc, #40]	; 82d8 <uart_putc+0x38>
    82ac:	e59f2028 	ldr	r2, [pc, #40]	; 82dc <uart_putc+0x3c>
    82b0:	e5832000 	str	r2, [r3]
    82b4:	ebffffe9 	bl	8260 <uart_can_putc>
    82b8:	e3500000 	cmp	r0, #0
    82bc:	0afffffc 	beq	82b4 <uart_putc+0x14>
    82c0:	e59f3010 	ldr	r3, [pc, #16]	; 82d8 <uart_putc+0x38>
    82c4:	e5930000 	ldr	r0, [r3]
    82c8:	e1a01004 	mov	r1, r4
    82cc:	e2800040 	add	r0, r0, #64	; 0x40
    82d0:	ebffff53 	bl	8024 <PUT32>
    82d4:	e8bd8010 	pop	{r4, pc}
    82d8:	00009050 	andeq	r9, r0, r0, asr r0
    82dc:	20215000 	eorcs	r5, r1, r0

000082e0 <uart_has_data>:
    82e0:	e92d4010 	push	{r4, lr}
    82e4:	ebffff59 	bl	8050 <uart_can_getc>
    82e8:	e8bd8010 	pop	{r4, pc}

000082ec <uart_getc_async>:
    82ec:	e92d4010 	push	{r4, lr}
    82f0:	ebfffffa 	bl	82e0 <uart_has_data>
    82f4:	e3500000 	cmp	r0, #0
    82f8:	0a000001 	beq	8304 <uart_getc_async+0x18>
    82fc:	ebffffc8 	bl	8224 <uart_getc>
    8300:	e8bd8010 	pop	{r4, pc}
    8304:	e3e00000 	mvn	r0, #0
    8308:	e8bd8010 	pop	{r4, pc}

0000830c <uart_tx_is_empty>:
    830c:	e52de004 	push	{lr}		; (str lr, [sp, #-4]!)
    8310:	e24dd00c 	sub	sp, sp, #12
    8314:	e59f3020 	ldr	r3, [pc, #32]	; 833c <uart_tx_is_empty+0x30>
    8318:	e59f2020 	ldr	r2, [pc, #32]	; 8340 <uart_tx_is_empty+0x34>
    831c:	e5832000 	str	r2, [r3]
    8320:	e59f001c 	ldr	r0, [pc, #28]	; 8344 <uart_tx_is_empty+0x38>
    8324:	ebffff40 	bl	802c <GET32>
    8328:	e58d0004 	str	r0, [sp, #4]
    832c:	e5dd0005 	ldrb	r0, [sp, #5]
    8330:	e2000001 	and	r0, r0, #1
    8334:	e28dd00c 	add	sp, sp, #12
    8338:	e49df004 	pop	{pc}		; (ldr pc, [sp], #4)
    833c:	00009050 	andeq	r9, r0, r0, asr r0
    8340:	20215000 	eorcs	r5, r1, r0
    8344:	20215064 	eorcs	r5, r1, r4, rrx

00008348 <uart_flush_tx>:
    8348:	e92d4010 	push	{r4, lr}
    834c:	ebffffee 	bl	830c <uart_tx_is_empty>
    8350:	e3500000 	cmp	r0, #0
    8354:	0afffffc 	beq	834c <uart_flush_tx+0x4>
    8358:	e8bd8010 	pop	{r4, pc}

0000835c <uart_disable>:
    835c:	e92d4070 	push	{r4, r5, r6, lr}
    8360:	e59f4038 	ldr	r4, [pc, #56]	; 83a0 <uart_disable+0x44>
    8364:	e5945000 	ldr	r5, [r4]
    8368:	e2850060 	add	r0, r5, #96	; 0x60
    836c:	ebffff2e 	bl	802c <GET32>
    8370:	e5850060 	str	r0, [r5, #96]	; 0x60
    8374:	e5943000 	ldr	r3, [r4]
    8378:	e5d32060 	ldrb	r2, [r3, #96]	; 0x60
    837c:	e3c22001 	bic	r2, r2, #1
    8380:	e5c32060 	strb	r2, [r3, #96]	; 0x60
    8384:	e6ef2072 	uxtb	r2, r2
    8388:	e3c22002 	bic	r2, r2, #2
    838c:	e1a00003 	mov	r0, r3
    8390:	e5e02060 	strb	r2, [r0, #96]!	; 0x60
    8394:	e5931060 	ldr	r1, [r3, #96]	; 0x60
    8398:	ebffff21 	bl	8024 <PUT32>
    839c:	e8bd8070 	pop	{r4, r5, r6, pc}
    83a0:	00009050 	andeq	r9, r0, r0, asr r0

000083a4 <printk>:
    83a4:	e92d000f 	push	{r0, r1, r2, r3}
    83a8:	e92d4030 	push	{r4, r5, lr}
    83ac:	e24dd00c 	sub	sp, sp, #12
    83b0:	e28d301c 	add	r3, sp, #28
    83b4:	e58d3004 	str	r3, [sp, #4]
    83b8:	e59f5034 	ldr	r5, [pc, #52]	; 83f4 <printk+0x50>
    83bc:	e59d2018 	ldr	r2, [sp, #24]
    83c0:	e3a01b01 	mov	r1, #1024	; 0x400
    83c4:	e1a00005 	mov	r0, r5
    83c8:	eb0000bc 	bl	86c0 <va_printk>
    83cc:	e1a04000 	mov	r4, r0
    83d0:	e59f3020 	ldr	r3, [pc, #32]	; 83f8 <printk+0x54>
    83d4:	e5933000 	ldr	r3, [r3]
    83d8:	e1a00005 	mov	r0, r5
    83dc:	e12fff33 	blx	r3
    83e0:	e1a00004 	mov	r0, r4
    83e4:	e28dd00c 	add	sp, sp, #12
    83e8:	e8bd4030 	pop	{r4, r5, lr}
    83ec:	e28dd010 	add	sp, sp, #16
    83f0:	e12fff1e 	bx	lr
    83f4:	00009054 	andeq	r9, r0, r4, asr r0
    83f8:	00009048 	andeq	r9, r0, r8, asr #32

000083fc <internal_putk>:
    83fc:	e92d4010 	push	{r4, lr}
    8400:	e1a04000 	mov	r4, r0
    8404:	ea000003 	b	8418 <internal_putk+0x1c>
    8408:	e59f301c 	ldr	r3, [pc, #28]	; 842c <internal_putk+0x30>
    840c:	e5933000 	ldr	r3, [r3]
    8410:	e12fff33 	blx	r3
    8414:	e2844001 	add	r4, r4, #1
    8418:	e5d40000 	ldrb	r0, [r4]
    841c:	e3500000 	cmp	r0, #0
    8420:	1afffff8 	bne	8408 <internal_putk+0xc>
    8424:	e3a00001 	mov	r0, #1
    8428:	e8bd8010 	pop	{r4, pc}
    842c:	0000904c 	andeq	r9, r0, ip, asr #32

00008430 <isdigit>:
    8430:	e2400030 	sub	r0, r0, #48	; 0x30
    8434:	e3500009 	cmp	r0, #9
    8438:	83a00000 	movhi	r0, #0
    843c:	93a00001 	movls	r0, #1
    8440:	e12fff1e 	bx	lr

00008444 <pad>:
    8444:	e0401001 	sub	r1, r0, r1
    8448:	ea000002 	b	8458 <pad+0x14>
    844c:	e3a03020 	mov	r3, #32
    8450:	e4c03001 	strb	r3, [r0], #1
    8454:	e2811001 	add	r1, r1, #1
    8458:	e1510002 	cmp	r1, r2
    845c:	bafffffa 	blt	844c <pad+0x8>
    8460:	e3a03000 	mov	r3, #0
    8464:	e5c03000 	strb	r3, [r0]
    8468:	e12fff1e 	bx	lr

0000846c <reverse>:
    846c:	e042c003 	sub	ip, r2, r3
    8470:	e28cc001 	add	ip, ip, #1
    8474:	e15c0001 	cmp	ip, r1
    8478:	c04cc001 	subgt	ip, ip, r1
    847c:	c083300c 	addgt	r3, r3, ip
    8480:	e2421001 	sub	r1, r2, #1
    8484:	e1a02000 	mov	r2, r0
    8488:	ea000001 	b	8494 <reverse+0x28>
    848c:	e451c001 	ldrb	ip, [r1], #-1
    8490:	e4c2c001 	strb	ip, [r2], #1
    8494:	e1510003 	cmp	r1, r3
    8498:	2afffffb 	bcs	848c <reverse+0x20>
    849c:	e3a03000 	mov	r3, #0
    84a0:	e5c23000 	strb	r3, [r2]
    84a4:	e12fff1e 	bx	lr

000084a8 <emit>:
    84a8:	e92d40f0 	push	{r4, r5, r6, r7, lr}
    84ac:	e24dd04c 	sub	sp, sp, #76	; 0x4c
    84b0:	e1a05001 	mov	r5, r1
    84b4:	e1a04002 	mov	r4, r2
    84b8:	e59d2060 	ldr	r2, [sp, #96]	; 0x60
    84bc:	e1520004 	cmp	r2, r4
    84c0:	c2442001 	subgt	r2, r4, #1
    84c4:	e1a0c003 	mov	ip, r3
    84c8:	e2400002 	sub	r0, r0, #2
    84cc:	e350000e 	cmp	r0, #14
    84d0:	979ff100 	ldrls	pc, [pc, r0, lsl #2]
    84d4:	ea000050 	b	861c <emit+0x174>
    84d8:	000085f4 	strdeq	r8, [r0], -r4
    84dc:	0000861c 	andeq	r8, r0, ip, lsl r6
    84e0:	0000861c 	andeq	r8, r0, ip, lsl r6
    84e4:	0000861c 	andeq	r8, r0, ip, lsl r6
    84e8:	0000861c 	andeq	r8, r0, ip, lsl r6
    84ec:	0000861c 	andeq	r8, r0, ip, lsl r6
    84f0:	000085e8 	andeq	r8, r0, r8, ror #11
    84f4:	0000861c 	andeq	r8, r0, ip, lsl r6
    84f8:	00008514 	andeq	r8, r0, r4, lsl r5
    84fc:	0000861c 	andeq	r8, r0, ip, lsl r6
    8500:	0000861c 	andeq	r8, r0, ip, lsl r6
    8504:	0000861c 	andeq	r8, r0, ip, lsl r6
    8508:	0000861c 	andeq	r8, r0, ip, lsl r6
    850c:	0000861c 	andeq	r8, r0, ip, lsl r6
    8510:	0000858c 	andeq	r8, r0, ip, lsl #11
    8514:	e59d1064 	ldr	r1, [sp, #100]	; 0x64
    8518:	e2511000 	subs	r1, r1, #0
    851c:	13a01001 	movne	r1, #1
    8520:	e0111fa3 	ands	r1, r1, r3, lsr #31
    8524:	0a000016 	beq	8584 <emit+0xdc>
    8528:	e263c000 	rsb	ip, r3, #0
    852c:	e3a06001 	mov	r6, #1
    8530:	e28d0008 	add	r0, sp, #8
    8534:	e59f3100 	ldr	r3, [pc, #256]	; 863c <emit+0x194>
    8538:	e0831c93 	umull	r1, r3, r3, ip
    853c:	e1a031a3 	lsr	r3, r3, #3
    8540:	e1a0e003 	mov	lr, r3
    8544:	e0833103 	add	r3, r3, r3, lsl #2
    8548:	e04c3083 	sub	r3, ip, r3, lsl #1
    854c:	e1a01000 	mov	r1, r0
    8550:	e2800001 	add	r0, r0, #1
    8554:	e59f70e4 	ldr	r7, [pc, #228]	; 8640 <emit+0x198>
    8558:	e7d73003 	ldrb	r3, [r7, r3]
    855c:	e5c13000 	strb	r3, [r1]
    8560:	e1a0300c 	mov	r3, ip
    8564:	e1a0c00e 	mov	ip, lr
    8568:	e3530009 	cmp	r3, #9
    856c:	8afffff0 	bhi	8534 <emit+0x8c>
    8570:	e3560000 	cmp	r6, #0
    8574:	13a0302d 	movne	r3, #45	; 0x2d
    8578:	15c03000 	strbne	r3, [r0]
    857c:	12810002 	addne	r0, r1, #2
    8580:	ea00000f 	b	85c4 <emit+0x11c>
    8584:	e3a06000 	mov	r6, #0
    8588:	eaffffe8 	b	8530 <emit+0x88>
    858c:	e28d1008 	add	r1, sp, #8
    8590:	e20c000f 	and	r0, ip, #15
    8594:	e59fe0a8 	ldr	lr, [pc, #168]	; 8644 <emit+0x19c>
    8598:	e7de0000 	ldrb	r0, [lr, r0]
    859c:	e5c10000 	strb	r0, [r1]
    85a0:	e2811001 	add	r1, r1, #1
    85a4:	e35c000f 	cmp	ip, #15
    85a8:	e1a0c22c 	lsr	ip, ip, #4
    85ac:	8afffff7 	bhi	8590 <emit+0xe8>
    85b0:	e1a00001 	mov	r0, r1
    85b4:	e3a03078 	mov	r3, #120	; 0x78
    85b8:	e4c03002 	strb	r3, [r0], #2
    85bc:	e3a03030 	mov	r3, #48	; 0x30
    85c0:	e5c13001 	strb	r3, [r1, #1]
    85c4:	e28d1008 	add	r1, sp, #8
    85c8:	ebffff9d 	bl	8444 <pad>
    85cc:	e1a02000 	mov	r2, r0
    85d0:	e28d3008 	add	r3, sp, #8
    85d4:	e1a01004 	mov	r1, r4
    85d8:	e1a00005 	mov	r0, r5
    85dc:	ebffffa2 	bl	846c <reverse>
    85e0:	e28dd04c 	add	sp, sp, #76	; 0x4c
    85e4:	e8bd80f0 	pop	{r4, r5, r6, r7, pc}
    85e8:	e5cd3008 	strb	r3, [sp, #8]
    85ec:	e28d0009 	add	r0, sp, #9
    85f0:	eafffff3 	b	85c4 <emit+0x11c>
    85f4:	e28d0008 	add	r0, sp, #8
    85f8:	e20c1001 	and	r1, ip, #1
    85fc:	e59fe044 	ldr	lr, [pc, #68]	; 8648 <emit+0x1a0>
    8600:	e7de1001 	ldrb	r1, [lr, r1]
    8604:	e5c01000 	strb	r1, [r0]
    8608:	e2800001 	add	r0, r0, #1
    860c:	e35c0001 	cmp	ip, #1
    8610:	e1a0c0ac 	lsr	ip, ip, #1
    8614:	8afffff7 	bhi	85f8 <emit+0x150>
    8618:	eaffffe9 	b	85c4 <emit+0x11c>
    861c:	e59f3028 	ldr	r3, [pc, #40]	; 864c <emit+0x1a4>
    8620:	e58d3000 	str	r3, [sp]
    8624:	e3a03079 	mov	r3, #121	; 0x79
    8628:	e59f2020 	ldr	r2, [pc, #32]	; 8650 <emit+0x1a8>
    862c:	e59f1020 	ldr	r1, [pc, #32]	; 8654 <emit+0x1ac>
    8630:	e59f0020 	ldr	r0, [pc, #32]	; 8658 <emit+0x1b0>
    8634:	ebffff5a 	bl	83a4 <printk>
    8638:	eb000146 	bl	8b58 <clean_reboot>
    863c:	cccccccd 	stclgt	12, cr12, [ip], {205}	; 0xcd
    8640:	00008efc 	strdeq	r8, [r0], -ip
    8644:	00008f08 	andeq	r8, r0, r8, lsl #30
    8648:	00008f1c 	andeq	r8, r0, ip, lsl pc
    864c:	00008ef8 	strdeq	r8, [r0], -r8	; <UNPREDICTABLE>
    8650:	00009018 	andeq	r9, r0, r8, lsl r0
    8654:	00008ed0 	ldrdeq	r8, [r0], -r0
    8658:	00008ee4 	andeq	r8, r0, r4, ror #29

0000865c <rpi_set_output>:
    865c:	e3500000 	cmp	r0, #0
    8660:	0a000006 	beq	8680 <rpi_set_output+0x24>
    8664:	e59f303c 	ldr	r3, [pc, #60]	; 86a8 <rpi_set_output+0x4c>
    8668:	e5830000 	str	r0, [r3]
    866c:	e3510000 	cmp	r1, #0
    8670:	012fff1e 	bxeq	lr
    8674:	e59f3030 	ldr	r3, [pc, #48]	; 86ac <rpi_set_output+0x50>
    8678:	e5831000 	str	r1, [r3]
    867c:	e12fff1e 	bx	lr
    8680:	e52de004 	push	{lr}		; (str lr, [sp, #-4]!)
    8684:	e24dd00c 	sub	sp, sp, #12
    8688:	e59f3020 	ldr	r3, [pc, #32]	; 86b0 <rpi_set_output+0x54>
    868c:	e58d3000 	str	r3, [sp]
    8690:	e3a03020 	mov	r3, #32
    8694:	e59f2018 	ldr	r2, [pc, #24]	; 86b4 <rpi_set_output+0x58>
    8698:	e59f1018 	ldr	r1, [pc, #24]	; 86b8 <rpi_set_output+0x5c>
    869c:	e59f0018 	ldr	r0, [pc, #24]	; 86bc <rpi_set_output+0x60>
    86a0:	ebffff3f 	bl	83a4 <printk>
    86a4:	eb00012b 	bl	8b58 <clean_reboot>
    86a8:	0000904c 	andeq	r9, r0, ip, asr #32
    86ac:	00009048 	andeq	r9, r0, r8, asr #32
    86b0:	00008f20 	andeq	r8, r0, r0, lsr #30
    86b4:	00009020 	andeq	r9, r0, r0, lsr #32
    86b8:	00008ed0 	ldrdeq	r8, [r0], -r0
    86bc:	00008ee4 	andeq	r8, r0, r4, ror #29

000086c0 <va_printk>:
    86c0:	e92d4ff0 	push	{r4, r5, r6, r7, r8, r9, sl, fp, lr}
    86c4:	e24ddf45 	sub	sp, sp, #276	; 0x114
    86c8:	e1a09000 	mov	r9, r0
    86cc:	e58d2008 	str	r2, [sp, #8]
    86d0:	e58d300c 	str	r3, [sp, #12]
    86d4:	e2411001 	sub	r1, r1, #1
    86d8:	e0808001 	add	r8, r0, r1
    86dc:	e3a03000 	mov	r3, #0
    86e0:	e5c03000 	strb	r3, [r0]
    86e4:	e1a04000 	mov	r4, r0
    86e8:	e1a06002 	mov	r6, r2
    86ec:	ea000004 	b	8704 <va_printk+0x44>
    86f0:	e5d62001 	ldrb	r2, [r6, #1]
    86f4:	e3520025 	cmp	r2, #37	; 0x25
    86f8:	1a00000b 	bne	872c <va_printk+0x6c>
    86fc:	e4c43001 	strb	r3, [r4], #1
    8700:	e2866002 	add	r6, r6, #2
    8704:	e5d63000 	ldrb	r3, [r6]
    8708:	e3530000 	cmp	r3, #0
    870c:	0a0000ff 	beq	8b10 <va_printk+0x450>
    8710:	e1540008 	cmp	r4, r8
    8714:	2a0000fd 	bcs	8b10 <va_printk+0x450>
    8718:	e3530025 	cmp	r3, #37	; 0x25
    871c:	0afffff3 	beq	86f0 <va_printk+0x30>
    8720:	e2866001 	add	r6, r6, #1
    8724:	e4c43001 	strb	r3, [r4], #1
    8728:	eafffff5 	b	8704 <va_printk+0x44>
    872c:	e2866001 	add	r6, r6, #1
    8730:	e3a05000 	mov	r5, #0
    8734:	ea000003 	b	8748 <va_printk+0x88>
    8738:	e0855105 	add	r5, r5, r5, lsl #2
    873c:	e0875085 	add	r5, r7, r5, lsl #1
    8740:	e2455030 	sub	r5, r5, #48	; 0x30
    8744:	e2866001 	add	r6, r6, #1
    8748:	e5d67000 	ldrb	r7, [r6]
    874c:	e1a00007 	mov	r0, r7
    8750:	ebffff36 	bl	8430 <isdigit>
    8754:	e3500000 	cmp	r0, #0
    8758:	1afffff6 	bne	8738 <va_printk+0x78>
    875c:	e355001f 	cmp	r5, #31
    8760:	8a00001a 	bhi	87d0 <va_printk+0x110>
    8764:	e2473062 	sub	r3, r7, #98	; 0x62
    8768:	e3530016 	cmp	r3, #22
    876c:	979ff103 	ldrls	pc, [pc, r3, lsl #2]
    8770:	ea0000ce 	b	8ab0 <va_printk+0x3f0>
    8774:	00008a34 	andeq	r8, r0, r4, lsr sl
    8778:	00008a7c 	andeq	r8, r0, ip, ror sl
    877c:	00008994 	muleq	r0, r4, r9
    8780:	00008ab0 			; <UNDEFINED> instruction: 0x00008ab0
    8784:	0000897c 	andeq	r8, r0, ip, ror r9
    8788:	00008ab0 			; <UNDEFINED> instruction: 0x00008ab0
    878c:	00008ab0 			; <UNDEFINED> instruction: 0x00008ab0
    8790:	00008ab0 			; <UNDEFINED> instruction: 0x00008ab0
    8794:	00008ab0 			; <UNDEFINED> instruction: 0x00008ab0
    8798:	00008ab0 			; <UNDEFINED> instruction: 0x00008ab0
    879c:	000087f0 	strdeq	r8, [r0], -r0
    87a0:	00008ab0 			; <UNDEFINED> instruction: 0x00008ab0
    87a4:	00008ab0 			; <UNDEFINED> instruction: 0x00008ab0
    87a8:	00008ab0 			; <UNDEFINED> instruction: 0x00008ab0
    87ac:	00008a00 	andeq	r8, r0, r0, lsl #20
    87b0:	00008ab0 			; <UNDEFINED> instruction: 0x00008ab0
    87b4:	00008ab0 			; <UNDEFINED> instruction: 0x00008ab0
    87b8:	00008a68 	andeq	r8, r0, r8, ror #20
    87bc:	00008ab0 			; <UNDEFINED> instruction: 0x00008ab0
    87c0:	000089cc 	andeq	r8, r0, ip, asr #19
    87c4:	00008ab0 			; <UNDEFINED> instruction: 0x00008ab0
    87c8:	00008ab0 			; <UNDEFINED> instruction: 0x00008ab0
    87cc:	00008a00 	andeq	r8, r0, r0, lsl #20
    87d0:	e59f334c 	ldr	r3, [pc, #844]	; 8b24 <va_printk+0x464>
    87d4:	e58d3000 	str	r3, [sp]
    87d8:	e3a03098 	mov	r3, #152	; 0x98
    87dc:	e59f2344 	ldr	r2, [pc, #836]	; 8b28 <va_printk+0x468>
    87e0:	e59f1344 	ldr	r1, [pc, #836]	; 8b2c <va_printk+0x46c>
    87e4:	e59f0344 	ldr	r0, [pc, #836]	; 8b30 <va_printk+0x470>
    87e8:	ebfffeed 	bl	83a4 <printk>
    87ec:	eb0000d9 	bl	8b58 <clean_reboot>
    87f0:	e3a02003 	mov	r2, #3
    87f4:	e59f1338 	ldr	r1, [pc, #824]	; 8b34 <va_printk+0x474>
    87f8:	e1a00006 	mov	r0, r6
    87fc:	eb00019c 	bl	8e74 <strncmp>
    8800:	e3500000 	cmp	r0, #0
    8804:	0a000005 	beq	8820 <va_printk+0x160>
    8808:	e3a02003 	mov	r2, #3
    880c:	e59f1324 	ldr	r1, [pc, #804]	; 8b38 <va_printk+0x478>
    8810:	e1a00006 	mov	r0, r6
    8814:	eb000196 	bl	8e74 <strncmp>
    8818:	e3500000 	cmp	r0, #0
    881c:	1a00002d 	bne	88d8 <va_printk+0x218>
    8820:	e286b002 	add	fp, r6, #2
    8824:	e59d300c 	ldr	r3, [sp, #12]
    8828:	e2833007 	add	r3, r3, #7
    882c:	e3c33007 	bic	r3, r3, #7
    8830:	e2832008 	add	r2, r3, #8
    8834:	e58d200c 	str	r2, [sp, #12]
    8838:	e593a000 	ldr	sl, [r3]
    883c:	e5937004 	ldr	r7, [r3, #4]
    8840:	e3a02003 	mov	r2, #3
    8844:	e59f12e8 	ldr	r1, [pc, #744]	; 8b34 <va_printk+0x474>
    8848:	e1a00006 	mov	r0, r6
    884c:	eb000188 	bl	8e74 <strncmp>
    8850:	e3500000 	cmp	r0, #0
    8854:	0a000027 	beq	88f8 <va_printk+0x238>
    8858:	e3a02003 	mov	r2, #3
    885c:	e59f12d4 	ldr	r1, [pc, #724]	; 8b38 <va_printk+0x478>
    8860:	e1a00006 	mov	r0, r6
    8864:	eb000182 	bl	8e74 <strncmp>
    8868:	e3500000 	cmp	r0, #0
    886c:	1a00003b 	bne	8960 <va_printk+0x2a0>
    8870:	e3a06000 	mov	r6, #0
    8874:	e58d6004 	str	r6, [sp, #4]
    8878:	e58d5000 	str	r5, [sp]
    887c:	e1a03007 	mov	r3, r7
    8880:	e3a02080 	mov	r2, #128	; 0x80
    8884:	e28d1010 	add	r1, sp, #16
    8888:	e3a0000a 	mov	r0, #10
    888c:	ebffff05 	bl	84a8 <emit>
    8890:	e1a07000 	mov	r7, r0
    8894:	e58d6004 	str	r6, [sp, #4]
    8898:	e58d5000 	str	r5, [sp]
    889c:	e1a0300a 	mov	r3, sl
    88a0:	e3a02080 	mov	r2, #128	; 0x80
    88a4:	e28d1090 	add	r1, sp, #144	; 0x90
    88a8:	e3a0000a 	mov	r0, #10
    88ac:	ebfffefd 	bl	84a8 <emit>
    88b0:	e59f1284 	ldr	r1, [pc, #644]	; 8b3c <va_printk+0x47c>
    88b4:	e28d0010 	add	r0, sp, #16
    88b8:	eb000159 	bl	8e24 <strcmp>
    88bc:	e1500006 	cmp	r0, r6
    88c0:	1a000021 	bne	894c <va_printk+0x28c>
    88c4:	e28d1090 	add	r1, sp, #144	; 0x90
    88c8:	e28d0010 	add	r0, sp, #16
    88cc:	eb000160 	bl	8e54 <strcpy>
    88d0:	e1a0600b 	mov	r6, fp
    88d4:	ea00003a 	b	89c4 <va_printk+0x304>
    88d8:	e59f3260 	ldr	r3, [pc, #608]	; 8b40 <va_printk+0x480>
    88dc:	e58d3000 	str	r3, [sp]
    88e0:	e3a0309f 	mov	r3, #159	; 0x9f
    88e4:	e59f223c 	ldr	r2, [pc, #572]	; 8b28 <va_printk+0x468>
    88e8:	e59f123c 	ldr	r1, [pc, #572]	; 8b2c <va_printk+0x46c>
    88ec:	e59f023c 	ldr	r0, [pc, #572]	; 8b30 <va_printk+0x470>
    88f0:	ebfffeab 	bl	83a4 <printk>
    88f4:	eb000097 	bl	8b58 <clean_reboot>
    88f8:	e3a06000 	mov	r6, #0
    88fc:	e58d6004 	str	r6, [sp, #4]
    8900:	e58d5000 	str	r5, [sp]
    8904:	e1a03007 	mov	r3, r7
    8908:	e3a02080 	mov	r2, #128	; 0x80
    890c:	e28d1010 	add	r1, sp, #16
    8910:	e3a00010 	mov	r0, #16
    8914:	ebfffee3 	bl	84a8 <emit>
    8918:	e1a07000 	mov	r7, r0
    891c:	e58d6004 	str	r6, [sp, #4]
    8920:	e58d5000 	str	r5, [sp]
    8924:	e1a0300a 	mov	r3, sl
    8928:	e3a02080 	mov	r2, #128	; 0x80
    892c:	e28d1090 	add	r1, sp, #144	; 0x90
    8930:	e3a00010 	mov	r0, #16
    8934:	ebfffedb 	bl	84a8 <emit>
    8938:	e28d1092 	add	r1, sp, #146	; 0x92
    893c:	e28d0010 	add	r0, sp, #16
    8940:	eb00012a 	bl	8df0 <strcat>
    8944:	e1a0600b 	mov	r6, fp
    8948:	ea00001d 	b	89c4 <va_printk+0x304>
    894c:	e28d1090 	add	r1, sp, #144	; 0x90
    8950:	e28d0010 	add	r0, sp, #16
    8954:	eb000125 	bl	8df0 <strcat>
    8958:	e1a0600b 	mov	r6, fp
    895c:	ea000018 	b	89c4 <va_printk+0x304>
    8960:	e58d6000 	str	r6, [sp]
    8964:	e3a030b6 	mov	r3, #182	; 0xb6
    8968:	e59f21b8 	ldr	r2, [pc, #440]	; 8b28 <va_printk+0x468>
    896c:	e59f11b8 	ldr	r1, [pc, #440]	; 8b2c <va_printk+0x46c>
    8970:	e59f01cc 	ldr	r0, [pc, #460]	; 8b44 <va_printk+0x484>
    8974:	ebfffe8a 	bl	83a4 <printk>
    8978:	eb000076 	bl	8b58 <clean_reboot>
    897c:	e3a030be 	mov	r3, #190	; 0xbe
    8980:	e59f21a0 	ldr	r2, [pc, #416]	; 8b28 <va_printk+0x468>
    8984:	e59f11a0 	ldr	r1, [pc, #416]	; 8b2c <va_printk+0x46c>
    8988:	e59f01b8 	ldr	r0, [pc, #440]	; 8b48 <va_printk+0x488>
    898c:	ebfffe84 	bl	83a4 <printk>
    8990:	eb000070 	bl	8b58 <clean_reboot>
    8994:	e59d300c 	ldr	r3, [sp, #12]
    8998:	e2832004 	add	r2, r3, #4
    899c:	e58d200c 	str	r2, [sp, #12]
    89a0:	e5933000 	ldr	r3, [r3]
    89a4:	e3a02001 	mov	r2, #1
    89a8:	e58d2004 	str	r2, [sp, #4]
    89ac:	e58d5000 	str	r5, [sp]
    89b0:	e3a02080 	mov	r2, #128	; 0x80
    89b4:	e28d1010 	add	r1, sp, #16
    89b8:	e3a0000a 	mov	r0, #10
    89bc:	ebfffeb9 	bl	84a8 <emit>
    89c0:	e1a07000 	mov	r7, r0
    89c4:	e2866001 	add	r6, r6, #1
    89c8:	ea00004a 	b	8af8 <va_printk+0x438>
    89cc:	e59d300c 	ldr	r3, [sp, #12]
    89d0:	e2832004 	add	r2, r3, #4
    89d4:	e58d200c 	str	r2, [sp, #12]
    89d8:	e5933000 	ldr	r3, [r3]
    89dc:	e3a02000 	mov	r2, #0
    89e0:	e58d2004 	str	r2, [sp, #4]
    89e4:	e58d5000 	str	r5, [sp]
    89e8:	e3a02080 	mov	r2, #128	; 0x80
    89ec:	e28d1010 	add	r1, sp, #16
    89f0:	e3a0000a 	mov	r0, #10
    89f4:	ebfffeab 	bl	84a8 <emit>
    89f8:	e1a07000 	mov	r7, r0
    89fc:	eafffff0 	b	89c4 <va_printk+0x304>
    8a00:	e59d300c 	ldr	r3, [sp, #12]
    8a04:	e2832004 	add	r2, r3, #4
    8a08:	e58d200c 	str	r2, [sp, #12]
    8a0c:	e5933000 	ldr	r3, [r3]
    8a10:	e3a02000 	mov	r2, #0
    8a14:	e58d2004 	str	r2, [sp, #4]
    8a18:	e58d5000 	str	r5, [sp]
    8a1c:	e3a02080 	mov	r2, #128	; 0x80
    8a20:	e28d1010 	add	r1, sp, #16
    8a24:	e3a00010 	mov	r0, #16
    8a28:	ebfffe9e 	bl	84a8 <emit>
    8a2c:	e1a07000 	mov	r7, r0
    8a30:	eaffffe3 	b	89c4 <va_printk+0x304>
    8a34:	e59d300c 	ldr	r3, [sp, #12]
    8a38:	e2832004 	add	r2, r3, #4
    8a3c:	e58d200c 	str	r2, [sp, #12]
    8a40:	e5933000 	ldr	r3, [r3]
    8a44:	e3a02000 	mov	r2, #0
    8a48:	e58d2004 	str	r2, [sp, #4]
    8a4c:	e58d5000 	str	r5, [sp]
    8a50:	e3a02080 	mov	r2, #128	; 0x80
    8a54:	e28d1010 	add	r1, sp, #16
    8a58:	e3a00002 	mov	r0, #2
    8a5c:	ebfffe91 	bl	84a8 <emit>
    8a60:	e1a07000 	mov	r7, r0
    8a64:	eaffffd6 	b	89c4 <va_printk+0x304>
    8a68:	e59d300c 	ldr	r3, [sp, #12]
    8a6c:	e2832004 	add	r2, r3, #4
    8a70:	e58d200c 	str	r2, [sp, #12]
    8a74:	e5937000 	ldr	r7, [r3]
    8a78:	eaffffd1 	b	89c4 <va_printk+0x304>
    8a7c:	e59d300c 	ldr	r3, [sp, #12]
    8a80:	e2832004 	add	r2, r3, #4
    8a84:	e58d200c 	str	r2, [sp, #12]
    8a88:	e5933000 	ldr	r3, [r3]
    8a8c:	e3a02000 	mov	r2, #0
    8a90:	e58d2004 	str	r2, [sp, #4]
    8a94:	e58d5000 	str	r5, [sp]
    8a98:	e3a02080 	mov	r2, #128	; 0x80
    8a9c:	e28d1010 	add	r1, sp, #16
    8aa0:	e3a00008 	mov	r0, #8
    8aa4:	ebfffe7f 	bl	84a8 <emit>
    8aa8:	e1a07000 	mov	r7, r0
    8aac:	eaffffc4 	b	89c4 <va_printk+0x304>
    8ab0:	e3a03000 	mov	r3, #0
    8ab4:	e5c63001 	strb	r3, [r6, #1]
    8ab8:	e1a02007 	mov	r2, r7
    8abc:	e1a01007 	mov	r1, r7
    8ac0:	e59f0084 	ldr	r0, [pc, #132]	; 8b4c <va_printk+0x48c>
    8ac4:	ebfffe36 	bl	83a4 <printk>
    8ac8:	e59f3080 	ldr	r3, [pc, #128]	; 8b50 <va_printk+0x490>
    8acc:	e5933000 	ldr	r3, [r3]
    8ad0:	e59d0008 	ldr	r0, [sp, #8]
    8ad4:	e12fff33 	blx	r3
    8ad8:	e3a030e2 	mov	r3, #226	; 0xe2
    8adc:	e59f2044 	ldr	r2, [pc, #68]	; 8b28 <va_printk+0x468>
    8ae0:	e59f1044 	ldr	r1, [pc, #68]	; 8b2c <va_printk+0x46c>
    8ae4:	e59f0068 	ldr	r0, [pc, #104]	; 8b54 <va_printk+0x494>
    8ae8:	ebfffe2d 	bl	83a4 <printk>
    8aec:	eb000019 	bl	8b58 <clean_reboot>
    8af0:	e2877001 	add	r7, r7, #1
    8af4:	e4c43001 	strb	r3, [r4], #1
    8af8:	e1540008 	cmp	r4, r8
    8afc:	2affff00 	bcs	8704 <va_printk+0x44>
    8b00:	e5d73000 	ldrb	r3, [r7]
    8b04:	e3530000 	cmp	r3, #0
    8b08:	1afffff8 	bne	8af0 <va_printk+0x430>
    8b0c:	eafffefc 	b	8704 <va_printk+0x44>
    8b10:	e3a03000 	mov	r3, #0
    8b14:	e4c43001 	strb	r3, [r4], #1
    8b18:	e0440009 	sub	r0, r4, r9
    8b1c:	e28ddf45 	add	sp, sp, #276	; 0x114
    8b20:	e8bd8ff0 	pop	{r4, r5, r6, r7, r8, r9, sl, fp, pc}
    8b24:	00008f28 	andeq	r8, r0, r8, lsr #30
    8b28:	00009030 	andeq	r9, r0, r0, lsr r0
    8b2c:	00008ed0 	ldrdeq	r8, [r0], -r0
    8b30:	00008ee4 	andeq	r8, r0, r4, ror #29
    8b34:	00008f34 	andeq	r8, r0, r4, lsr pc
    8b38:	00008f38 	andeq	r8, r0, r8, lsr pc
    8b3c:	00008ef8 	strdeq	r8, [r0], -r8	; <UNPREDICTABLE>
    8b40:	00008f3c 	andeq	r8, r0, ip, lsr pc
    8b44:	00008f78 	andeq	r8, r0, r8, ror pc
    8b48:	00008fa0 	andeq	r8, r0, r0, lsr #31
    8b4c:	00008fc8 	andeq	r8, r0, r8, asr #31
    8b50:	00009048 	andeq	r9, r0, r8, asr #32
    8b54:	00008ff8 	strdeq	r8, [r0], -r8	; <UNPREDICTABLE>

00008b58 <clean_reboot>:
    8b58:	e92d4010 	push	{r4, lr}
    8b5c:	e59f3018 	ldr	r3, [pc, #24]	; 8b7c <clean_reboot+0x24>
    8b60:	e5933000 	ldr	r3, [r3]
    8b64:	e59f0014 	ldr	r0, [pc, #20]	; 8b80 <clean_reboot+0x28>
    8b68:	e12fff33 	blx	r3
    8b6c:	ebfffdf5 	bl	8348 <uart_flush_tx>
    8b70:	e3a0000a 	mov	r0, #10
    8b74:	eb000048 	bl	8c9c <delay_ms>
    8b78:	eb00001d 	bl	8bf4 <rpi_reboot>
    8b7c:	00009048 	andeq	r9, r0, r8, asr #32
    8b80:	0000903c 	andeq	r9, r0, ip, lsr r0

00008b84 <_cstart>:
    8b84:	e92d4010 	push	{r4, lr}
    8b88:	eb00000d 	bl	8bc4 <custom_loader>
    8b8c:	e59f3028 	ldr	r3, [pc, #40]	; 8bbc <_cstart+0x38>
    8b90:	ea000001 	b	8b9c <_cstart+0x18>
    8b94:	e3a02000 	mov	r2, #0
    8b98:	e4832004 	str	r2, [r3], #4
    8b9c:	e59f201c 	ldr	r2, [pc, #28]	; 8bc0 <_cstart+0x3c>
    8ba0:	e1530002 	cmp	r3, r2
    8ba4:	3afffffa 	bcc	8b94 <_cstart+0x10>
    8ba8:	ebfffd37 	bl	808c <uart_init>
    8bac:	e3a03001 	mov	r3, #1
    8bb0:	ee0f3f1c 	mcr	15, 0, r3, cr15, cr12, {0}
    8bb4:	ebfffd1f 	bl	8038 <notmain>
    8bb8:	ebffffe6 	bl	8b58 <clean_reboot>
    8bbc:	00009050 	andeq	r9, r0, r0, asr r0
    8bc0:	00009458 	andeq	r9, r0, r8, asr r4

00008bc4 <custom_loader>:
    8bc4:	e12fff1e 	bx	lr

00008bc8 <at_user_level>:
    8bc8:	e10f0000 	mrs	r0, CPSR
    8bcc:	e200001f 	and	r0, r0, #31
    8bd0:	e3500010 	cmp	r0, #16
    8bd4:	13a00000 	movne	r0, #0
    8bd8:	03a00001 	moveq	r0, #1
    8bdc:	e12fff1e 	bx	lr

00008be0 <set_user_level>:
    8be0:	e10f3000 	mrs	r3, CPSR
    8be4:	e3c3301f 	bic	r3, r3, #31
    8be8:	e3833010 	orr	r3, r3, #16
    8bec:	e129f003 	msr	CPSR_fc, r3
    8bf0:	e12fff1e 	bx	lr

00008bf4 <rpi_reboot>:
    8bf4:	e92d4010 	push	{r4, lr}
    8bf8:	ebfffff2 	bl	8bc8 <at_user_level>
    8bfc:	e3500000 	cmp	r0, #0
    8c00:	1a00000a 	bne	8c30 <rpi_reboot+0x3c>
    8c04:	eb0000a5 	bl	8ea0 <reboot_callout>
    8c08:	ebfffdce 	bl	8348 <uart_flush_tx>
    8c0c:	e3a0000a 	mov	r0, #10
    8c10:	eb000021 	bl	8c9c <delay_ms>
    8c14:	e59f101c 	ldr	r1, [pc, #28]	; 8c38 <rpi_reboot+0x44>
    8c18:	e59f001c 	ldr	r0, [pc, #28]	; 8c3c <rpi_reboot+0x48>
    8c1c:	ebfffd00 	bl	8024 <PUT32>
    8c20:	e59f1018 	ldr	r1, [pc, #24]	; 8c40 <rpi_reboot+0x4c>
    8c24:	e59f0018 	ldr	r0, [pc, #24]	; 8c44 <rpi_reboot+0x50>
    8c28:	ebfffcfd 	bl	8024 <PUT32>
    8c2c:	eafffffe 	b	8c2c <rpi_reboot+0x38>
    8c30:	ebffffea 	bl	8be0 <set_user_level>
    8c34:	eafffff2 	b	8c04 <rpi_reboot+0x10>
    8c38:	5a000001 	bpl	8c44 <rpi_reboot+0x50>
    8c3c:	20100024 	andscs	r0, r0, r4, lsr #32
    8c40:	5a000020 	bpl	8cc8 <delay_sec+0x14>
    8c44:	2010001c 	andscs	r0, r0, ip, lsl r0

00008c48 <timer_get_usec_raw>:
    8c48:	e92d4010 	push	{r4, lr}
    8c4c:	e59f0004 	ldr	r0, [pc, #4]	; 8c58 <timer_get_usec_raw+0x10>
    8c50:	ebfffcf5 	bl	802c <GET32>
    8c54:	e8bd8010 	pop	{r4, pc}
    8c58:	20003004 	andcs	r3, r0, r4

00008c5c <timer_get_usec>:
    8c5c:	e92d4010 	push	{r4, lr}
    8c60:	eb00008f 	bl	8ea4 <dev_barrier>
    8c64:	ebfffff7 	bl	8c48 <timer_get_usec_raw>
    8c68:	e1a04000 	mov	r4, r0
    8c6c:	eb00008c 	bl	8ea4 <dev_barrier>
    8c70:	e1a00004 	mov	r0, r4
    8c74:	e8bd8010 	pop	{r4, pc}

00008c78 <delay_us>:
    8c78:	e92d4070 	push	{r4, r5, r6, lr}
    8c7c:	e1a05000 	mov	r5, r0
    8c80:	ebfffff5 	bl	8c5c <timer_get_usec>
    8c84:	e1a04000 	mov	r4, r0
    8c88:	ebfffff3 	bl	8c5c <timer_get_usec>
    8c8c:	e0400004 	sub	r0, r0, r4
    8c90:	e1500005 	cmp	r0, r5
    8c94:	3afffffb 	bcc	8c88 <delay_us+0x10>
    8c98:	e8bd8070 	pop	{r4, r5, r6, pc}

00008c9c <delay_ms>:
    8c9c:	e92d4010 	push	{r4, lr}
    8ca0:	e0603280 	rsb	r3, r0, r0, lsl #5
    8ca4:	e0800103 	add	r0, r0, r3, lsl #2
    8ca8:	e1a00180 	lsl	r0, r0, #3
    8cac:	ebfffff1 	bl	8c78 <delay_us>
    8cb0:	e8bd8010 	pop	{r4, pc}

00008cb4 <delay_sec>:
    8cb4:	e92d4010 	push	{r4, lr}
    8cb8:	e0603280 	rsb	r3, r0, r0, lsl #5
    8cbc:	e0800103 	add	r0, r0, r3, lsl #2
    8cc0:	e1a00180 	lsl	r0, r0, #3
    8cc4:	ebfffff4 	bl	8c9c <delay_ms>
    8cc8:	e8bd8010 	pop	{r4, pc}

00008ccc <gpio_set_function>:
    8ccc:	e92d41f0 	push	{r4, r5, r6, r7, r8, lr}
    8cd0:	e1a04000 	mov	r4, r0
    8cd4:	e1a06001 	mov	r6, r1
    8cd8:	e59f503c 	ldr	r5, [pc, #60]	; 8d1c <gpio_set_function+0x50>
    8cdc:	e0853095 	umull	r3, r5, r5, r0
    8ce0:	e1a051a5 	lsr	r5, r5, #3
    8ce4:	e2857302 	add	r7, r5, #134217728	; 0x8000000
    8ce8:	e2877702 	add	r7, r7, #524288	; 0x80000
    8cec:	e1a07107 	lsl	r7, r7, #2
    8cf0:	e1a00007 	mov	r0, r7
    8cf4:	ebfffccc 	bl	802c <GET32>
    8cf8:	e0855105 	add	r5, r5, r5, lsl #2
    8cfc:	e0445085 	sub	r5, r4, r5, lsl #1
    8d00:	e0855085 	add	r5, r5, r5, lsl #1
    8d04:	e3a01007 	mov	r1, #7
    8d08:	e1c01511 	bic	r1, r0, r1, lsl r5
    8d0c:	e1811516 	orr	r1, r1, r6, lsl r5
    8d10:	e1a00007 	mov	r0, r7
    8d14:	ebfffcc2 	bl	8024 <PUT32>
    8d18:	e8bd81f0 	pop	{r4, r5, r6, r7, r8, pc}
    8d1c:	cccccccd 	stclgt	12, cr12, [ip], {205}	; 0xcd

00008d20 <gpio_set_output>:
    8d20:	e92d4010 	push	{r4, lr}
    8d24:	e3a01001 	mov	r1, #1
    8d28:	ebffffe7 	bl	8ccc <gpio_set_function>
    8d2c:	e8bd8010 	pop	{r4, pc}

00008d30 <gpio_set_on>:
    8d30:	e92d4010 	push	{r4, lr}
    8d34:	e3a01001 	mov	r1, #1
    8d38:	e1a01011 	lsl	r1, r1, r0
    8d3c:	e59f0004 	ldr	r0, [pc, #4]	; 8d48 <gpio_set_on+0x18>
    8d40:	ebfffcb7 	bl	8024 <PUT32>
    8d44:	e8bd8010 	pop	{r4, pc}
    8d48:	2020001c 	eorcs	r0, r0, ip, lsl r0

00008d4c <gpio_set_off>:
    8d4c:	e92d4010 	push	{r4, lr}
    8d50:	e3a01001 	mov	r1, #1
    8d54:	e1a01011 	lsl	r1, r1, r0
    8d58:	e59f0004 	ldr	r0, [pc, #4]	; 8d64 <gpio_set_off+0x18>
    8d5c:	ebfffcb0 	bl	8024 <PUT32>
    8d60:	e8bd8010 	pop	{r4, pc}
    8d64:	20200028 	eorcs	r0, r0, r8, lsr #32

00008d68 <gpio_write>:
    8d68:	e92d4010 	push	{r4, lr}
    8d6c:	e3510000 	cmp	r1, #0
    8d70:	0a000001 	beq	8d7c <gpio_write+0x14>
    8d74:	ebffffed 	bl	8d30 <gpio_set_on>
    8d78:	e8bd8010 	pop	{r4, pc}
    8d7c:	ebfffff2 	bl	8d4c <gpio_set_off>
    8d80:	e8bd8010 	pop	{r4, pc}

00008d84 <gpio_set_input>:
    8d84:	e92d4010 	push	{r4, lr}
    8d88:	e3a01000 	mov	r1, #0
    8d8c:	ebffffce 	bl	8ccc <gpio_set_function>
    8d90:	e8bd8010 	pop	{r4, pc}

00008d94 <gpio_read>:
    8d94:	e92d4010 	push	{r4, lr}
    8d98:	e1a04000 	mov	r4, r0
    8d9c:	e59f000c 	ldr	r0, [pc, #12]	; 8db0 <gpio_read+0x1c>
    8da0:	ebfffca1 	bl	802c <GET32>
    8da4:	e3a03001 	mov	r3, #1
    8da8:	e0000413 	and	r0, r0, r3, lsl r4
    8dac:	e8bd8010 	pop	{r4, pc}
    8db0:	20200034 	eorcs	r0, r0, r4, lsr r0

00008db4 <internal_putchar>:
    8db4:	e92d4010 	push	{r4, lr}
    8db8:	e1a04000 	mov	r4, r0
    8dbc:	ebfffd37 	bl	82a0 <uart_putc>
    8dc0:	e1a00004 	mov	r0, r4
    8dc4:	e8bd8010 	pop	{r4, pc}

00008dc8 <rpi_reset_putc>:
    8dc8:	e59f3008 	ldr	r3, [pc, #8]	; 8dd8 <rpi_reset_putc+0x10>
    8dcc:	e59f2008 	ldr	r2, [pc, #8]	; 8ddc <rpi_reset_putc+0x14>
    8dd0:	e5832000 	str	r2, [r3]
    8dd4:	e12fff1e 	bx	lr
    8dd8:	0000904c 	andeq	r9, r0, ip, asr #32
    8ddc:	00008db4 			; <UNDEFINED> instruction: 0x00008db4

00008de0 <rpi_set_putc>:
    8de0:	e59f3004 	ldr	r3, [pc, #4]	; 8dec <rpi_set_putc+0xc>
    8de4:	e5830000 	str	r0, [r3]
    8de8:	e12fff1e 	bx	lr
    8dec:	0000904c 	andeq	r9, r0, ip, asr #32

00008df0 <strcat>:
    8df0:	e1a02000 	mov	r2, r0
    8df4:	e1a03002 	mov	r3, r2
    8df8:	e2822001 	add	r2, r2, #1
    8dfc:	e5d3c000 	ldrb	ip, [r3]
    8e00:	e35c0000 	cmp	ip, #0
    8e04:	1afffffa 	bne	8df4 <strcat+0x4>
    8e08:	e2433001 	sub	r3, r3, #1
    8e0c:	e5d12000 	ldrb	r2, [r1]
    8e10:	e2811001 	add	r1, r1, #1
    8e14:	e5e32001 	strb	r2, [r3, #1]!
    8e18:	e3520000 	cmp	r2, #0
    8e1c:	1afffffa 	bne	8e0c <strcat+0x1c>
    8e20:	e12fff1e 	bx	lr

00008e24 <strcmp>:
    8e24:	ea000001 	b	8e30 <strcmp+0xc>
    8e28:	e2800001 	add	r0, r0, #1
    8e2c:	e2811001 	add	r1, r1, #1
    8e30:	e5d03000 	ldrb	r3, [r0]
    8e34:	e3530000 	cmp	r3, #0
    8e38:	0a000002 	beq	8e48 <strcmp+0x24>
    8e3c:	e5d12000 	ldrb	r2, [r1]
    8e40:	e1530002 	cmp	r3, r2
    8e44:	0afffff7 	beq	8e28 <strcmp+0x4>
    8e48:	e5d10000 	ldrb	r0, [r1]
    8e4c:	e0430000 	sub	r0, r3, r0
    8e50:	e12fff1e 	bx	lr

00008e54 <strcpy>:
    8e54:	e1a0c000 	mov	ip, r0
    8e58:	e5d12000 	ldrb	r2, [r1]
    8e5c:	e2811001 	add	r1, r1, #1
    8e60:	e5cc2000 	strb	r2, [ip]
    8e64:	e28cc001 	add	ip, ip, #1
    8e68:	e3520000 	cmp	r2, #0
    8e6c:	1afffff9 	bne	8e58 <strcpy+0x4>
    8e70:	e12fff1e 	bx	lr

00008e74 <strncmp>:
    8e74:	e3520000 	cmp	r2, #0
    8e78:	e2422001 	sub	r2, r2, #1
    8e7c:	0a000005 	beq	8e98 <strncmp+0x24>
    8e80:	e4d03001 	ldrb	r3, [r0], #1
    8e84:	e4d1c001 	ldrb	ip, [r1], #1
    8e88:	e153000c 	cmp	r3, ip
    8e8c:	0afffff8 	beq	8e74 <strncmp>
    8e90:	e043000c 	sub	r0, r3, ip
    8e94:	e12fff1e 	bx	lr
    8e98:	e3a00000 	mov	r0, #0
    8e9c:	e12fff1e 	bx	lr

00008ea0 <reboot_callout>:
    8ea0:	e12fff1e 	bx	lr

00008ea4 <dev_barrier>:
    8ea4:	ea000002 	b	8eb4 <dsb>

00008ea8 <dmb>:
    8ea8:	e3a00000 	mov	r0, #0
    8eac:	ee070fba 	mcr	15, 0, r0, cr7, cr10, {5}
    8eb0:	e12fff1e 	bx	lr

00008eb4 <dsb>:
    8eb4:	ee070f9a 	mcr	15, 0, r0, cr7, cr10, {4}
    8eb8:	e12fff1e 	bx	lr

00008ebc <__code_end__>:
    8ebc:	00000000 	andeq	r0, r0, r0

Disassembly of section .rodata:

00008ec0 <__FUNCTION__.0-0x158>:
    8ec0:	6c6c6568 	cfstr64vs	mvdx6, [ip], #-416	; 0xfffffe60
    8ec4:	6f77206f 	svcvs	0x0077206f
    8ec8:	0a646c72 	beq	1924098 <__bss_end__+0x191ac40>
    8ecc:	00000000 	andeq	r0, r0, r0
    8ed0:	696c2f2e 	stmdbvs	ip!, {r1, r2, r3, r5, r8, r9, sl, fp, sp}^
    8ed4:	762f6362 	strtvc	r6, [pc], -r2, ror #6
    8ed8:	72702d61 	rsbsvc	r2, r0, #6208	; 0x1840
    8edc:	6b746e69 	blvs	1d24888 <__bss_end__+0x1d1b430>
    8ee0:	0000632e 	andeq	r6, r0, lr, lsr #6
    8ee4:	494e4150 	stmdbmi	lr, {r4, r6, r8, lr}^
    8ee8:	73253a43 			; <UNDEFINED> instruction: 0x73253a43
    8eec:	3a73253a 	bcc	1cd23dc <__bss_end__+0x1cc8f84>
    8ef0:	253a6425 	ldrcs	r6, [sl, #-1061]!	; 0xfffffbdb
    8ef4:	00000a73 	andeq	r0, r0, r3, ror sl
    8ef8:	00000030 	andeq	r0, r0, r0, lsr r0
    8efc:	33323130 	teqcc	r2, #48, 2
    8f00:	37363534 			; <UNDEFINED> instruction: 0x37363534
    8f04:	00003938 	andeq	r3, r0, r8, lsr r9
    8f08:	33323130 	teqcc	r2, #48, 2
    8f0c:	37363534 			; <UNDEFINED> instruction: 0x37363534
    8f10:	62613938 	rsbvs	r3, r1, #56, 18	; 0xe0000
    8f14:	66656463 	strbtvs	r6, [r5], -r3, ror #8
    8f18:	00000000 	andeq	r0, r0, r0
    8f1c:	00003130 	andeq	r3, r0, r0, lsr r1
    8f20:	63747570 	cmnvs	r4, #112, 10	; 0x1c000000
    8f24:	0070665f 	rsbseq	r6, r0, pc, asr r6
    8f28:	74646977 	strbtvc	r6, [r4], #-2423	; 0xfffff689
    8f2c:	203c2068 	eorscs	r2, ip, r8, rrx
    8f30:	00003233 	andeq	r3, r0, r3, lsr r2
    8f34:	00786c6c 	rsbseq	r6, r8, ip, ror #24
    8f38:	00646c6c 	rsbeq	r6, r4, ip, ror #24
    8f3c:	6e727473 	mrcvs	4, 3, r7, cr2, cr3, {3}
    8f40:	28706d63 	ldmdacs	r0!, {r0, r1, r5, r6, r8, sl, fp, sp, lr}^
    8f44:	202c7974 	eorcs	r7, ip, r4, ror r9
    8f48:	786c6c22 	stmdavc	ip!, {r1, r5, sl, fp, sp, lr}^
    8f4c:	33202c22 			; <UNDEFINED> instruction: 0x33202c22
    8f50:	3d3d2029 	ldccc	0, cr2, [sp, #-164]!	; 0xffffff5c
    8f54:	7c203020 	stcvc	0, cr3, [r0], #-128	; 0xffffff80
    8f58:	7473207c 	ldrbtvc	r2, [r3], #-124	; 0xffffff84
    8f5c:	6d636e72 	stclvs	14, cr6, [r3, #-456]!	; 0xfffffe38
    8f60:	79742870 	ldmdbvc	r4!, {r4, r5, r6, fp, sp}^
    8f64:	6c22202c 	stcvs	0, cr2, [r2], #-176	; 0xffffff50
    8f68:	2c22646c 	cfstrscs	mvf6, [r2], #-432	; 0xfffffe50
    8f6c:	20293320 	eorcs	r3, r9, r0, lsr #6
    8f70:	30203d3d 	eorcc	r3, r0, sp, lsr sp
    8f74:	00000000 	andeq	r0, r0, r0
    8f78:	494e4150 	stmdbmi	lr, {r4, r6, r8, lr}^
    8f7c:	73253a43 			; <UNDEFINED> instruction: 0x73253a43
    8f80:	3a73253a 	bcc	1cd2470 <__bss_end__+0x1cc9018>
    8f84:	693a6425 	ldmdbvs	sl!, {r0, r2, r5, sl, sp, lr}
    8f88:	736f706d 	cmnvc	pc, #109	; 0x6d
    8f8c:	6c626973 			; <UNDEFINED> instruction: 0x6c626973
    8f90:	66203a65 	strtvs	r3, [r0], -r5, ror #20
    8f94:	3c3d746d 	cfldrscc	mvf7, [sp], #-436	; 0xfffffe4c
    8f98:	0a3e7325 	beq	fa5c34 <__bss_end__+0xf9c7dc>
    8f9c:	0000000a 	andeq	r0, r0, sl
    8fa0:	494e4150 	stmdbmi	lr, {r4, r6, r8, lr}^
    8fa4:	73253a43 			; <UNDEFINED> instruction: 0x73253a43
    8fa8:	3a73253a 	bcc	1cd2498 <__bss_end__+0x1cc9040>
    8fac:	663a6425 	ldrtvs	r6, [sl], -r5, lsr #8
    8fb0:	74616f6c 	strbtvc	r6, [r1], #-3948	; 0xfffff094
    8fb4:	746f6e20 	strbtvc	r6, [pc], #-3616	; 8fbc <__code_end__+0x100>
    8fb8:	616e6520 	cmnvs	lr, r0, lsr #10
    8fbc:	64656c62 	strbtvs	r6, [r5], #-3170	; 0xfffff39e
    8fc0:	0a212121 	beq	85144c <__bss_end__+0x847ff4>
    8fc4:	00000000 	andeq	r0, r0, r0
    8fc8:	6e697270 	mcrvs	2, 3, r7, cr9, cr0, {3}
    8fcc:	203a6b74 	eorscs	r6, sl, r4, ror fp
    8fd0:	20746f6e 	rsbscs	r6, r4, lr, ror #30
    8fd4:	646e6168 	strbtvs	r6, [lr], #-360	; 0xfffffe98
    8fd8:	676e696c 	strbvs	r6, [lr, -ip, ror #18]!
    8fdc:	65707320 	ldrbvs	r7, [r0, #-800]!	; 0xfffffce0
    8fe0:	69666963 	stmdbvs	r6!, {r0, r1, r5, r6, r8, fp, sp, lr}^
    8fe4:	27207265 	strcs	r7, [r0, -r5, ror #4]!
    8fe8:	20276325 	eorcs	r6, r7, r5, lsr #6
    8fec:	63736128 	cmnvs	r3, #40, 2
    8ff0:	253d6969 	ldrcs	r6, [sp, #-2409]!	; 0xfffff697
    8ff4:	000a2964 	andeq	r2, sl, r4, ror #18
    8ff8:	494e4150 	stmdbmi	lr, {r4, r6, r8, lr}^
    8ffc:	73253a43 			; <UNDEFINED> instruction: 0x73253a43
    9000:	3a73253a 	bcc	1cd24f0 <__bss_end__+0x1cc9098>
    9004:	703a6425 	eorsvc	r6, sl, r5, lsr #8
    9008:	746e6972 	strbtvc	r6, [lr], #-2418	; 0xfffff68e
    900c:	7265206b 	rsbvc	r2, r5, #107	; 0x6b
    9010:	0a726f72 	beq	1ca4de0 <__bss_end__+0x1c9b988>
    9014:	0000000a 	andeq	r0, r0, sl

00009018 <__FUNCTION__.0>:
    9018:	74696d65 	strbtvc	r6, [r9], #-3429	; 0xfffff29b
    901c:	00000000 	andeq	r0, r0, r0

00009020 <__FUNCTION__.2>:
    9020:	5f697072 	svcpl	0x00697072
    9024:	5f746573 	svcpl	0x00746573
    9028:	7074756f 	rsbsvc	r7, r4, pc, ror #10
    902c:	00007475 	andeq	r7, r0, r5, ror r4

00009030 <__FUNCTION__.1>:
    9030:	705f6176 	subsvc	r6, pc, r6, ror r1	; <UNPREDICTABLE>
    9034:	746e6972 	strbtvc	r6, [lr], #-2418	; 0xfffff68e
    9038:	0000006b 	andeq	r0, r0, fp, rrx
    903c:	454e4f44 	strbmi	r4, [lr, #-3908]	; 0xfffff0bc
    9040:	0a212121 	beq	8514cc <__bss_end__+0x848074>
	...

Disassembly of section .data:

00009048 <putk>:
    9048:	000083fc 	strdeq	r8, [r0], -ip

0000904c <rpi_putchar>:
    904c:	00008db4 			; <UNDEFINED> instruction: 0x00008db4

Disassembly of section .bss:

00009050 <uart_registers>:
    9050:	00000000 	andeq	r0, r0, r0

00009054 <buf.0>:
	...

Disassembly of section .ARM.attributes:

00000000 <.ARM.attributes>:
   0:	00002a41 	andeq	r2, r0, r1, asr #20
   4:	61656100 	cmnvs	r5, r0, lsl #2
   8:	01006962 	tsteq	r0, r2, ror #18
   c:	00000020 	andeq	r0, r0, r0, lsr #32
  10:	4b5a3605 	blmi	168d82c <__bss_end__+0x16843d4>
  14:	08070600 	stmdaeq	r7, {r9, sl}
  18:	12010901 	andne	r0, r1, #16384	; 0x4000
  1c:	15011404 	strne	r1, [r1, #-1028]	; 0xfffffbfc
  20:	18031701 	stmdane	r3, {r0, r8, r9, sl, ip}
  24:	22011a01 	andcs	r1, r1, #4096	; 0x1000
  28:	Address 0x0000000000000028 is out of bounds.


Disassembly of section .comment:

00000000 <.comment>:
   0:	3a434347 	bcc	10d0d24 <__bss_end__+0x10c78cc>
   4:	4e472820 	cdpmi	8, 4, cr2, cr7, cr0, {1}
   8:	72412055 	subvc	r2, r1, #85	; 0x55
   c:	6d45206d 	stclvs	0, cr2, [r5, #-436]	; 0xfffffe4c
  10:	64646562 	strbtvs	r6, [r4], #-1378	; 0xfffffa9e
  14:	54206465 	strtpl	r6, [r0], #-1125	; 0xfffffb9b
  18:	636c6f6f 	cmnvs	ip, #444	; 0x1bc
  1c:	6e696168 	powvsez	f6, f1, #0.0
  20:	2e303120 	rsfcssp	f3, f0, f0
  24:	30322d33 	eorscc	r2, r2, r3, lsr sp
  28:	312e3132 			; <UNDEFINED> instruction: 0x312e3132
  2c:	31202930 			; <UNDEFINED> instruction: 0x31202930
  30:	2e332e30 	mrccs	14, 1, r2, cr3, cr0, {1}
  34:	30322031 	eorscc	r2, r2, r1, lsr r0
  38:	38303132 	ldmdacc	r0!, {r1, r4, r5, r8, ip, sp}
  3c:	28203432 	stmdacs	r0!, {r1, r4, r5, sl, ip, sp}
  40:	656c6572 	strbvs	r6, [ip, #-1394]!	; 0xfffffa8e
  44:	29657361 	stmdbcs	r5!, {r0, r5, r6, r8, r9, ip, sp, lr}^
	...

Disassembly of section .debug_info:

00000000 <.debug_info>:
       0:	000000ba 	strheq	r0, [r0], -sl
       4:	00000004 	andeq	r0, r0, r4
       8:	01040000 	mrseq	r0, (UNDEF: 4)
       c:	00000078 	andeq	r0, r0, r8, ror r0
      10:	00011f0c 	andeq	r1, r1, ip, lsl #30
      14:	00003300 	andeq	r3, r0, r0, lsl #6
      18:	00803800 	addeq	r3, r0, r0, lsl #16
      1c:	00001800 	andeq	r1, r0, r0, lsl #16
      20:	00000000 	andeq	r0, r0, r0
      24:	05040200 	streq	r0, [r4, #-512]	; 0xfffffe00
      28:	00746e69 	rsbseq	r6, r4, r9, ror #28
      2c:	6b070403 	blvs	1c1040 <__bss_end__+0x1b7be8>
      30:	03000000 	movweq	r0, #0
      34:	00270601 	eoreq	r0, r7, r1, lsl #12
      38:	02030000 	andeq	r0, r3, #0
      3c:	00013a05 	andeq	r3, r1, r5, lsl #20
      40:	05040300 	streq	r0, [r4, #-768]	; 0xfffffd00
      44:	00000131 	andeq	r0, r0, r1, lsr r1
      48:	2c050803 	stccs	8, cr0, [r5], {3}
      4c:	03000001 	movweq	r0, #1
      50:	00250801 	eoreq	r0, r5, r1, lsl #16
      54:	02030000 	andeq	r0, r3, #0
      58:	00000007 	andeq	r0, r0, r7
      5c:	07040300 	streq	r0, [r4, -r0, lsl #6]
      60:	00000066 	andeq	r0, r0, r6, rrx
      64:	61070803 	tstvs	r7, r3, lsl #16
      68:	03000000 	movweq	r0, #0
      6c:	002e0801 	eoreq	r0, lr, r1, lsl #16
      70:	13040000 	movwne	r0, #16384	; 0x4000
      74:	01000000 	mrseq	r0, (UNDEF: 0)
      78:	80380606 	eorshi	r0, r8, r6, lsl #12
      7c:	00180000 	andseq	r0, r8, r0
      80:	9c010000 	stcls	0, cr0, [r1], {-0}
      84:	000000a5 	andeq	r0, r0, r5, lsr #1
      88:	00804005 	addeq	r4, r0, r5
      8c:	0000a500 	andeq	sl, r0, r0, lsl #10
      90:	80480600 	subhi	r0, r8, r0, lsl #12
      94:	00b10000 	adcseq	r0, r1, r0
      98:	01070000 	mrseq	r0, (UNDEF: 7)
      9c:	c0030550 	andgt	r0, r3, r0, asr r5
      a0:	0000008e 	andeq	r0, r0, lr, lsl #1
      a4:	001b0800 	andseq	r0, fp, r0, lsl #16
      a8:	001b0000 	andseq	r0, fp, r0
      ac:	3b020000 	blcc	800b4 <__bss_end__+0x76c5c>
      b0:	06660806 	strbteq	r0, [r6], -r6, lsl #16
      b4:	06660000 	strbteq	r0, [r6], -r0
      b8:	28020000 	stmdacs	r2, {}	; <UNPREDICTABLE>
      bc:	09ba0006 	ldmibeq	sl!, {r1, r2}
      c0:	00040000 	andeq	r0, r4, r0
      c4:	0000007b 	andeq	r0, r0, fp, ror r0
      c8:	037c0104 	cmneq	ip, #4, 2
      cc:	930c0000 	movwls	r0, #49152	; 0xc000
      d0:	3f000004 	svccc	0x00000004
      d4:	50000005 	andpl	r0, r0, r5
      d8:	54000080 	strpl	r0, [r0], #-128	; 0xffffff80
      dc:	80000003 	andhi	r0, r0, r3
      e0:	02000000 	andeq	r0, r0, #0
      e4:	6e690504 	cdpvs	5, 6, cr0, cr9, cr4, {0}
      e8:	04030074 	streq	r0, [r3], #-116	; 0xffffff8c
      ec:	00006b07 	andeq	r6, r0, r7, lsl #22
      f0:	002c0400 	eoreq	r0, ip, r0, lsl #8
      f4:	01030000 	mrseq	r0, (UNDEF: 3)
      f8:	00002706 	andeq	r2, r0, r6, lsl #14
      fc:	05020300 	streq	r0, [r2, #-768]	; 0xfffffd00
     100:	0000013a 	andeq	r0, r0, sl, lsr r1
     104:	31050403 	tstcc	r5, r3, lsl #8
     108:	03000001 	movweq	r0, #1
     10c:	012c0508 			; <UNDEFINED> instruction: 0x012c0508
     110:	9a050000 	bls	140118 <__bss_end__+0x136cc0>
     114:	02000002 	andeq	r0, r0, #2
     118:	0060182e 	rsbeq	r1, r0, lr, lsr #16
     11c:	01030000 	mrseq	r0, (UNDEF: 3)
     120:	00002508 	andeq	r2, r0, r8, lsl #10
     124:	07020300 	streq	r0, [r2, -r0, lsl #6]
     128:	00000000 	andeq	r0, r0, r0
     12c:	66070403 	strvs	r0, [r7], -r3, lsl #8
     130:	03000000 	movweq	r0, #0
     134:	00610708 	rsbeq	r0, r1, r8, lsl #14
     138:	01030000 	mrseq	r0, (UNDEF: 3)
     13c:	00002e08 	andeq	r2, r0, r8, lsl #28
     140:	01070600 	tsteq	r7, r0, lsl #12
     144:	00000060 	andeq	r0, r0, r0, rrx
     148:	c20e0c04 	andgt	r0, lr, #4, 24	; 0x400
     14c:	07000000 	streq	r0, [r0, -r0]
     150:	0000036c 	andeq	r0, r0, ip, ror #6
     154:	01d70700 	bicseq	r0, r7, r0, lsl #14
     158:	07010000 	streq	r0, [r1, -r0]
     15c:	00000232 	andeq	r0, r0, r2, lsr r2
     160:	02410704 	subeq	r0, r1, #4, 14	; 0x100000
     164:	07050000 	streq	r0, [r5, -r0]
     168:	00000250 	andeq	r0, r0, r0, asr r2
     16c:	025f0706 	subseq	r0, pc, #1572864	; 0x180000
     170:	07070000 	streq	r0, [r7, -r0]
     174:	0000026e 	andeq	r0, r0, lr, ror #4
     178:	027d0703 	rsbseq	r0, sp, #786432	; 0xc0000
     17c:	00020000 	andeq	r0, r2, r0
     180:	00056f08 	andeq	r6, r5, r8, lsl #30
     184:	17b20100 	ldrne	r0, [r2, r0, lsl #2]!
     188:	00000033 	andeq	r0, r0, r3, lsr r0
     18c:	20215000 	eorcs	r5, r1, r0
     190:	00036509 	andeq	r6, r3, r9, lsl #10
     194:	b6010400 	strlt	r0, [r1], -r0, lsl #8
     198:	00010010 	andeq	r0, r1, r0, lsl r0
     19c:	01ae0a00 			; <UNDEFINED> instruction: 0x01ae0a00
     1a0:	b7010000 	strlt	r0, [r1, -r0]
     1a4:	00002c0e 	andeq	r2, r0, lr, lsl #24
     1a8:	1f010400 	svcne	0x00010400
     1ac:	04f10a00 	ldrbteq	r0, [r1], #2560	; 0xa00
     1b0:	b8010000 	stmdalt	r1, {}	; <UNPREDICTABLE>
     1b4:	00002c0e 	andeq	r2, r0, lr, lsl #24
     1b8:	001f0400 	andseq	r0, pc, r0, lsl #8
     1bc:	8b090000 	blhi	2401c4 <__bss_end__+0x236d6c>
     1c0:	04000005 	streq	r0, [r0], #-5
     1c4:	2e10bd01 	cdpcs	13, 1, cr11, cr0, cr1, {0}
     1c8:	0a000001 	beq	1d4 <__code_start__-0x7e2c>
     1cc:	000001a7 	andeq	r0, r0, r7, lsr #3
     1d0:	2c0ebe01 	stccs	14, cr11, [lr], {1}
     1d4:	04000000 	streq	r0, [r0], #-0
     1d8:	0a001f01 	beq	7de4 <__code_start__-0x21c>
     1dc:	000002dd 	ldrdeq	r0, [r0], -sp
     1e0:	2c0ebf01 	stccs	15, cr11, [lr], {1}
     1e4:	04000000 	streq	r0, [r0], #-0
     1e8:	0000001f 	andeq	r0, r0, pc, lsl r0
     1ec:	00056909 	andeq	r6, r5, r9, lsl #18
     1f0:	c5010400 	strgt	r0, [r1, #-1024]	; 0xfffffc00
     1f4:	00015c10 	andeq	r5, r1, r0, lsl ip
     1f8:	04430a00 	strbeq	r0, [r3], #-2560	; 0xfffff600
     1fc:	c6010000 	strgt	r0, [r1], -r0
     200:	00002c0e 	andeq	r2, r0, lr, lsl #24
     204:	18080400 	stmdane	r8, {sl}
     208:	05a10a00 	streq	r0, [r1, #2560]!	; 0xa00
     20c:	c7010000 	strgt	r0, [r1, -r0]
     210:	00002c0e 	andeq	r2, r0, lr, lsl #24
     214:	00180400 	andseq	r0, r8, r0, lsl #8
     218:	c4050000 	strgt	r0, [r5], #-0
     21c:	01000002 	tsteq	r0, r2
     220:	012e03c8 	smlawteq	lr, r8, r3, r0
     224:	a2090000 	andge	r0, r9, #0
     228:	04000002 	streq	r0, [r0], #-2
     22c:	a610cc01 	ldrge	ip, [r0], -r1, lsl #24
     230:	0a000001 	beq	23c <__code_start__-0x7dc4>
     234:	000002a9 	andeq	r0, r0, r9, lsr #5
     238:	2c0ecd01 	stccs	13, cr12, [lr], {1}
     23c:	04000000 	streq	r0, [r0], #-0
     240:	0a001f01 	beq	7e4c <__code_start__-0x1b4>
     244:	000004af 	andeq	r0, r0, pc, lsr #9
     248:	2c0ece01 	stccs	14, cr12, [lr], {1}
     24c:	04000000 	streq	r0, [r0], #-0
     250:	0a001e01 	beq	7a5c <__code_start__-0x5a4>
     254:	00000312 	andeq	r0, r0, r2, lsl r3
     258:	2c0ecf01 	stccs	15, cr12, [lr], {1}
     25c:	04000000 	streq	r0, [r0], #-0
     260:	0000001e 	andeq	r0, r0, lr, lsl r0
     264:	00047509 	andeq	r7, r4, r9, lsl #10
     268:	d4010400 	strle	r0, [r1], #-1024	; 0xfffffc00
     26c:	00020410 	andeq	r0, r2, r0, lsl r4
     270:	06480a00 	strbeq	r0, [r8], -r0, lsl #20
     274:	d5010000 	strle	r0, [r1, #-0]
     278:	00002c0e 	andeq	r2, r0, lr, lsl #24
     27c:	1f010400 	svcne	0x00010400
     280:	03530a00 	cmpeq	r3, #0, 20
     284:	d6010000 	strle	r0, [r1], -r0
     288:	00002c0e 	andeq	r2, r0, lr, lsl #24
     28c:	1e010400 	cfcpysne	mvf0, mvf1
     290:	04230a00 	strteq	r0, [r3], #-2560	; 0xfffff600
     294:	d7010000 	strle	r0, [r1, -r0]
     298:	00002c0e 	andeq	r2, r0, lr, lsl #24
     29c:	1d010400 	cfstrsne	mvf0, [r1, #-0]
     2a0:	02cc0a00 	sbceq	r0, ip, #0, 20
     2a4:	d8010000 	stmdale	r1, {}	; <UNPREDICTABLE>
     2a8:	00002c0e 	andeq	r2, r0, lr, lsl #24
     2ac:	18050400 	stmdane	r5, {sl}
     2b0:	055c0a00 	ldrbeq	r0, [ip, #-2560]	; 0xfffff600
     2b4:	d9010000 	stmdble	r1, {}	; <UNPREDICTABLE>
     2b8:	00002c0e 	andeq	r2, r0, lr, lsl #24
     2bc:	00180400 	andseq	r0, r8, r0, lsl #8
     2c0:	38090000 	stmdacc	r9, {}	; <UNPREDICTABLE>
     2c4:	04000005 	streq	r0, [r0], #-5
     2c8:	3210de01 	andscc	sp, r0, #1, 28
     2cc:	0a000002 	beq	2dc <__code_start__-0x7d24>
     2d0:	000001c2 	andeq	r0, r0, r2, asr #3
     2d4:	2c0edf01 	stccs	15, cr13, [lr], {1}
     2d8:	04000000 	streq	r0, [r0], #-0
     2dc:	0a001f01 	beq	7ee8 <__code_start__-0x118>
     2e0:	0000062b 	andeq	r0, r0, fp, lsr #12
     2e4:	2c0ee001 	stccs	0, cr14, [lr], {1}
     2e8:	04000000 	streq	r0, [r0], #-0
     2ec:	0000001f 	andeq	r0, r0, pc, lsl r0
     2f0:	0001d009 	andeq	sp, r1, r9
     2f4:	e6010400 	str	r0, [r1], -r0, lsl #8
     2f8:	0002a010 	andeq	sl, r2, r0, lsl r0
     2fc:	05e10a00 	strbeq	r0, [r1, #2560]!	; 0xa00
     300:	e7010000 	str	r0, [r1, -r0]
     304:	00002c0e 	andeq	r2, r0, lr, lsl #24
     308:	1f010400 	svcne	0x00010400
     30c:	01b30a00 			; <UNDEFINED> instruction: 0x01b30a00
     310:	e8010000 	stmda	r1, {}	; <UNPREDICTABLE>
     314:	00002c0e 	andeq	r2, r0, lr, lsl #24
     318:	1e010400 	cfcpysne	mvf0, mvf1
     31c:	034b0a00 	movteq	r0, #47616	; 0xba00
     320:	e9010000 	stmdb	r1, {}	; <UNPREDICTABLE>
     324:	00002c0e 	andeq	r2, r0, lr, lsl #24
     328:	1b030400 	blne	c1330 <__bss_end__+0xb7ed8>
     32c:	032b0a00 			; <UNDEFINED> instruction: 0x032b0a00
     330:	ea010000 	b	40338 <__bss_end__+0x36ee0>
     334:	00002c0e 	andeq	r2, r0, lr, lsl #24
     338:	1a010400 	bne	41340 <__bss_end__+0x37ee8>
     33c:	04a00a00 	strteq	r0, [r0], #2560	; 0xa00
     340:	eb010000 	bl	40348 <__bss_end__+0x36ef0>
     344:	00002c0e 	andeq	r2, r0, lr, lsl #24
     348:	19010400 	stmdbne	r1, {sl}
     34c:	06070a00 	streq	r0, [r7], -r0, lsl #20
     350:	ec010000 	stc	0, cr0, [r1], {-0}
     354:	00002c0e 	andeq	r2, r0, lr, lsl #24
     358:	00190400 	andseq	r0, r9, r0, lsl #8
     35c:	eb090000 	bl	240364 <__bss_end__+0x236f0c>
     360:	04000002 	streq	r0, [r0], #-2
     364:	de10f101 	mnfles	f7, f1
     368:	0a000002 	beq	378 <__code_start__-0x7c88>
     36c:	0000014d 	andeq	r0, r0, sp, asr #2
     370:	2c0ef201 	sfmcs	f7, 1, [lr], {1}
     374:	04000000 	streq	r0, [r0], #-0
     378:	0a001f01 	beq	7f84 <__code_start__-0x7c>
     37c:	0000018b 	andeq	r0, r0, fp, lsl #3
     380:	2c0ef301 	stccs	3, cr15, [lr], {1}
     384:	04000000 	streq	r0, [r0], #-0
     388:	0a001e01 	beq	7b94 <__code_start__-0x46c>
     38c:	000004ff 	strdeq	r0, [r0], -pc	; <UNPREDICTABLE>
     390:	2c0ef401 	cfstrscs	mvf15, [lr], {1}
     394:	04000000 	streq	r0, [r0], #-0
     398:	0000001e 	andeq	r0, r0, lr, lsl r0
     39c:	0002f309 	andeq	pc, r2, r9, lsl #6
     3a0:	f9010400 			; <UNDEFINED> instruction: 0xf9010400
     3a4:	0003a110 	andeq	sl, r3, r0, lsl r1
     3a8:	01f60a00 	mvnseq	r0, r0, lsl #20
     3ac:	fa010000 	blx	403b4 <__bss_end__+0x36f5c>
     3b0:	00002c0e 	andeq	r2, r0, lr, lsl #24
     3b4:	1f010400 	svcne	0x00010400
     3b8:	016c0a00 	cmneq	ip, r0, lsl #20
     3bc:	fb010000 	blx	403c6 <__bss_end__+0x36f6e>
     3c0:	00002c0e 	andeq	r2, r0, lr, lsl #24
     3c4:	1e010400 	cfcpysne	mvf0, mvf1
     3c8:	04d20a00 	ldrbeq	r0, [r2], #2560	; 0xa00
     3cc:	fc010000 	stc2	0, cr0, [r1], {-0}
     3d0:	00002c0e 	andeq	r2, r0, lr, lsl #24
     3d4:	1d010400 	cfstrsne	mvf0, [r1, #-0]
     3d8:	019a0a00 	orrseq	r0, sl, r0, lsl #20
     3dc:	fd010000 	stc2	0, cr0, [r1, #-0]
     3e0:	00002c0e 	andeq	r2, r0, lr, lsl #24
     3e4:	1c010400 	cfstrsne	mvf0, [r1], {-0}
     3e8:	06380a00 	ldrteq	r0, [r8], -r0, lsl #20
     3ec:	fe010000 	cdp2	0, 0, cr0, cr1, cr0, {0}
     3f0:	00002c0e 	andeq	r2, r0, lr, lsl #24
     3f4:	1b010400 	blne	413fc <__bss_end__+0x37fa4>
     3f8:	02fb0a00 	rscseq	r0, fp, #0, 20
     3fc:	ff010000 			; <UNDEFINED> instruction: 0xff010000
     400:	00002c0e 	andeq	r2, r0, lr, lsl #24
     404:	1a010400 	bne	4140c <__bss_end__+0x37fb4>
     408:	01440b00 	cmpeq	r4, r0, lsl #22
     40c:	00010000 	andeq	r0, r1, r0
     410:	002c0e01 	eoreq	r0, ip, r1, lsl #28
     414:	01040000 	mrseq	r0, (UNDEF: 4)
     418:	d40b0019 	strle	r0, [fp], #-25	; 0xffffffe7
     41c:	01000002 	tsteq	r0, r2
     420:	2c0e0101 	stfcss	f0, [lr], {1}
     424:	04000000 	streq	r0, [r0], #-0
     428:	0b001801 	bleq	6434 <__code_start__-0x1bcc>
     42c:	000005c6 	andeq	r0, r0, r6, asr #11
     430:	0e010201 	cdpeq	2, 0, cr0, cr1, cr1, {0}
     434:	0000002c 	andeq	r0, r0, ip, lsr #32
     438:	00170104 	andseq	r0, r7, r4, lsl #2
     43c:	00017e0b 	andeq	r7, r1, fp, lsl #28
     440:	01030100 	mrseq	r0, (UNDEF: 19)
     444:	00002c0e 	andeq	r2, r0, lr, lsl #24
     448:	16010400 	strne	r0, [r1], -r0, lsl #8
     44c:	02080b00 	andeq	r0, r8, #0, 22
     450:	04010000 	streq	r0, [r1], #-0
     454:	002c0e01 	eoreq	r0, ip, r1, lsl #28
     458:	16040000 	strne	r0, [r4], -r0
     45c:	0c000000 	stceq	0, cr0, [r0], {-0}
     460:	00000614 	andeq	r0, r0, r4, lsl r6
     464:	03010501 	movweq	r0, #5377	; 0x1501
     468:	000002de 	ldrdeq	r0, [r0], -lr
     46c:	00047c0d 	andeq	r7, r4, sp, lsl #24
     470:	09010400 	stmdbeq	r1, {sl}
     474:	03df1001 	bicseq	r1, pc, #1
     478:	ba0b0000 	blt	2c0480 <__bss_end__+0x2b7028>
     47c:	01000002 	tsteq	r0, r2
     480:	2c0e010a 	stfcss	f0, [lr], {10}
     484:	04000000 	streq	r0, [r0], #-0
     488:	0b001010 	bleq	44d0 <__code_start__-0x3b30>
     48c:	0000031d 	andeq	r0, r0, sp, lsl r3
     490:	0e010b01 	vmlaeq.f64	d0, d1, d1
     494:	0000002c 	andeq	r0, r0, ip, lsr #32
     498:	00001004 	andeq	r1, r0, r4
     49c:	01040e00 	tsteq	r4, r0, lsl #28
     4a0:	0405010f 	streq	r0, [r5], #-271	; 0xfffffef1
     4a4:	0f000004 	svceq	0x00000004
     4a8:	00000365 	andeq	r0, r0, r5, ror #6
     4ac:	12011001 	andne	r1, r1, #1
     4b0:	0000002c 	andeq	r0, r0, ip, lsr #32
     4b4:	00040f0f 	andeq	r0, r4, pc, lsl #30
     4b8:	01110100 	tsteq	r1, r0, lsl #2
     4bc:	0000d217 	andeq	sp, r0, r7, lsl r2
     4c0:	040e0000 	streq	r0, [lr], #-0
     4c4:	05011301 	streq	r1, [r1, #-769]	; 0xfffffcff
     4c8:	00000429 	andeq	r0, r0, r9, lsr #8
     4cc:	00058b0f 	andeq	r8, r5, pc, lsl #22
     4d0:	01140100 	tsteq	r4, r0, lsl #2
     4d4:	00002c12 	andeq	r2, r0, r2, lsl ip
     4d8:	033d0f00 	teqeq	sp, #0, 30
     4dc:	15010000 	strne	r0, [r1, #-0]
     4e0:	01001701 	tsteq	r0, r1, lsl #14
     4e4:	0e000000 	cdpeq	0, 0, cr0, cr0, cr0, {0}
     4e8:	01190104 	tsteq	r9, r4, lsl #2
     4ec:	00044e05 	andeq	r4, r4, r5, lsl #28
     4f0:	05690f00 	strbeq	r0, [r9, #-3840]!	; 0xfffff100
     4f4:	1a010000 	bne	404fc <__bss_end__+0x370a4>
     4f8:	002c1201 	eoreq	r1, ip, r1, lsl #4
     4fc:	1e0f0000 	cdpne	0, 0, cr0, cr15, cr0, {0}
     500:	01000006 	tsteq	r0, r6
     504:	2e16011b 	mrccs	1, 0, r0, cr6, cr11, {0}
     508:	00000001 	andeq	r0, r0, r1
     50c:	1d01040e 	cfstrsne	mvf0, [r1, #-56]	; 0xffffffc8
     510:	04730501 	ldrbteq	r0, [r3], #-1281	; 0xfffffaff
     514:	a20f0000 	andge	r0, pc, #0
     518:	01000002 	tsteq	r0, r2
     51c:	2c12011e 	ldfcss	f0, [r2], {30}
     520:	0f000000 	svceq	0x00000000
     524:	000005f3 	strdeq	r0, [r0], -r3
     528:	17011f01 	strne	r1, [r1, -r1, lsl #30]
     52c:	00000168 	andeq	r0, r0, r8, ror #2
     530:	01040e00 	tsteq	r4, r0, lsl #28
     534:	98050121 	stmdals	r5, {r0, r5, r8}
     538:	0f000004 	svceq	0x00000004
     53c:	00000475 	andeq	r0, r0, r5, ror r4
     540:	12012201 	andne	r2, r1, #268435456	; 0x10000000
     544:	0000002c 	andeq	r0, r0, ip, lsr #32
     548:	0004350f 	andeq	r3, r4, pc, lsl #10
     54c:	01230100 			; <UNDEFINED> instruction: 0x01230100
     550:	0001a617 	andeq	sl, r1, r7, lsl r6
     554:	040e0000 	streq	r0, [lr], #-0
     558:	05012501 	streq	r2, [r1, #-1281]	; 0xfffffaff
     55c:	000004bd 			; <UNDEFINED> instruction: 0x000004bd
     560:	0005380f 	andeq	r3, r5, pc, lsl #16
     564:	01260100 			; <UNDEFINED> instruction: 0x01260100
     568:	00002c12 	andeq	r2, r0, r2, lsl ip
     56c:	01e80f00 	mvneq	r0, r0, lsl #30
     570:	27010000 	strcs	r0, [r1, -r0]
     574:	02041701 	andeq	r1, r4, #262144	; 0x40000
     578:	0e000000 	cdpeq	0, 0, cr0, cr0, cr0, {0}
     57c:	01290104 			; <UNDEFINED> instruction: 0x01290104
     580:	0004d505 	andeq	sp, r4, r5, lsl #10
     584:	044b0f00 	strbeq	r0, [fp], #-3840	; 0xfffff100
     588:	2a010000 	bcs	40590 <__bss_end__+0x37138>
     58c:	002c1201 	eoreq	r1, ip, r1, lsl #4
     590:	0e000000 	cdpeq	0, 0, cr0, cr0, cr0, {0}
     594:	012c0104 			; <UNDEFINED> instruction: 0x012c0104
     598:	0004fa05 	andeq	pc, r4, r5, lsl #20
     59c:	01d00f00 	bicseq	r0, r0, r0, lsl #30
     5a0:	2d010000 	stccs	0, cr0, [r1, #-0]
     5a4:	002c1201 	eoreq	r1, ip, r1, lsl #4
     5a8:	140f0000 	strne	r0, [pc], #-0	; 5b0 <__code_start__-0x7a50>
     5ac:	01000002 	tsteq	r0, r2
     5b0:	3217012e 	andscc	r0, r7, #-2147483637	; 0x8000000b
     5b4:	00000002 	andeq	r0, r0, r2
     5b8:	3001040e 	andcc	r0, r1, lr, lsl #8
     5bc:	05120501 	ldreq	r0, [r2, #-1281]	; 0xfffffaff
     5c0:	670f0000 	strvs	r0, [pc, -r0]
     5c4:	01000004 	tsteq	r0, r4
     5c8:	2c120131 	ldfcss	f0, [r2], {49}	; 0x31
     5cc:	00000000 	andeq	r0, r0, r0
     5d0:	3301040e 	movwcc	r0, #5134	; 0x140e
     5d4:	052a0501 	streq	r0, [sl, #-1281]!	; 0xfffffaff
     5d8:	790f0000 	stmdbvc	pc, {}	; <UNPREDICTABLE>
     5dc:	01000005 	tsteq	r0, r5
     5e0:	2c120134 	ldfcss	f0, [r2], {52}	; 0x34
     5e4:	00000000 	andeq	r0, r0, r0
     5e8:	3601040e 	strcc	r0, [r1], -lr, lsl #8
     5ec:	054f0501 	strbeq	r0, [pc, #-1281]	; f3 <__code_start__-0x7f0d>
     5f0:	eb0f0000 	bl	3c05f8 <__bss_end__+0x3b71a0>
     5f4:	01000002 	tsteq	r0, r2
     5f8:	2c120137 	ldfcss	f0, [r2], {55}	; 0x37
     5fc:	0f000000 	svceq	0x00000000
     600:	000005ad 	andeq	r0, r0, sp, lsr #11
     604:	18013801 	stmdane	r1, {r0, fp, ip, sp}
     608:	000002a0 	andeq	r0, r0, r0, lsr #5
     60c:	01040e00 	tsteq	r4, r0, lsl #28
     610:	7405013a 	strvc	r0, [r5], #-314	; 0xfffffec6
     614:	0f000005 	svceq	0x00000005
     618:	000002f3 	strdeq	r0, [r0], -r3
     61c:	12013b01 	andne	r3, r1, #1024	; 0x400
     620:	0000002c 	andeq	r0, r0, ip, lsr #32
     624:	0004840f 	andeq	r8, r4, pc, lsl #8
     628:	013c0100 	teqeq	ip, r0, lsl #2
     62c:	0002de18 	andeq	sp, r2, r8, lsl lr
     630:	040e0000 	streq	r0, [lr], #-0
     634:	05013e01 	streq	r3, [r1, #-3585]	; 0xfffff1ff
     638:	00000599 	muleq	r0, r9, r5
     63c:	00047c0f 	andeq	r7, r4, pc, lsl #24
     640:	013f0100 	teqeq	pc, r0, lsl #2
     644:	00002c12 	andeq	r2, r0, r2, lsl ip
     648:	05920f00 	ldreq	r0, [r2, #3840]	; 0xf00
     64c:	40010000 	andmi	r0, r1, r0
     650:	03ae1801 			; <UNDEFINED> instruction: 0x03ae1801
     654:	0d000000 	stceq	0, cr0, [r0, #-0]
     658:	0000015c 	andeq	r0, r0, ip, asr r1
     65c:	010e016c 	tsteq	lr, ip, ror #2
     660:	00060410 	andeq	r0, r6, r0, lsl r4
     664:	03df1000 	bicseq	r1, pc, #0
     668:	10000000 	andne	r0, r0, r0
     66c:	00000404 	andeq	r0, r0, r4, lsl #8
     670:	61671104 	cmnvs	r7, r4, lsl #2
     674:	18010070 	stmdane	r1, {r4, r5, r6}
     678:	06040d01 	streq	r0, [r4], -r1, lsl #26
     67c:	10080000 	andne	r0, r8, r0
     680:	00000429 	andeq	r0, r0, r9, lsr #8
     684:	044e1040 	strbeq	r1, [lr], #-64	; 0xffffffc0
     688:	10440000 	subne	r0, r4, r0
     68c:	00000473 	andeq	r0, r0, r3, ror r4
     690:	04981048 	ldreq	r1, [r8], #72	; 0x48
     694:	104c0000 	subne	r0, ip, r0
     698:	000004bd 			; <UNDEFINED> instruction: 0x000004bd
     69c:	04d51050 	ldrbeq	r1, [r5], #80	; 0x50
     6a0:	10540000 	subsne	r0, r4, r0
     6a4:	000004fa 	strdeq	r0, [r0], -sl
     6a8:	05121058 	ldreq	r1, [r2, #-88]	; 0xffffffa8
     6ac:	105c0000 	subsne	r0, ip, r0
     6b0:	0000052a 	andeq	r0, r0, sl, lsr #10
     6b4:	054f1060 	strbeq	r1, [pc, #-96]	; 65c <__code_start__-0x79a4>
     6b8:	10640000 	rsbne	r0, r4, r0
     6bc:	00000574 	andeq	r0, r0, r4, ror r5
     6c0:	54120068 	ldrpl	r0, [r2], #-104	; 0xffffff98
     6c4:	14000000 	strne	r0, [r0], #-0
     6c8:	13000006 	movwne	r0, #6
     6cc:	0000002c 	andeq	r0, r0, ip, lsr #32
     6d0:	df0c0037 	svcle	0x000c0037
     6d4:	01000004 	tsteq	r0, r4
     6d8:	99030142 	stmdbls	r3, {r1, r6, r8}
     6dc:	14000005 	strne	r0, [r0], #-5
     6e0:	0000015d 	andeq	r0, r0, sp, asr r1
     6e4:	1b014501 	blne	51af0 <__bss_end__+0x48698>
     6e8:	00000634 	andeq	r0, r0, r4, lsr r6
     6ec:	90500305 	subsls	r0, r0, r5, lsl #6
     6f0:	04150000 	ldreq	r0, [r5], #-0
     6f4:	00000614 	andeq	r0, r0, r4, lsl r6
     6f8:	0005d416 	andeq	sp, r5, r6, lsl r4
     6fc:	01c30100 	biceq	r0, r3, r0, lsl #2
     700:	00835c06 	addeq	r5, r3, r6, lsl #24
     704:	00004800 	andeq	r4, r0, r0, lsl #16
     708:	709c0100 	addsvc	r0, ip, r0, lsl #2
     70c:	17000006 	strne	r0, [r0, -r6]
     710:	00008370 	andeq	r8, r0, r0, ror r3
     714:	00000999 	muleq	r0, r9, r9
     718:	00000666 	andeq	r0, r0, r6, ror #12
     71c:	03500118 	cmpeq	r0, #24, 2
     720:	0000e075 	andeq	lr, r0, r5, ror r0
     724:	00839c19 	addeq	r9, r3, r9, lsl ip
     728:	0009a500 	andeq	sl, r9, r0, lsl #10
     72c:	0b160000 	bleq	580734 <__bss_end__+0x5772dc>
     730:	01000005 	tsteq	r0, r5
     734:	480601bd 	stmdami	r6, {r0, r2, r3, r4, r5, r7, r8}
     738:	14000083 	strne	r0, [r0], #-131	; 0xffffff7d
     73c:	01000000 	mrseq	r0, (UNDEF: 0)
     740:	0006919c 	muleq	r6, ip, r1
     744:	83501900 	cmphi	r0, #0, 18
     748:	06910000 	ldreq	r0, [r1], r0
     74c:	1a000000 	bne	754 <__code_start__-0x78ac>
     750:	00000527 	andeq	r0, r0, r7, lsr #10
     754:	0501b601 	streq	fp, [r1, #-1537]	; 0xfffff9ff
     758:	00000025 	andeq	r0, r0, r5, lsr #32
     75c:	0000830c 	andeq	r8, r0, ip, lsl #6
     760:	0000003c 	andeq	r0, r0, ip, lsr r0
     764:	06e39c01 	strbteq	r9, [r3], r1, lsl #24
     768:	761b0000 	ldrvc	r0, [fp], -r0
     76c:	01b80100 			; <UNDEFINED> instruction: 0x01b80100
     770:	00002c0e 	andeq	r2, r0, lr, lsl #24
     774:	74910200 	ldrvc	r0, [r1], #512	; 0x200
     778:	0002f31c 	andeq	pc, r2, ip, lsl r3	; <UNPREDICTABLE>
     77c:	01b90100 			; <UNDEFINED> instruction: 0x01b90100
     780:	0006e310 	andeq	lr, r6, r0, lsl r3
     784:	00000200 	andeq	r0, r0, r0, lsl #4
     788:	00000000 	andeq	r0, r0, r0
     78c:	83281d00 			; <UNDEFINED> instruction: 0x83281d00
     790:	09990000 	ldmibeq	r9, {}	; <UNPREDICTABLE>
     794:	01180000 	tsteq	r8, r0
     798:	640c0550 	strvs	r0, [ip], #-1360	; 0xfffffab0
     79c:	00202150 	eoreq	r2, r0, r0, asr r1
     7a0:	a1041500 	tstge	r4, r0, lsl #10
     7a4:	1a000003 	bne	7b8 <__code_start__-0x7848>
     7a8:	00000222 	andeq	r0, r0, r2, lsr #4
     7ac:	0501af01 	streq	sl, [r1, #-3841]	; 0xfffff0ff
     7b0:	00000025 	andeq	r0, r0, r5, lsr #32
     7b4:	000082ec 	andeq	r8, r0, ip, ror #5
     7b8:	00000020 	andeq	r0, r0, r0, lsr #32
     7bc:	07179c01 	ldreq	r9, [r7, -r1, lsl #24]
     7c0:	f4190000 			; <UNDEFINED> instruction: 0xf4190000
     7c4:	17000082 	strne	r0, [r0, -r2, lsl #1]
     7c8:	19000007 	stmdbne	r0, {r0, r1, r2}
     7cc:	00008300 	andeq	r8, r0, r0, lsl #6
     7d0:	000007d2 	ldrdeq	r0, [r0], -r2
     7d4:	04591a00 	ldrbeq	r1, [r9], #-2560	; 0xfffff600
     7d8:	aa010000 	bge	407e0 <__bss_end__+0x37388>
     7dc:	00250501 	eoreq	r0, r5, r1, lsl #10
     7e0:	82e00000 	rschi	r0, r0, #0
     7e4:	000c0000 	andeq	r0, ip, r0
     7e8:	9c010000 	stcls	0, cr0, [r1], {-0}
     7ec:	0000073c 	andeq	r0, r0, ip, lsr r7
     7f0:	0082e819 	addeq	lr, r2, r9, lsl r8
     7f4:	00082e00 	andeq	r2, r8, r0, lsl #28
     7f8:	bc160000 	ldclt	0, cr0, [r6], {-0}
     7fc:	01000005 	tsteq	r0, r5
     800:	a00601a0 	andge	r0, r6, r0, lsr #3
     804:	40000082 	andmi	r0, r0, r2, lsl #1
     808:	01000000 	mrseq	r0, (UNDEF: 0)
     80c:	0007809c 	muleq	r7, ip, r0
     810:	00631e00 	rsbeq	r1, r3, r0, lsl #28
     814:	1901a001 	stmdbne	r1, {r0, sp, pc}
     818:	0000002c 	andeq	r0, r0, ip, lsr #32
     81c:	0000001b 	andeq	r0, r0, fp, lsl r0
     820:	00000017 	andeq	r0, r0, r7, lsl r0
     824:	0082b819 	addeq	fp, r2, r9, lsl r8
     828:	00078000 	andeq	r8, r7, r0
     82c:	82d41d00 	sbcshi	r1, r4, #0, 26
     830:	09a50000 	stmibeq	r5!, {}	; <UNPREDICTABLE>
     834:	01180000 	tsteq	r8, r0
     838:	00740251 	rsbseq	r0, r4, r1, asr r2
     83c:	8c1a0000 	ldchi	0, cr0, [sl], {-0}
     840:	01000002 	tsteq	r0, r2
     844:	25050197 	strcs	r0, [r5, #-407]	; 0xfffffe69
     848:	60000000 	andvs	r0, r0, r0
     84c:	40000082 	andmi	r0, r0, r2, lsl #1
     850:	01000000 	mrseq	r0, (UNDEF: 0)
     854:	0007d29c 	muleq	r7, ip, r2
     858:	00761b00 	rsbseq	r1, r6, r0, lsl #22
     85c:	0e019901 	vmlaeq.f16	s18, s2, s2	; <UNPREDICTABLE>
     860:	0000002c 	andeq	r0, r0, ip, lsr #32
     864:	1c749102 	ldfnep	f1, [r4], #-8
     868:	000002f3 	strdeq	r0, [r0], -r3
     86c:	10019a01 	andne	r9, r1, r1, lsl #20
     870:	000006e3 	andeq	r0, r0, r3, ror #13
     874:	0000003b 	andeq	r0, r0, fp, lsr r0
     878:	00000039 	andeq	r0, r0, r9, lsr r0
     87c:	00827c1d 	addeq	r7, r2, sp, lsl ip
     880:	00099900 	andeq	r9, r9, r0, lsl #18
     884:	50011800 	andpl	r1, r1, r0, lsl #16
     888:	50640c05 	rsbpl	r0, r4, r5, lsl #24
     88c:	00002021 	andeq	r2, r0, r1, lsr #32
     890:	0003081a 	andeq	r0, r3, sl, lsl r8
     894:	018d0100 	orreq	r0, sp, r0, lsl #2
     898:	00002505 	andeq	r2, r0, r5, lsl #10
     89c:	00822400 	addeq	r2, r2, r0, lsl #8
     8a0:	00003c00 	andeq	r3, r0, r0, lsl #24
     8a4:	289c0100 	ldmcs	ip, {r8}
     8a8:	1f000008 	svcne	0x00000008
     8ac:	91010076 	tstls	r1, r6, ror r0
     8b0:	002c0e01 	eoreq	r0, ip, r1, lsl #28
     8b4:	00520000 	subseq	r0, r2, r0
     8b8:	00500000 	subseq	r0, r0, r0
     8bc:	691c0000 	ldmdbvs	ip, {}	; <UNPREDICTABLE>
     8c0:	01000005 	tsteq	r0, r5
     8c4:	280e0192 	stmdacs	lr, {r1, r4, r7, r8}
     8c8:	67000008 	strvs	r0, [r0, -r8]
     8cc:	65000000 	strvs	r0, [r0, #-0]
     8d0:	19000000 	stmdbne	r0, {}	; <UNPREDICTABLE>
     8d4:	00008238 	andeq	r8, r0, r8, lsr r2
     8d8:	0000082e 	andeq	r0, r0, lr, lsr #16
     8dc:	00825019 	addeq	r5, r2, r9, lsl r0
     8e0:	00099900 	andeq	r9, r9, r0, lsl #18
     8e4:	04150000 	ldreq	r0, [r5], #-0
     8e8:	0000015c 	andeq	r0, r0, ip, asr r1
     8ec:	00051920 	andeq	r1, r5, r0, lsr #18
     8f0:	017e0100 	cmneq	lr, r0, lsl #2
     8f4:	0000250c 	andeq	r2, r0, ip, lsl #10
     8f8:	00805000 	addeq	r5, r0, r0
     8fc:	00003c00 	andeq	r3, r0, r0, lsl #24
     900:	809c0100 	addshi	r0, ip, r0, lsl #2
     904:	1b000008 	blne	92c <__code_start__-0x76d4>
     908:	86010076 			; <UNDEFINED> instruction: 0x86010076
     90c:	002c0e01 	eoreq	r0, ip, r1, lsl #28
     910:	91020000 	mrsls	r0, (UNDEF: 2)
     914:	02f31c74 	rscseq	r1, r3, #116, 24	; 0x7400
     918:	87010000 	strhi	r0, [r1, -r0]
     91c:	06e31001 	strbteq	r1, [r3], r1
     920:	00810000 	addeq	r0, r1, r0
     924:	007f0000 	rsbseq	r0, pc, r0
     928:	6c1d0000 	ldcvs	0, cr0, [sp], {-0}
     92c:	99000080 	stmdbls	r0, {r7}
     930:	18000009 	stmdane	r0, {r0, r3}
     934:	0c055001 	stceq	0, cr5, [r5], {1}
     938:	20215064 	eorcs	r5, r1, r4, rrx
     93c:	1b160000 	blne	580944 <__bss_end__+0x5774ec>
     940:	01000000 	mrseq	r0, (UNDEF: 0)
     944:	8c06014c 	stfhis	f0, [r6], {76}	; 0x4c
     948:	98000080 	stmdals	r0, {r7}
     94c:	01000001 	tsteq	r0, r1
     950:	0009999c 	muleq	r9, ip, r9
     954:	80a81700 	adchi	r1, r8, r0, lsl #14
     958:	09b10000 	ldmibeq	r1!, {}	; <UNPREDICTABLE>
     95c:	08af0000 	stmiaeq	pc!, {}	; <UNPREDICTABLE>
     960:	01180000 	tsteq	r8, r0
     964:	183e0150 	ldmdane	lr!, {r4, r6, r8}
     968:	32015101 	andcc	r5, r1, #1073741824	; 0x40000000
     96c:	80b41700 	adcshi	r1, r4, r0, lsl #14
     970:	09b10000 	ldmibeq	r1!, {}	; <UNPREDICTABLE>
     974:	08c70000 	stmiaeq	r7, {}^	; <UNPREDICTABLE>
     978:	01180000 	tsteq	r8, r0
     97c:	183f0150 	ldmdane	pc!, {r4, r6, r8}	; <UNPREDICTABLE>
     980:	32015101 	andcc	r5, r1, #1073741824	; 0x40000000
     984:	80c01700 	sbchi	r1, r0, r0, lsl #14
     988:	09990000 	ldmibeq	r9, {}	; <UNPREDICTABLE>
     98c:	08db0000 	ldmeq	fp, {}^	; <UNPREDICTABLE>
     990:	01180000 	tsteq	r8, r0
     994:	04750250 	ldrbteq	r0, [r5], #-592	; 0xfffffdb0
     998:	80e01900 	rschi	r1, r0, r0, lsl #18
     99c:	09a50000 	stmibeq	r5!, {}	; <UNPREDICTABLE>
     9a0:	ec170000 	ldc	0, cr0, [r7], {-0}
     9a4:	99000080 	stmdbls	r0, {r7}
     9a8:	f9000009 			; <UNDEFINED> instruction: 0xf9000009
     9ac:	18000008 	stmdane	r0, {r3}
     9b0:	75035001 	strvc	r5, [r3, #-1]
     9b4:	190000e0 	stmdbne	r0, {r5, r6, r7}
     9b8:	00008118 	andeq	r8, r0, r8, lsl r1
     9bc:	000009a5 	andeq	r0, r0, r5, lsr #19
     9c0:	00812417 	addeq	r2, r1, r7, lsl r4
     9c4:	00099900 	andeq	r9, r9, r0, lsl #18
     9c8:	00091700 	andeq	r1, r9, r0, lsl #14
     9cc:	50011800 	andpl	r1, r1, r0, lsl #16
     9d0:	00c47503 	sbceq	r7, r4, r3, lsl #10
     9d4:	81501900 	cmphi	r0, r0, lsl #18
     9d8:	09a50000 	stmibeq	r5!, {}	; <UNPREDICTABLE>
     9dc:	5c170000 	ldcpl	0, cr0, [r7], {-0}
     9e0:	99000081 	stmdbls	r0, {r0, r7}
     9e4:	35000009 	strcc	r0, [r0, #-9]
     9e8:	18000009 	stmdane	r0, {r0, r3}
     9ec:	75035001 	strvc	r5, [r3, #-1]
     9f0:	190000c8 	stmdbne	r0, {r3, r6, r7}
     9f4:	00008188 	andeq	r8, r0, r8, lsl #3
     9f8:	000009a5 	andeq	r0, r0, r5, lsr #19
     9fc:	00819417 	addeq	r9, r1, r7, lsl r4
     a00:	00099900 	andeq	r9, r9, r0, lsl #18
     a04:	00095300 	andeq	r5, r9, r0, lsl #6
     a08:	50011800 	andpl	r1, r1, r0, lsl #16
     a0c:	00e87503 	rsceq	r7, r8, r3, lsl #10
     a10:	81b01900 	lslshi	r1, r0, #18
     a14:	09a50000 	stmibeq	r5!, {}	; <UNPREDICTABLE>
     a18:	bc170000 	ldclt	0, cr0, [r7], {-0}
     a1c:	99000081 	stmdbls	r0, {r0, r7}
     a20:	71000009 	tstvc	r0, r9
     a24:	18000009 	stmdane	r0, {r0, r3}
     a28:	75035001 	strvc	r5, [r3, #-1]
     a2c:	190000cc 	stmdbne	r0, {r2, r3, r6, r7}
     a30:	000081dc 	ldrdeq	r8, [r0], -ip
     a34:	000009a5 	andeq	r0, r0, r5, lsr #19
     a38:	0081e817 	addeq	lr, r1, r7, lsl r8
     a3c:	00099900 	andeq	r9, r9, r0, lsl #18
     a40:	00098f00 	andeq	r8, r9, r0, lsl #30
     a44:	50011800 	andpl	r1, r1, r0, lsl #16
     a48:	00e07503 	rsceq	r7, r0, r3, lsl #10
     a4c:	82141900 	andshi	r1, r4, #0, 18
     a50:	09a50000 	stmibeq	r5!, {}	; <UNPREDICTABLE>
     a54:	21000000 	mrscs	r0, (UNDEF: 0)
     a58:	00000601 	andeq	r0, r0, r1, lsl #12
     a5c:	00000601 	andeq	r0, r0, r1, lsl #12
     a60:	210ac203 	tstcs	sl, r3, lsl #4
     a64:	0000041d 	andeq	r0, r0, sp, lsl r4
     a68:	0000041d 	andeq	r0, r0, sp, lsl r4
     a6c:	2106ad03 	tstcs	r6, r3, lsl #26
     a70:	000004c0 	andeq	r0, r0, r0, asr #9
     a74:	000004c0 	andeq	r0, r0, r0, asr #9
     a78:	00061904 	andeq	r1, r6, r4, lsl #18
     a7c:	0000017c 	andeq	r0, r0, ip, ror r1
     a80:	02900004 	addseq	r0, r0, #4
     a84:	01040000 	mrseq	r0, (UNDEF: 4)
     a88:	0000037c 	andeq	r0, r0, ip, ror r3
     a8c:	0006810c 	andeq	r8, r6, ip, lsl #2
     a90:	00053f00 	andeq	r3, r5, r0, lsl #30
     a94:	0083a400 	addeq	sl, r3, r0, lsl #8
     a98:	00005800 	andeq	r5, r0, r0, lsl #16
     a9c:	0003a100 	andeq	sl, r3, r0, lsl #2
     aa0:	066d0200 	strbteq	r0, [sp], -r0, lsl #4
     aa4:	28020000 	stmdacs	r2, {}	; <UNPREDICTABLE>
     aa8:	0000311b 	andeq	r3, r0, fp, lsl r1
     aac:	06910300 	ldreq	r0, [r1], r0, lsl #6
     ab0:	03040000 	movweq	r0, #16384	; 0x4000
     ab4:	00004800 	andeq	r4, r0, r0, lsl #16
     ab8:	067c0400 	ldrbteq	r0, [ip], -r0, lsl #8
     abc:	00480000 	subeq	r0, r8, r0
     ac0:	00000000 	andeq	r0, r0, r0
     ac4:	93020405 	movwls	r0, #9221	; 0x2405
     ac8:	02000006 	andeq	r0, r0, #6
     acc:	00251863 	eoreq	r1, r5, r3, ror #16
     ad0:	04060000 	streq	r0, [r6], #-0
     ad4:	746e6905 	strbtvc	r6, [lr], #-2309	; 0xfffff6fb
     ad8:	07040700 	streq	r0, [r4, -r0, lsl #14]
     adc:	0000006b 	andeq	r0, r0, fp, rrx
     ae0:	27060107 	strcs	r0, [r6, -r7, lsl #2]
     ae4:	07000000 	streq	r0, [r0, -r0]
     ae8:	013a0502 	teqeq	sl, r2, lsl #10
     aec:	04070000 	streq	r0, [r7], #-0
     af0:	00013105 	andeq	r3, r1, r5, lsl #2
     af4:	05080700 	streq	r0, [r8, #-1792]	; 0xfffff900
     af8:	0000012c 	andeq	r0, r0, ip, lsr #2
     afc:	25080107 	strcs	r0, [r8, #-263]	; 0xfffffef9
     b00:	07000000 	streq	r0, [r0, -r0]
     b04:	00000702 	andeq	r0, r0, r2, lsl #14
     b08:	04070000 	streq	r0, [r7], #-0
     b0c:	00006607 	andeq	r6, r0, r7, lsl #12
     b10:	07080700 	streq	r0, [r8, -r0, lsl #14]
     b14:	00000061 	andeq	r0, r0, r1, rrx
     b18:	00005608 	andeq	r5, r0, r8, lsl #12
     b1c:	0000ab00 	andeq	sl, r0, r0, lsl #22
     b20:	00ab0900 	adceq	r0, fp, r0, lsl #18
     b24:	0a000000 	beq	b2c <__code_start__-0x74d4>
     b28:	0000b804 	andeq	fp, r0, r4, lsl #16
     b2c:	08010700 	stmdaeq	r1, {r8, r9, sl}
     b30:	0000002e 	andeq	r0, r0, lr, lsr #32
     b34:	0000b10b 	andeq	fp, r0, fp, lsl #2
     b38:	06a40c00 	strteq	r0, [r4], r0, lsl #24
     b3c:	21040000 	mrscs	r0, (UNDEF: 4)
     b40:	0000c90e 	andeq	ip, r0, lr, lsl #18
     b44:	9c040a00 			; <UNDEFINED> instruction: 0x9c040a00
     b48:	0d000000 	stceq	0, cr0, [r0, #-0]
     b4c:	00000666 	andeq	r0, r0, r6, ror #12
     b50:	56050601 	strpl	r0, [r5], -r1, lsl #12
     b54:	a4000000 	strge	r0, [r0], #-0
     b58:	58000083 	stmdapl	r0, {r0, r1, r7}
     b5c:	01000000 	mrseq	r0, (UNDEF: 0)
     b60:	0001629c 	muleq	r1, ip, r2
     b64:	6d660e00 	stclvs	14, cr0, [r6, #-0]
     b68:	06010074 			; <UNDEFINED> instruction: 0x06010074
     b6c:	0000ab18 	andeq	sl, r0, r8, lsl fp
     b70:	70910200 	addsvc	r0, r1, r0, lsl #4
     b74:	7562100f 	strbvc	r1, [r2, #-15]!
     b78:	08010066 	stmdaeq	r1, {r1, r2, r5, r6}
     b7c:	00016211 	andeq	r6, r1, r1, lsl r2
     b80:	54030500 	strpl	r0, [r3], #-1280	; 0xfffffb00
     b84:	11000090 	swpne	r0, r0, [r0]	; <UNPREDICTABLE>
     b88:	0000065e 	andeq	r0, r0, lr, asr r6
     b8c:	4a0d0901 	bmi	342f98 <__bss_end__+0x339b40>
     b90:	02000000 	andeq	r0, r0, #0
     b94:	73125c91 	tstvc	r2, #37120	; 0x9100
     b98:	0c01007a 	stceq	0, cr0, [r1], {122}	; 0x7a
     b9c:	0000560d 	andeq	r5, r0, sp, lsl #12
     ba0:	00009c00 	andeq	r9, r0, r0, lsl #24
     ba4:	00009600 	andeq	r9, r0, r0, lsl #12
     ba8:	83cc1300 	bichi	r1, ip, #0, 6
     bac:	01730000 	cmneq	r3, r0
     bb0:	01550000 	cmpeq	r5, r0
     bb4:	01140000 	tsteq	r4, r0
     bb8:	00750250 	rsbseq	r0, r5, r0, asr r2
     bbc:	03510114 	cmpeq	r1, #20, 2
     bc0:	1404000a 	strne	r0, [r4], #-10
     bc4:	91035201 	tstls	r3, r1, lsl #4
     bc8:	01140648 	tsteq	r4, r8, asr #12
     bcc:	4c910253 	lfmmi	f0, 4, [r1], {83}	; 0x53
     bd0:	83e01500 	mvnhi	r1, #0, 10
     bd4:	01140000 	tsteq	r4, r0
     bd8:	00750250 	rsbseq	r0, r5, r0, asr r2
     bdc:	b1160000 	tstlt	r6, r0
     be0:	73000000 	movwvc	r0, #0
     be4:	17000001 	strne	r0, [r0, -r1]
     be8:	0000005d 	andeq	r0, r0, sp, asr r0
     bec:	180003ff 	stmdane	r0, {r0, r1, r2, r3, r4, r5, r6, r7, r8, r9}
     bf0:	00000663 	andeq	r0, r0, r3, ror #12
     bf4:	00000663 	andeq	r0, r0, r3, ror #12
     bf8:	00050205 	andeq	r0, r5, r5, lsl #4
     bfc:	000000f3 	strdeq	r0, [r0], -r3
     c00:	03d20004 	bicseq	r0, r2, #4
     c04:	01040000 	mrseq	r0, (UNDEF: 4)
     c08:	0000037c 	andeq	r0, r0, ip, ror r3
     c0c:	0006b50c 	andeq	fp, r6, ip, lsl #10
     c10:	00053f00 	andeq	r3, r5, r0, lsl #30
     c14:	0083fc00 	addeq	pc, r3, r0, lsl #24
     c18:	00003400 	andeq	r3, r0, r0, lsl #8
     c1c:	0004a200 	andeq	sl, r4, r0, lsl #4
     c20:	05040200 	streq	r0, [r4, #-512]	; 0xfffffe00
     c24:	00746e69 	rsbseq	r6, r4, r9, ror #28
     c28:	6b070403 	blvs	1c1c3c <__bss_end__+0x1b87e4>
     c2c:	03000000 	movweq	r0, #0
     c30:	00270601 	eoreq	r0, r7, r1, lsl #12
     c34:	02030000 	andeq	r0, r3, #0
     c38:	00013a05 	andeq	r3, r1, r5, lsl #20
     c3c:	05040300 	streq	r0, [r4, #-768]	; 0xfffffd00
     c40:	00000131 	andeq	r0, r0, r1, lsr r1
     c44:	2c050803 	stccs	8, cr0, [r5], {3}
     c48:	03000001 	movweq	r0, #1
     c4c:	00250801 	eoreq	r0, r5, r1, lsl #16
     c50:	02030000 	andeq	r0, r3, #0
     c54:	00000007 	andeq	r0, r0, r7
     c58:	07040300 	streq	r0, [r4, -r0, lsl #6]
     c5c:	00000066 	andeq	r0, r0, r6, rrx
     c60:	61070803 	tstvs	r7, r3, lsl #16
     c64:	04000000 	streq	r0, [r0], #-0
     c68:	00000025 	andeq	r0, r0, r5, lsr #32
     c6c:	0000007a 	andeq	r0, r0, sl, ror r0
     c70:	00002505 	andeq	r2, r0, r5, lsl #10
     c74:	a9060000 	stmdbge	r6, {}	; <UNPREDICTABLE>
     c78:	02000006 	andeq	r0, r0, #6
     c7c:	00860e1c 	addeq	r0, r6, ip, lsl lr
     c80:	04070000 	streq	r0, [r7], #-0
     c84:	0000006b 	andeq	r0, r0, fp, rrx
     c88:	00002504 	andeq	r2, r0, r4, lsl #10
     c8c:	00009b00 	andeq	r9, r0, r0, lsl #22
     c90:	009b0500 	addseq	r0, fp, r0, lsl #10
     c94:	07000000 	streq	r0, [r0, -r0]
     c98:	0000a804 	andeq	sl, r0, r4, lsl #16
     c9c:	08010300 	stmdaeq	r1, {r8, r9}
     ca0:	0000002e 	andeq	r0, r0, lr, lsr #32
     ca4:	0000a108 	andeq	sl, r0, r8, lsl #2
     ca8:	06a40600 	strteq	r0, [r4], r0, lsl #12
     cac:	21020000 	mrscs	r0, (UNDEF: 2)
     cb0:	0000b90e 	andeq	fp, r0, lr, lsl #18
     cb4:	8c040700 	stchi	7, cr0, [r4], {-0}
     cb8:	09000000 	stmdbeq	r0, {}	; <UNPREDICTABLE>
     cbc:	000000ad 	andeq	r0, r0, sp, lsr #1
     cc0:	05070c01 	streq	r0, [r7, #-3073]	; 0xfffff3ff
     cc4:	00904803 	addseq	r4, r0, r3, lsl #16
     cc8:	069b0a00 	ldreq	r0, [fp], r0, lsl #20
     ccc:	04010000 	streq	r0, [r1], #-0
     cd0:	00002505 	andeq	r2, r0, r5, lsl #10
     cd4:	0083fc00 	addeq	pc, r3, r0, lsl #24
     cd8:	00003400 	andeq	r3, r0, r0, lsl #8
     cdc:	0b9c0100 	bleq	fe7010e4 <__bss_end__+0xfe6f7c8c>
     ce0:	04010070 	streq	r0, [r1], #-112	; 0xffffff90
     ce4:	00009b1f 	andeq	r9, r0, pc, lsl fp
     ce8:	0000c900 	andeq	ip, r0, r0, lsl #18
     cec:	0000c500 	andeq	ip, r0, r0, lsl #10
     cf0:	35000000 	strcc	r0, [r0, #-0]
     cf4:	0400000a 	streq	r0, [r0], #-10
     cf8:	00047000 	andeq	r7, r4, r0
     cfc:	7c010400 	cfstrsvc	mvf0, [r1], {-0}
     d00:	0c000003 	stceq	0, cr0, [r0], {3}
     d04:	000006d4 	ldrdeq	r0, [r0], -r4
     d08:	0000053f 	andeq	r0, r0, pc, lsr r5
     d0c:	00008430 	andeq	r8, r0, r0, lsr r4
     d10:	00000728 	andeq	r0, r0, r8, lsr #14
     d14:	0000053f 	andeq	r0, r0, pc, lsr r5
     d18:	69050402 	stmdbvs	r5, {r1, sl}
     d1c:	0300746e 	movweq	r7, #1134	; 0x46e
     d20:	006b0704 	rsbeq	r0, fp, r4, lsl #14
     d24:	01030000 	mrseq	r0, (UNDEF: 3)
     d28:	00002706 	andeq	r2, r0, r6, lsl #14
     d2c:	05020300 	streq	r0, [r2, #-768]	; 0xfffffd00
     d30:	0000013a 	andeq	r0, r0, sl, lsr r1
     d34:	31050403 	tstcc	r5, r3, lsl #8
     d38:	03000001 	movweq	r0, #1
     d3c:	012c0508 			; <UNDEFINED> instruction: 0x012c0508
     d40:	01030000 	mrseq	r0, (UNDEF: 3)
     d44:	00002508 	andeq	r2, r0, r8, lsl #10
     d48:	07020300 	streq	r0, [r2, -r0, lsl #6]
     d4c:	00000000 	andeq	r0, r0, r0
     d50:	00070f04 	andeq	r0, r7, r4, lsl #30
     d54:	19340200 	ldmdbne	r4!, {r9}
     d58:	00000069 	andeq	r0, r0, r9, rrx
     d5c:	66070403 	strvs	r0, [r7], -r3, lsl #8
     d60:	04000000 	streq	r0, [r0], #-0
     d64:	000006cb 	andeq	r0, r0, fp, asr #13
     d68:	7c193702 	ldcvc	7, cr3, [r9], {2}
     d6c:	03000000 	movweq	r0, #0
     d70:	00610708 	rsbeq	r0, r1, r8, lsl #14
     d74:	25050000 	strcs	r0, [r5, #-0]
     d78:	92000000 	andls	r0, r0, #0
     d7c:	06000000 	streq	r0, [r0], -r0
     d80:	00000025 	andeq	r0, r0, r5, lsr #32
     d84:	06a90700 	strteq	r0, [r9], r0, lsl #14
     d88:	1c030000 	stcne	0, cr0, [r3], {-0}
     d8c:	00009e0e 	andeq	r9, r0, lr, lsl #28
     d90:	83040800 	movwhi	r0, #18432	; 0x4800
     d94:	05000000 	streq	r0, [r0, #-0]
     d98:	00000025 	andeq	r0, r0, r5, lsr #32
     d9c:	000000b3 	strheq	r0, [r0], -r3
     da0:	0000b306 	andeq	fp, r0, r6, lsl #6
     da4:	04080000 	streq	r0, [r8], #-0
     da8:	000000c0 	andeq	r0, r0, r0, asr #1
     dac:	2e080103 	adfcse	f0, f0, f3
     db0:	09000000 	stmdbeq	r0, {}	; <UNPREDICTABLE>
     db4:	000000b9 	strheq	r0, [r0], -r9
     db8:	0006a407 	andeq	sl, r6, r7, lsl #8
     dbc:	0e210300 	cdpeq	3, 2, cr0, cr1, cr0, {0}
     dc0:	000000d1 	ldrdeq	r0, [r0], -r1
     dc4:	00a40408 	adceq	r0, r4, r8, lsl #8
     dc8:	6d040000 	stcvs	0, cr0, [r4, #-0]
     dcc:	04000006 	streq	r0, [r0], #-6
     dd0:	00e31b28 	rsceq	r1, r3, r8, lsr #22
     dd4:	910a0000 	mrsls	r0, (UNDEF: 10)
     dd8:	04000006 	streq	r0, [r0], #-6
     ddc:	00fa0005 	rscseq	r0, sl, r5
     de0:	7c0b0000 	stcvc	0, cr0, [fp], {-0}
     de4:	fa000006 	blx	e04 <__code_start__-0x71fc>
     de8:	00000000 	andeq	r0, r0, r0
     dec:	04040c00 	streq	r0, [r4], #-3072	; 0xfffff400
     df0:	00000693 	muleq	r0, r3, r6
     df4:	d7186304 	ldrle	r6, [r8, -r4, lsl #6]
     df8:	0d000000 	stceq	0, cr0, [r0, #-0]
     dfc:	00000663 	andeq	r0, r0, r3, ror #12
     e00:	25058101 	strcs	r8, [r5, #-257]	; 0xfffffeff
     e04:	c0000000 	andgt	r0, r0, r0
     e08:	98000086 	stmdals	r0, {r1, r2, r7}
     e0c:	01000004 	tsteq	r0, r4
     e10:	0006759c 	muleq	r6, ip, r5
     e14:	75620e00 	strbvc	r0, [r2, #-3584]!	; 0xfffff200
     e18:	81010066 	tsthi	r1, r6, rrx
     e1c:	00067515 	andeq	r7, r6, r5, lsl r5
     e20:	0000ed00 	andeq	lr, r0, r0, lsl #26
     e24:	0000e700 	andeq	lr, r0, r0, lsl #14
     e28:	006e0e00 	rsbeq	r0, lr, r0, lsl #28
     e2c:	251e8101 	ldrcs	r8, [lr, #-257]	; 0xfffffeff
     e30:	1f000000 	svcne	0x00000000
     e34:	19000001 	stmdbne	r0, {r0}
     e38:	0e000001 	cdpeq	0, 0, cr0, cr0, cr1, {0}
     e3c:	00746d66 	rsbseq	r6, r4, r6, ror #26
     e40:	b32d8101 			; <UNDEFINED> instruction: 0xb32d8101
     e44:	59000000 	stmdbpl	r0, {}	; <UNPREDICTABLE>
     e48:	4d000001 	stcmi	0, cr0, [r0, #-4]
     e4c:	0f000001 	svceq	0x00000001
     e50:	0000065e 	andeq	r0, r0, lr, asr r6
     e54:	fc3a8101 	ldc2	1, cr8, [sl], #-4
     e58:	03000000 	movweq	r0, #0
     e5c:	107dd491 			; <UNDEFINED> instruction: 0x107dd491
     e60:	82010070 	andhi	r0, r1, #112	; 0x70
     e64:	00067508 	andeq	r7, r6, r8, lsl #10
     e68:	0001b700 	andeq	fp, r1, r0, lsl #14
     e6c:	0001a300 	andeq	sl, r1, r0, lsl #6
     e70:	00651000 	rsbeq	r1, r5, r0
     e74:	75128201 	ldrvc	r8, [r2, #-513]	; 0xfffffdff
     e78:	39000006 	stmdbcc	r0, {r1, r2}
     e7c:	35000002 	strcc	r0, [r0, #-2]
     e80:	10000002 	andne	r0, r0, r2
     e84:	01003078 	tsteq	r0, r8, ror r0
     e88:	005d0e83 	subseq	r0, sp, r3, lsl #29
     e8c:	02660000 	rsbeq	r0, r6, #0
     e90:	02600000 	rsbeq	r0, r0, #0
     e94:	78110000 	ldmdavc	r1, {}	; <UNPREDICTABLE>
     e98:	83010031 	movwhi	r0, #4145	; 0x1031
     e9c:	00005d11 	andeq	r5, r0, r1, lsl sp
     ea0:	07271200 	streq	r1, [r7, -r0, lsl #4]!
     ea4:	86010000 	strhi	r0, [r1], -r0
     ea8:	0000b311 	andeq	fp, r0, r1, lsl r3
     eac:	00029300 	andeq	r9, r2, r0, lsl #6
     eb0:	00028f00 	andeq	r8, r2, r0, lsl #30
     eb4:	06ed1300 	strbteq	r1, [sp], r0, lsl #6
     eb8:	068b0000 	streq	r0, [fp], r0
     ebc:	03050000 	movweq	r0, #20480	; 0x5000
     ec0:	00009030 	andeq	r9, r0, r0, lsr r0
     ec4:	00872c14 	addeq	r2, r7, r4, lsl ip
     ec8:	0003e400 	andeq	lr, r3, r0, lsl #8
     ecc:	00731000 	rsbseq	r1, r3, r0
     ed0:	750a9101 	strvc	r9, [sl, #-257]	; 0xfffffeff
     ed4:	c9000006 	stmdbgt	r0, {r1, r2}
     ed8:	b3000002 	movwlt	r0, #2
     edc:	15000002 	strne	r0, [r0, #-2]
     ee0:	006d756e 	rsbeq	r7, sp, lr, ror #10
     ee4:	900d9101 	andls	r9, sp, r1, lsl #2
     ee8:	03000006 	movweq	r0, #6
     eec:	167dd891 			; <UNDEFINED> instruction: 0x167dd891
     ef0:	00000761 	andeq	r0, r0, r1, ror #14
     ef4:	90179101 	andsls	r9, r7, r1, lsl #2
     ef8:	03000006 	movweq	r0, #6
     efc:	127ed891 	rsbsne	sp, lr, #9502720	; 0x910000
     f00:	000006e7 	andeq	r0, r0, r7, ror #13
     f04:	2c0d9201 	sfmcs	f1, 1, [sp], {1}
     f08:	50000000 	andpl	r0, r0, r0
     f0c:	4a000003 	bmi	f20 <__code_start__-0x70e0>
     f10:	17000003 	strne	r0, [r0, -r3]
     f14:	000087f0 	strdeq	r8, [r0], -r0
     f18:	0000018c 	andeq	r0, r0, ip, lsl #3
     f1c:	00000497 	muleq	r0, r7, r4
     f20:	00797410 	rsbseq	r7, r9, r0, lsl r4
     f24:	b31d9e01 	tstlt	sp, #1, 28
     f28:	84000000 	strhi	r0, [r0], #-0
     f2c:	7a000003 	bvc	f40 <__code_start__-0x70c0>
     f30:	11000003 	tstne	r0, r3
     f34:	01007878 	tsteq	r0, r8, ror r8
     f38:	00701aa2 	rsbseq	r1, r0, r2, lsr #21
     f3c:	00180000 	andseq	r0, r8, r0
     f40:	f0000088 			; <UNDEFINED> instruction: 0xf0000088
     f44:	6d000009 	stcvs	0, cr0, [r0, #-36]	; 0xffffffdc
     f48:	19000002 	stmdbne	r0, {r1}
     f4c:	76025001 	strvc	r5, [r2], -r1
     f50:	51011900 	tstpl	r1, r0, lsl #18
     f54:	8f340305 	svchi	0x00340305
     f58:	01190000 	tsteq	r9, r0
     f5c:	00330152 	eorseq	r0, r3, r2, asr r1
     f60:	00881818 	addeq	r1, r8, r8, lsl r8
     f64:	0009f000 	andeq	pc, r9, r0
     f68:	00028f00 	andeq	r8, r2, r0, lsl #30
     f6c:	50011900 	andpl	r1, r1, r0, lsl #18
     f70:	19007602 	stmdbne	r0, {r1, r9, sl, ip, sp, lr}
     f74:	03055101 	movweq	r5, #20737	; 0x5101
     f78:	00008f38 	andeq	r8, r0, r8, lsr pc
     f7c:	01520119 	cmpeq	r2, r9, lsl r1
     f80:	50180033 	andspl	r0, r8, r3, lsr r0
     f84:	f0000088 			; <UNDEFINED> instruction: 0xf0000088
     f88:	b1000009 	tstlt	r0, r9
     f8c:	19000002 	stmdbne	r0, {r1}
     f90:	76025001 	strvc	r5, [r2], -r1
     f94:	51011900 	tstpl	r1, r0, lsl #18
     f98:	8f340305 	svchi	0x00340305
     f9c:	01190000 	tsteq	r9, r0
     fa0:	00330152 	eorseq	r0, r3, r2, asr r1
     fa4:	00886818 	addeq	r6, r8, r8, lsl r8
     fa8:	0009f000 	andeq	pc, r9, r0
     fac:	0002d300 	andeq	sp, r2, r0, lsl #6
     fb0:	50011900 	andpl	r1, r1, r0, lsl #18
     fb4:	19007602 	stmdbne	r0, {r1, r9, sl, ip, sp, lr}
     fb8:	03055101 	movweq	r5, #20737	; 0x5101
     fbc:	00008f38 	andeq	r8, r0, r8, lsr pc
     fc0:	01520119 	cmpeq	r2, r9, lsl r1
     fc4:	90180033 	andsls	r0, r8, r3, lsr r0
     fc8:	a0000088 	andge	r0, r0, r8, lsl #1
     fcc:	07000006 	streq	r0, [r0, -r6]
     fd0:	19000003 	stmdbne	r0, {r0, r1}
     fd4:	3a015001 	bcc	54fe0 <__bss_end__+0x4bb88>
     fd8:	03510119 	cmpeq	r1, #1073741830	; 0x40000006
     fdc:	197dd091 	ldmdbne	sp!, {r0, r4, r7, ip, lr, pc}^
     fe0:	08025201 	stmdaeq	r2, {r0, r9, ip, lr}
     fe4:	53011980 	movwpl	r1, #6528	; 0x1980
     fe8:	19007702 	stmdbne	r0, {r1, r8, r9, sl, ip, sp, lr}
     fec:	02007d02 	andeq	r7, r0, #2, 26	; 0x80
     ff0:	02190075 	andseq	r0, r9, #117	; 0x75
     ff4:	7602047d 			; <UNDEFINED> instruction: 0x7602047d
     ff8:	b0180000 	andslt	r0, r8, r0
     ffc:	a0000088 	andge	r0, r0, r8, lsl #1
    1000:	3b000006 	blcc	1020 <__code_start__-0x6fe0>
    1004:	19000003 	stmdbne	r0, {r0, r1}
    1008:	3a015001 	bcc	55014 <__bss_end__+0x4bbbc>
    100c:	03510119 	cmpeq	r1, #1073741830	; 0x40000006
    1010:	197ed091 	ldmdbne	lr!, {r0, r4, r7, ip, lr, pc}^
    1014:	08025201 	stmdaeq	r2, {r0, r9, ip, lr}
    1018:	53011980 	movwpl	r1, #6528	; 0x1980
    101c:	19007a02 	stmdbne	r0, {r1, r9, fp, ip, sp, lr}
    1020:	02007d02 	andeq	r7, r0, #2, 26	; 0x80
    1024:	02190075 	andseq	r0, r9, #117	; 0x75
    1028:	7602047d 			; <UNDEFINED> instruction: 0x7602047d
    102c:	bc180000 	ldclt	0, cr0, [r8], {-0}
    1030:	fc000088 	stc2	0, cr0, [r0], {136}	; 0x88
    1034:	59000009 	stmdbpl	r0, {r0, r3}
    1038:	19000003 	stmdbne	r0, {r0, r1}
    103c:	91035001 	tstls	r3, r1
    1040:	01197dd0 			; <UNDEFINED> instruction: 0x01197dd0
    1044:	f8030551 			; <UNDEFINED> instruction: 0xf8030551
    1048:	0000008e 	andeq	r0, r0, lr, lsl #1
    104c:	0088d018 	addeq	sp, r8, r8, lsl r0
    1050:	000a0800 	andeq	r0, sl, r0, lsl #16
    1054:	00037500 	andeq	r7, r3, r0, lsl #10
    1058:	50011900 	andpl	r1, r1, r0, lsl #18
    105c:	7dd09103 	ldfvcp	f1, [r0, #12]
    1060:	03510119 	cmpeq	r1, #1073741830	; 0x40000006
    1064:	007ed091 			; <UNDEFINED> instruction: 0x007ed091
    1068:	0088f418 	addeq	pc, r8, r8, lsl r4	; <UNPREDICTABLE>
    106c:	000a1400 	andeq	r1, sl, r0, lsl #8
    1070:	0003ae00 	andeq	sl, r3, r0, lsl #28
    1074:	50011900 	andpl	r1, r1, r0, lsl #18
    1078:	8ee40305 	cdphi	3, 14, cr0, cr4, cr5, {0}
    107c:	01190000 	tsteq	r9, r0
    1080:	d0030551 	andle	r0, r3, r1, asr r5
    1084:	1900008e 	stmdbne	r0, {r1, r2, r3, r7}
    1088:	03055201 	movweq	r5, #20993	; 0x5201
    108c:	00009030 	andeq	r9, r0, r0, lsr r0
    1090:	02530119 	subseq	r0, r3, #1073741830	; 0x40000006
    1094:	02199f08 	andseq	r9, r9, #8, 30
    1098:	0305007d 	movweq	r0, #20605	; 0x507d
    109c:	00008f3c 	andeq	r8, r0, ip, lsr pc
    10a0:	88f81a00 	ldmhi	r8!, {r9, fp, ip}^
    10a4:	0a200000 	beq	8010ac <__bss_end__+0x7f7c54>
    10a8:	18180000 	ldmdane	r8, {}	; <UNPREDICTABLE>
    10ac:	a0000089 	andge	r0, r0, r9, lsl #1
    10b0:	eb000006 	bl	10d0 <__code_start__-0x6f30>
    10b4:	19000003 	stmdbne	r0, {r0, r1}
    10b8:	40015001 	andmi	r5, r1, r1
    10bc:	03510119 	cmpeq	r1, #1073741830	; 0x40000006
    10c0:	197dd091 	ldmdbne	sp!, {r0, r4, r7, ip, lr, pc}^
    10c4:	08025201 	stmdaeq	r2, {r0, r9, ip, lr}
    10c8:	53011980 	movwpl	r1, #6528	; 0x1980
    10cc:	19007702 	stmdbne	r0, {r1, r8, r9, sl, ip, sp, lr}
    10d0:	02007d02 	andeq	r7, r0, #2, 26	; 0x80
    10d4:	02190075 	andseq	r0, r9, #117	; 0x75
    10d8:	7602047d 			; <UNDEFINED> instruction: 0x7602047d
    10dc:	38180000 	ldmdacc	r8, {}	; <UNPREDICTABLE>
    10e0:	a0000089 	andge	r0, r0, r9, lsl #1
    10e4:	1f000006 	svcne	0x00000006
    10e8:	19000004 	stmdbne	r0, {r2}
    10ec:	40015001 	andmi	r5, r1, r1
    10f0:	03510119 	cmpeq	r1, #1073741830	; 0x40000006
    10f4:	197ed091 	ldmdbne	lr!, {r0, r4, r7, ip, lr, pc}^
    10f8:	08025201 	stmdaeq	r2, {r0, r9, ip, lr}
    10fc:	53011980 	movwpl	r1, #6528	; 0x1980
    1100:	19007a02 	stmdbne	r0, {r1, r9, fp, ip, sp, lr}
    1104:	02007d02 	andeq	r7, r0, #2, 26	; 0x80
    1108:	02190075 	andseq	r0, r9, #117	; 0x75
    110c:	7602047d 			; <UNDEFINED> instruction: 0x7602047d
    1110:	44180000 	ldrmi	r0, [r8], #-0
    1114:	2c000089 	stccs	0, cr0, [r0], {137}	; 0x89
    1118:	3b00000a 	blcc	1148 <__code_start__-0x6eb8>
    111c:	19000004 	stmdbne	r0, {r2}
    1120:	91035001 	tstls	r3, r1
    1124:	01197dd0 			; <UNDEFINED> instruction: 0x01197dd0
    1128:	d2910351 	addsle	r0, r1, #1140850689	; 0x44000001
    112c:	5818007e 	ldmdapl	r8, {r1, r2, r3, r4, r5, r6}
    1130:	2c000089 	stccs	0, cr0, [r0], {137}	; 0x89
    1134:	5700000a 	strpl	r0, [r0, -sl]
    1138:	19000004 	stmdbne	r0, {r2}
    113c:	91035001 	tstls	r3, r1
    1140:	01197dd0 			; <UNDEFINED> instruction: 0x01197dd0
    1144:	d0910351 	addsle	r0, r1, r1, asr r3
    1148:	7818007e 	ldmdavc	r8, {r1, r2, r3, r4, r5, r6}
    114c:	14000089 	strne	r0, [r0], #-137	; 0xffffff77
    1150:	8d00000a 	stchi	0, cr0, [r0, #-40]	; 0xffffffd8
    1154:	19000004 	stmdbne	r0, {r2}
    1158:	03055001 	movweq	r5, #20481	; 0x5001
    115c:	00008f78 	andeq	r8, r0, r8, ror pc
    1160:	05510119 	ldrbeq	r0, [r1, #-281]	; 0xfffffee7
    1164:	008ed003 	addeq	sp, lr, r3
    1168:	52011900 	andpl	r1, r1, #0, 18
    116c:	90300305 	eorsls	r0, r0, r5, lsl #6
    1170:	01190000 	tsteq	r9, r0
    1174:	b6080253 			; <UNDEFINED> instruction: 0xb6080253
    1178:	007d0219 	rsbseq	r0, sp, r9, lsl r2
    117c:	00007602 	andeq	r7, r0, r2, lsl #12
    1180:	00897c1a 	addeq	r7, r9, sl, lsl ip
    1184:	000a2000 	andeq	r2, sl, r0
    1188:	54180000 	ldrpl	r0, [r8], #-0
    118c:	1e000087 	cdpne	0, 0, cr0, cr0, cr7, {4}
    1190:	ab000009 	blge	11bc <__code_start__-0x6e44>
    1194:	19000004 	stmdbne	r0, {r2}
    1198:	77025001 	strvc	r5, [r2, -r1]
    119c:	ec180000 	ldc	0, cr0, [r8], {-0}
    11a0:	14000087 	strne	r0, [r0], #-135	; 0xffffff79
    11a4:	e400000a 	str	r0, [r0], #-10
    11a8:	19000004 	stmdbne	r0, {r2}
    11ac:	03055001 	movweq	r5, #20481	; 0x5001
    11b0:	00008ee4 	andeq	r8, r0, r4, ror #29
    11b4:	05510119 	ldrbeq	r0, [r1, #-281]	; 0xfffffee7
    11b8:	008ed003 	addeq	sp, lr, r3
    11bc:	52011900 	andpl	r1, r1, #0, 18
    11c0:	90300305 	eorsls	r0, r0, r5, lsl #6
    11c4:	01190000 	tsteq	r9, r0
    11c8:	98080253 	stmdals	r8, {r0, r1, r4, r6, r9}
    11cc:	007d0219 	rsbseq	r0, sp, r9, lsl r2
    11d0:	8f280305 	svchi	0x00280305
    11d4:	1a000000 	bne	11dc <__code_start__-0x6e24>
    11d8:	000087f0 	strdeq	r8, [r0], -r0
    11dc:	00000a20 	andeq	r0, r0, r0, lsr #20
    11e0:	00899018 	addeq	r9, r9, r8, lsl r0
    11e4:	000a1400 	andeq	r1, sl, r0, lsl #8
    11e8:	00051c00 	andeq	r1, r5, r0, lsl #24
    11ec:	50011900 	andpl	r1, r1, r0, lsl #18
    11f0:	8fa00305 	svchi	0x00a00305
    11f4:	01190000 	tsteq	r9, r0
    11f8:	d0030551 	andle	r0, r3, r1, asr r5
    11fc:	1900008e 	stmdbne	r0, {r1, r2, r3, r7}
    1200:	03055201 	movweq	r5, #20993	; 0x5201
    1204:	00009030 	andeq	r9, r0, r0, lsr r0
    1208:	02530119 	subseq	r0, r3, #1073741830	; 0x40000006
    120c:	1a00be08 	bne	30a34 <__bss_end__+0x275dc>
    1210:	00008994 	muleq	r0, r4, r9
    1214:	00000a20 	andeq	r0, r0, r0, lsr #20
    1218:	0089c018 	addeq	ip, r9, r8, lsl r0
    121c:	0006a000 	andeq	sl, r6, r0
    1220:	00055200 	andeq	r5, r5, r0, lsl #4
    1224:	50011900 	andpl	r1, r1, r0, lsl #18
    1228:	01193a01 	tsteq	r9, r1, lsl #20
    122c:	d0910351 	addsle	r0, r1, r1, asr r3
    1230:	5201197d 	andpl	r1, r1, #2048000	; 0x1f4000
    1234:	19800802 	stmibne	r0, {r1, fp}
    1238:	02007d02 	andeq	r7, r0, #2, 26	; 0x80
    123c:	02190075 	andseq	r0, r9, #117	; 0x75
    1240:	3101047d 	tstcc	r1, sp, ror r4
    1244:	89f81800 	ldmibhi	r8!, {fp, ip}^
    1248:	06a00000 	strteq	r0, [r0], r0
    124c:	057f0000 	ldrbeq	r0, [pc, #-0]!	; 1254 <__code_start__-0x6dac>
    1250:	01190000 	tsteq	r9, r0
    1254:	193a0150 	ldmdbne	sl!, {r4, r6, r8}
    1258:	91035101 	tstls	r3, r1, lsl #2
    125c:	01197dd0 			; <UNDEFINED> instruction: 0x01197dd0
    1260:	80080252 	andhi	r0, r8, r2, asr r2
    1264:	007d0219 	rsbseq	r0, sp, r9, lsl r2
    1268:	19007502 	stmdbne	r0, {r1, r8, sl, ip, sp, lr}
    126c:	01047d02 	tsteq	r4, r2, lsl #26
    1270:	2c180030 	ldccs	0, cr0, [r8], {48}	; 0x30
    1274:	a000008a 	andge	r0, r0, sl, lsl #1
    1278:	ac000006 	stcge	0, cr0, [r0], {6}
    127c:	19000005 	stmdbne	r0, {r0, r2}
    1280:	40015001 	andmi	r5, r1, r1
    1284:	03510119 	cmpeq	r1, #1073741830	; 0x40000006
    1288:	197dd091 	ldmdbne	sp!, {r0, r4, r7, ip, lr, pc}^
    128c:	08025201 	stmdaeq	r2, {r0, r9, ip, lr}
    1290:	7d021980 	vstrvc.16	s2, [r2, #-256]	; 0xffffff00	; <UNPREDICTABLE>
    1294:	00750200 	rsbseq	r0, r5, r0, lsl #4
    1298:	047d0219 	ldrbteq	r0, [sp], #-537	; 0xfffffde7
    129c:	18003001 	stmdane	r0, {r0, ip, sp}
    12a0:	00008a60 	andeq	r8, r0, r0, ror #20
    12a4:	000006a0 	andeq	r0, r0, r0, lsr #13
    12a8:	000005d9 	ldrdeq	r0, [r0], -r9
    12ac:	01500119 	cmpeq	r0, r9, lsl r1
    12b0:	51011932 	tstpl	r1, r2, lsr r9
    12b4:	7dd09103 	ldfvcp	f1, [r0, #12]
    12b8:	02520119 	subseq	r0, r2, #1073741830	; 0x40000006
    12bc:	02198008 	andseq	r8, r9, #8
    12c0:	7502007d 	strvc	r0, [r2, #-125]	; 0xffffff83
    12c4:	7d021900 	vstrvc.16	s2, [r2, #-0]	; <UNPREDICTABLE>
    12c8:	00300104 	eorseq	r0, r0, r4, lsl #2
    12cc:	008aa818 	addeq	sl, sl, r8, lsl r8
    12d0:	0006a000 	andeq	sl, r6, r0
    12d4:	00060600 	andeq	r0, r6, r0, lsl #12
    12d8:	50011900 	andpl	r1, r1, r0, lsl #18
    12dc:	01193801 	tsteq	r9, r1, lsl #16
    12e0:	d0910351 	addsle	r0, r1, r1, asr r3
    12e4:	5201197d 	andpl	r1, r1, #2048000	; 0x1f4000
    12e8:	19800802 	stmibne	r0, {r1, fp}
    12ec:	02007d02 	andeq	r7, r0, #2, 26	; 0x80
    12f0:	02190075 	andseq	r0, r9, #117	; 0x75
    12f4:	3001047d 	andcc	r0, r1, sp, ror r4
    12f8:	8ac81800 	bhi	ff207300 <__bss_end__+0xff1fdea8>
    12fc:	0a140000 	beq	501304 <__bss_end__+0x4f7eac>
    1300:	06290000 	strteq	r0, [r9], -r0
    1304:	01190000 	tsteq	r9, r0
    1308:	c8030550 	stmdagt	r3, {r4, r6, r8, sl}
    130c:	1900008f 	stmdbne	r0, {r0, r1, r2, r3, r7}
    1310:	77025101 	strvc	r5, [r2, -r1, lsl #2]
    1314:	52011900 	andpl	r1, r1, #0, 18
    1318:	00007702 	andeq	r7, r0, r2, lsl #14
    131c:	008ad81b 	addeq	sp, sl, fp, lsl r8
    1320:	00063b00 	andeq	r3, r6, r0, lsl #22
    1324:	50011900 	andpl	r1, r1, r0, lsl #18
    1328:	7dc89104 	stfvcp	f1, [r8, #16]
    132c:	ec180006 	ldc	0, cr0, [r8], {6}
    1330:	1400008a 	strne	r0, [r0], #-138	; 0xffffff76
    1334:	6a00000a 	bvs	1364 <__code_start__-0x6c9c>
    1338:	19000006 	stmdbne	r0, {r1, r2}
    133c:	03055001 	movweq	r5, #20481	; 0x5001
    1340:	00008ff8 	strdeq	r8, [r0], -r8	; <UNPREDICTABLE>
    1344:	05510119 	ldrbeq	r0, [r1, #-281]	; 0xfffffee7
    1348:	008ed003 	addeq	sp, lr, r3
    134c:	52011900 	andpl	r1, r1, #0, 18
    1350:	90300305 	eorsls	r0, r0, r5, lsl #6
    1354:	01190000 	tsteq	r9, r0
    1358:	e2080253 	and	r0, r8, #805306373	; 0x30000005
    135c:	8af01a00 	bhi	ffc07b64 <__bss_end__+0xffbfe70c>
    1360:	0a200000 	beq	801368 <__bss_end__+0x7f7f10>
    1364:	00000000 	andeq	r0, r0, r0
    1368:	00b90408 	adcseq	r0, r9, r8, lsl #8
    136c:	c01c0000 	andsgt	r0, ip, r0
    1370:	8b000000 	blhi	1378 <__code_start__-0x6c88>
    1374:	1d000006 	stcne	0, cr0, [r0, #-24]	; 0xffffffe8
    1378:	0000002c 	andeq	r0, r0, ip, lsr #32
    137c:	7b090009 	blvc	2413a8 <__bss_end__+0x237f50>
    1380:	1c000006 	stcne	0, cr0, [r0], {6}
    1384:	000000b9 	strheq	r0, [r0], -r9
    1388:	000006a0 	andeq	r0, r0, r0, lsr #13
    138c:	00002c1d 	andeq	r2, r0, sp, lsl ip
    1390:	1e007f00 	cdpne	15, 0, cr7, cr0, cr0, {0}
    1394:	00000745 	andeq	r0, r0, r5, asr #14
    1398:	75014901 	strvc	r4, [r1, #-2305]	; 0xfffff6ff
    139c:	a8000006 	stmdage	r0, {r1, r2}
    13a0:	b4000084 	strlt	r0, [r0], #-132	; 0xffffff7c
    13a4:	01000001 	tsteq	r0, r1
    13a8:	0008099c 	muleq	r8, ip, r9
    13ac:	076e1f00 	strbeq	r1, [lr, -r0, lsl #30]!
    13b0:	49010000 	stmdbmi	r1, {}	; <UNPREDICTABLE>
    13b4:	00002c0f 	andeq	r2, r0, pc, lsl #24
    13b8:	0003cd00 	andeq	ip, r3, r0, lsl #26
    13bc:	0003c700 	andeq	ip, r3, r0, lsl #14
    13c0:	73640e00 	cmnvc	r4, #0, 28
    13c4:	49010074 	stmdbmi	r1, {r2, r4, r5, r6}
    13c8:	0006751b 	andeq	r7, r6, fp, lsl r5
    13cc:	00040b00 	andeq	r0, r4, r0, lsl #22
    13d0:	0003fb00 	andeq	pc, r3, r0, lsl #22
    13d4:	006e0e00 	rsbeq	r0, lr, r0, lsl #28
    13d8:	25244901 	strcs	r4, [r4, #-2305]!	; 0xfffff6ff
    13dc:	6f000000 	svcvs	0x00000000
    13e0:	6b000004 	blvs	13f8 <__code_start__-0x6c08>
    13e4:	0e000004 	cdpeq	0, 0, cr0, cr0, cr4, {0}
    13e8:	006c6176 	rsbeq	r6, ip, r6, ror r1
    13ec:	252b4901 	strcs	r4, [fp, #-2305]!	; 0xfffff6ff
    13f0:	99000000 	stmdbls	r0, {}	; <UNPREDICTABLE>
    13f4:	8d000004 	stchi	0, cr0, [r0, #-16]
    13f8:	1f000004 	svcne	0x00000004
    13fc:	000006e7 	andeq	r0, r0, r7, ror #13
    1400:	25344901 	ldrcs	r4, [r4, #-2305]!	; 0xfffff6ff
    1404:	ef000000 	svc	0x00000000
    1408:	e9000004 	stmdb	r0, {r2}
    140c:	0f000004 	svceq	0x00000004
    1410:	00000773 	andeq	r0, r0, r3, ror r7
    1414:	253f4901 	ldrcs	r4, [pc, #-2305]!	; b1b <__code_start__-0x74e5>
    1418:	02000000 	andeq	r0, r0, #0
    141c:	62150491 	andsvs	r0, r5, #-1862270976	; 0x91000000
    1420:	01006675 	tsteq	r0, r5, ror r6
    1424:	0809074e 	stmdaeq	r9, {r1, r2, r3, r6, r8, r9, sl}
    1428:	91030000 	mrsls	r0, (UNDEF: 3)
    142c:	70107fa8 	andsvc	r7, r0, r8, lsr #31
    1430:	114e0100 	mrsne	r0, (UNDEF: 94)
    1434:	00000675 	andeq	r0, r0, r5, ror r6
    1438:	00000537 	andeq	r0, r0, r7, lsr r5
    143c:	00000519 	andeq	r0, r0, r9, lsl r5
    1440:	01007510 	tsteq	r0, r0, lsl r5
    1444:	002c0b4f 	eoreq	r0, ip, pc, asr #22
    1448:	06120000 	ldreq	r0, [r2], -r0
    144c:	05fe0000 	ldrbeq	r0, [lr, #0]!
    1450:	ed130000 	ldc	0, cr0, [r3, #-0]
    1454:	29000006 	stmdbcs	r0, {r1, r2}
    1458:	05000008 	streq	r0, [r0, #-8]
    145c:	00901803 	addseq	r1, r0, r3, lsl #16
    1460:	85141700 	ldrhi	r1, [r4, #-1792]	; 0xfffff900
    1464:	00780000 	rsbseq	r0, r8, r0
    1468:	07900000 	ldreq	r0, [r0, r0]
    146c:	3f120000 	svccc	0x00120000
    1470:	01000007 	tsteq	r0, r7
    1474:	002c0d54 	eoreq	r0, ip, r4, asr sp
    1478:	06930000 	ldreq	r0, [r3], r0
    147c:	068b0000 	streq	r0, [fp], r0
    1480:	18000000 	stmdane	r0, {}	; <UNPREDICTABLE>
    1484:	000085cc 	andeq	r8, r0, ip, asr #11
    1488:	000008bb 			; <UNDEFINED> instruction: 0x000008bb
    148c:	000007a5 	andeq	r0, r0, r5, lsr #15
    1490:	03510119 	cmpeq	r1, #1073741830	; 0x40000006
    1494:	007fa091 			; <UNDEFINED> instruction: 0x007fa091
    1498:	0085e018 	addeq	lr, r5, r8, lsl r0
    149c:	00082e00 	andeq	r2, r8, r0, lsl #28
    14a0:	0007c600 	andeq	ip, r7, r0, lsl #12
    14a4:	50011900 	andpl	r1, r1, r0, lsl #18
    14a8:	19007502 	stmdbne	r0, {r1, r8, sl, ip, sp, lr}
    14ac:	74025101 	strvc	r5, [r2], #-257	; 0xfffffeff
    14b0:	53011900 	movwpl	r1, #6400	; 0x1900
    14b4:	7fa09103 	svcvc	0x00a09103
    14b8:	86381800 	ldrthi	r1, [r8], -r0, lsl #16
    14bc:	0a140000 	beq	5014c4 <__bss_end__+0x4f806c>
    14c0:	07ff0000 	ldrbeq	r0, [pc, r0]!
    14c4:	01190000 	tsteq	r9, r0
    14c8:	e4030550 	str	r0, [r3], #-1360	; 0xfffffab0
    14cc:	1900008e 	stmdbne	r0, {r1, r2, r3, r7}
    14d0:	03055101 	movweq	r5, #20737	; 0x5101
    14d4:	00008ed0 	ldrdeq	r8, [r0], -r0
    14d8:	05520119 	ldrbeq	r0, [r2, #-281]	; 0xfffffee7
    14dc:	00901803 	addseq	r1, r0, r3, lsl #16
    14e0:	53011900 	movwpl	r1, #6400	; 0x1900
    14e4:	19790802 	ldmdbne	r9!, {r1, fp}^
    14e8:	05007d02 	streq	r7, [r0, #-3330]	; 0xfffff2fe
    14ec:	008ef803 	addeq	pc, lr, r3, lsl #16
    14f0:	3c1a0000 	ldccc	0, cr0, [sl], {-0}
    14f4:	20000086 	andcs	r0, r0, r6, lsl #1
    14f8:	0000000a 	andeq	r0, r0, sl
    14fc:	0000b91c 	andeq	fp, r0, ip, lsl r9
    1500:	00081900 	andeq	r1, r8, r0, lsl #18
    1504:	002c1d00 	eoreq	r1, ip, r0, lsl #26
    1508:	003f0000 	eorseq	r0, pc, r0
    150c:	0000c01c 	andeq	ip, r0, ip, lsl r0
    1510:	00082900 	andeq	r2, r8, r0, lsl #18
    1514:	002c1d00 	eoreq	r1, ip, r0, lsl #26
    1518:	00040000 	andeq	r0, r4, r0
    151c:	00081909 	andeq	r1, r8, r9, lsl #18
    1520:	07521e00 	ldrbeq	r1, [r2, -r0, lsl #28]
    1524:	38010000 	stmdacc	r1, {}	; <UNPREDICTABLE>
    1528:	0006750e 	andeq	r7, r6, lr, lsl #10
    152c:	00846c00 	addeq	r6, r4, r0, lsl #24
    1530:	00003c00 	andeq	r3, r0, r0, lsl #24
    1534:	bb9c0100 	bllt	fe70193c <__bss_end__+0xfe6f84e4>
    1538:	0e000008 	cdpeq	0, 0, cr0, cr0, cr8, {0}
    153c:	00747364 	rsbseq	r7, r4, r4, ror #6
    1540:	751c3801 	ldrvc	r3, [ip, #-2049]	; 0xfffff7ff
    1544:	d4000006 	strle	r0, [r0], #-6
    1548:	ca000006 	bgt	1568 <__code_start__-0x6a98>
    154c:	0e000006 	cdpeq	0, 0, cr0, cr0, cr6, {0}
    1550:	3801006e 	stmdacc	r1, {r1, r2, r3, r5, r6}
    1554:	00002525 	andeq	r2, r0, r5, lsr #10
    1558:	00071b00 	andeq	r1, r7, r0, lsl #22
    155c:	00071700 	andeq	r1, r7, r0, lsl #14
    1560:	00700e00 	rsbseq	r0, r0, r0, lsl #28
    1564:	752e3801 	strvc	r3, [lr, #-2049]!	; 0xfffff7ff
    1568:	44000006 	strmi	r0, [r0], #-6
    156c:	3c000007 	stccc	0, cr0, [r0], {7}
    1570:	1f000007 	svcne	0x00000007
    1574:	0000072b 	andeq	r0, r0, fp, lsr #14
    1578:	75373801 	ldrvc	r3, [r7, #-2049]!	; 0xfffff7ff
    157c:	7e000006 	cdpvc	0, 0, cr0, cr0, cr6, {0}
    1580:	7a000007 	bvc	15a4 <__code_start__-0x6a5c>
    1584:	10000007 	andne	r0, r0, r7
    1588:	006e656c 	rsbeq	r6, lr, ip, ror #10
    158c:	25063a01 	strcs	r3, [r6, #-2561]	; 0xfffff5ff
    1590:	a6000000 	strge	r0, [r0], -r0
    1594:	9c000007 	stcls	0, cr0, [r0], {7}
    1598:	10000007 	andne	r0, r0, r7
    159c:	3e010073 	mcrcc	0, 0, r0, cr1, cr3, {3}
    15a0:	00067508 	andeq	r7, r6, r8, lsl #10
    15a4:	00080700 	andeq	r0, r8, r0, lsl #14
    15a8:	00080500 	andeq	r0, r8, r0, lsl #10
    15ac:	70200000 	eorvc	r0, r0, r0
    15b0:	01006461 	tsteq	r0, r1, ror #8
    15b4:	06750e2e 	ldrbteq	r0, [r5], -lr, lsr #28
    15b8:	84440000 	strbhi	r0, [r4], #-0
    15bc:	00280000 	eoreq	r0, r8, r0
    15c0:	9c010000 	stcls	0, cr0, [r1], {-0}
    15c4:	0000091e 	andeq	r0, r0, lr, lsl r9
    15c8:	0100700e 	tsteq	r0, lr
    15cc:	0675182e 	ldrbteq	r1, [r5], -lr, lsr #16
    15d0:	08200000 	stmdaeq	r0!, {}	; <UNPREDICTABLE>
    15d4:	081a0000 	ldmdaeq	sl, {}	; <UNPREDICTABLE>
    15d8:	6e1f0000 	cdpvs	0, 1, cr0, cr15, cr0, {0}
    15dc:	01000007 	tsteq	r0, r7
    15e0:	0675222e 	ldrbteq	r2, [r5], -lr, lsr #4
    15e4:	084f0000 	stmdaeq	pc, {}^	; <UNPREDICTABLE>
    15e8:	084b0000 	stmdaeq	fp, {}^	; <UNPREDICTABLE>
    15ec:	e70f0000 	str	r0, [pc, -r0]
    15f0:	01000006 	tsteq	r0, r6
    15f4:	00252c2e 	eoreq	r2, r5, lr, lsr #24
    15f8:	52010000 	andpl	r0, r1, #0
    15fc:	6e656c10 	mcrvs	12, 3, r6, cr5, cr0, {0}
    1600:	062f0100 	strteq	r0, [pc], -r0, lsl #2
    1604:	00000025 	andeq	r0, r0, r5, lsr #32
    1608:	00000872 	andeq	r0, r0, r2, ror r8
    160c:	00000870 	andeq	r0, r0, r0, ror r8
    1610:	06c31e00 	strbeq	r1, [r3], r0, lsl #28
    1614:	27010000 	strcs	r0, [r1, -r0]
    1618:	0000250c 	andeq	r2, r0, ip, lsl #10
    161c:	00843000 	addeq	r3, r4, r0
    1620:	00001400 	andeq	r1, r0, r0, lsl #8
    1624:	4b9c0100 	blmi	fe701a2c <__bss_end__+0xfe6f85d4>
    1628:	0e000009 	cdpeq	0, 0, cr0, cr0, cr9, {0}
    162c:	27010063 	strcs	r0, [r1, -r3, rrx]
    1630:	00002518 	andeq	r2, r0, r8, lsl r5
    1634:	00088b00 	andeq	r8, r8, r0, lsl #22
    1638:	00088500 	andeq	r8, r8, r0, lsl #10
    163c:	18210000 	stmdane	r1!, {}	; <UNPREDICTABLE>
    1640:	01000007 	tsteq	r0, r7
    1644:	865c061f 			; <UNDEFINED> instruction: 0x865c061f
    1648:	00640000 	rsbeq	r0, r4, r0
    164c:	9c010000 	stcls	0, cr0, [r1], {-0}
    1650:	000009db 	ldrdeq	r0, [r0], -fp
    1654:	0007071f 	andeq	r0, r7, pc, lsl r7
    1658:	1b1f0100 	blne	7c1a60 <__bss_end__+0x7b8608>
    165c:	0000009e 	muleq	r0, lr, r0
    1660:	000008bd 			; <UNDEFINED> instruction: 0x000008bd
    1664:	000008b9 			; <UNDEFINED> instruction: 0x000008b9
    1668:	00074a1f 	andeq	r4, r7, pc, lsl sl
    166c:	301f0100 	andscc	r0, pc, r0, lsl #2
    1670:	000000d1 	ldrdeq	r0, [r0], -r1
    1674:	000008e2 	andeq	r0, r0, r2, ror #17
    1678:	000008de 	ldrdeq	r0, [r0], -lr
    167c:	0006ed13 	andeq	lr, r6, r3, lsl sp
    1680:	0009eb00 	andeq	lr, r9, r0, lsl #22
    1684:	20030500 	andcs	r0, r3, r0, lsl #10
    1688:	18000090 	stmdane	r0, {r4, r7}
    168c:	000086a4 	andeq	r8, r0, r4, lsr #13
    1690:	00000a14 	andeq	r0, r0, r4, lsl sl
    1694:	000009d1 	ldrdeq	r0, [r0], -r1
    1698:	05500119 	ldrbeq	r0, [r0, #-281]	; 0xfffffee7
    169c:	008ee403 	addeq	lr, lr, r3, lsl #8
    16a0:	51011900 	tstpl	r1, r0, lsl #18
    16a4:	8ed00305 	cdphi	3, 13, cr0, cr0, cr5, {0}
    16a8:	01190000 	tsteq	r9, r0
    16ac:	20030552 	andcs	r0, r3, r2, asr r5
    16b0:	19000090 	stmdbne	r0, {r4, r7}
    16b4:	08025301 	stmdaeq	r2, {r0, r8, r9, ip, lr}
    16b8:	7d021920 	vstrvc.16	s2, [r2, #-64]	; 0xffffffc0	; <UNPREDICTABLE>
    16bc:	20030500 	andcs	r0, r3, r0, lsl #10
    16c0:	0000008f 	andeq	r0, r0, pc, lsl #1
    16c4:	0086a81a 	addeq	sl, r6, sl, lsl r8
    16c8:	000a2000 	andeq	r2, sl, r0
    16cc:	c01c0000 	andsgt	r0, ip, r0
    16d0:	eb000000 	bl	16d8 <__code_start__-0x6928>
    16d4:	1d000009 	stcne	0, cr0, [r0, #-36]	; 0xffffffdc
    16d8:	0000002c 	andeq	r0, r0, ip, lsr #32
    16dc:	db09000e 	blle	24171c <__bss_end__+0x2382c4>
    16e0:	22000009 	andcs	r0, r0, #9
    16e4:	00000766 	andeq	r0, r0, r6, ror #14
    16e8:	00000766 	andeq	r0, r0, r6, ror #14
    16ec:	2205eb03 	andcs	lr, r5, #3072	; 0xc00
    16f0:	0000075a 	andeq	r0, r0, sl, asr r7
    16f4:	0000075a 	andeq	r0, r0, sl, asr r7
    16f8:	2205ea03 	andcs	lr, r5, #12288	; 0x3000
    16fc:	00000738 	andeq	r0, r0, r8, lsr r7
    1700:	00000738 	andeq	r0, r0, r8, lsr r7
    1704:	2207ed03 	andcs	lr, r7, #3, 26	; 0xc0
    1708:	00000666 	andeq	r0, r0, r6, ror #12
    170c:	00000666 	andeq	r0, r0, r6, ror #12
    1710:	22062803 	andcs	r2, r6, #196608	; 0x30000
    1714:	000006fa 	strdeq	r0, [r0], -sl
    1718:	000006fa 	strdeq	r0, [r0], -sl
    171c:	22066e03 	andcs	r6, r6, #3, 28	; 0x30
    1720:	00000731 	andeq	r0, r0, r1, lsr r7
    1724:	00000731 	andeq	r0, r0, r1, lsr r7
    1728:	0007ee03 	andeq	lr, r7, r3, lsl #28
    172c:	0000010e 	andeq	r0, r0, lr, lsl #2
    1730:	067a0004 	ldrbteq	r0, [sl], -r4
    1734:	01040000 	mrseq	r0, (UNDEF: 4)
    1738:	0000037c 	andeq	r0, r0, ip, ror r3
    173c:	0007900c 	andeq	r9, r7, ip
    1740:	00053f00 	andeq	r3, r5, r0, lsl #30
    1744:	008b5800 	addeq	r5, fp, r0, lsl #16
    1748:	00002c00 	andeq	r2, r0, r0, lsl #24
    174c:	000b0300 	andeq	r0, fp, r0, lsl #6
    1750:	05040200 	streq	r0, [r4, #-512]	; 0xfffffe00
    1754:	00746e69 	rsbseq	r6, r4, r9, ror #28
    1758:	6b070403 	blvs	1c276c <__bss_end__+0x1b9314>
    175c:	03000000 	movweq	r0, #0
    1760:	00270601 	eoreq	r0, r7, r1, lsl #12
    1764:	02030000 	andeq	r0, r3, #0
    1768:	00013a05 	andeq	r3, r1, r5, lsl #20
    176c:	05040300 	streq	r0, [r4, #-768]	; 0xfffffd00
    1770:	00000131 	andeq	r0, r0, r1, lsr r1
    1774:	2c050803 	stccs	8, cr0, [r5], {3}
    1778:	03000001 	movweq	r0, #1
    177c:	00250801 	eoreq	r0, r5, r1, lsl #16
    1780:	02030000 	andeq	r0, r3, #0
    1784:	00000007 	andeq	r0, r0, r7
    1788:	07040300 	streq	r0, [r4, -r0, lsl #6]
    178c:	00000066 	andeq	r0, r0, r6, rrx
    1790:	61070803 	tstvs	r7, r3, lsl #16
    1794:	04000000 	streq	r0, [r0], #-0
    1798:	00000025 	andeq	r0, r0, r5, lsr #32
    179c:	0000007a 	andeq	r0, r0, sl, ror r0
    17a0:	00007a05 	andeq	r7, r0, r5, lsl #20
    17a4:	04060000 	streq	r0, [r6], #-0
    17a8:	00000087 	andeq	r0, r0, r7, lsl #1
    17ac:	2e080103 	adfcse	f0, f0, f3
    17b0:	07000000 	streq	r0, [r0, -r0]
    17b4:	00000080 	andeq	r0, r0, r0, lsl #1
    17b8:	0006a408 	andeq	sl, r6, r8, lsl #8
    17bc:	0e210200 	cdpeq	2, 2, cr0, cr1, cr0, {0}
    17c0:	00000098 	muleq	r0, r8, r0
    17c4:	006b0406 	rsbeq	r0, fp, r6, lsl #8
    17c8:	fa090000 	blx	2417d0 <__bss_end__+0x238378>
    17cc:	01000006 	tsteq	r0, r6
    17d0:	8b580604 	blhi	1602fe8 <__bss_end__+0x15f9b90>
    17d4:	002c0000 	eoreq	r0, ip, r0
    17d8:	9c010000 	stcls	0, cr0, [r1], {-0}
    17dc:	000000ed 	andeq	r0, r0, sp, ror #1
    17e0:	008b6c0a 	addeq	r6, fp, sl, lsl #24
    17e4:	0000c700 	andeq	ip, r0, r0, lsl #14
    17e8:	50010b00 	andpl	r0, r1, r0, lsl #22
    17ec:	903c0305 	eorsls	r0, ip, r5, lsl #6
    17f0:	0c000000 	stceq	0, cr0, [r0], {-0}
    17f4:	00008b70 	andeq	r8, r0, r0, ror fp
    17f8:	000000ed 	andeq	r0, r0, sp, ror #1
    17fc:	008b780d 	addeq	r7, fp, sp, lsl #16
    1800:	0000f900 	andeq	pc, r0, r0, lsl #18
    1804:	0000e300 	andeq	lr, r0, r0, lsl #6
    1808:	50010b00 	andpl	r0, r1, r0, lsl #22
    180c:	0c003a01 			; <UNDEFINED> instruction: 0x0c003a01
    1810:	00008b7c 	andeq	r8, r0, ip, ror fp
    1814:	00000105 	andeq	r0, r0, r5, lsl #2
    1818:	050b0e00 	streq	r0, [fp, #-3584]	; 0xfffff200
    181c:	050b0000 	streq	r0, [fp, #-0]
    1820:	4d020000 	stcmi	0, cr0, [r2, #-0]
    1824:	07870e06 	streq	r0, [r7, r6, lsl #28]
    1828:	07870000 	streq	r0, [r7, r0]
    182c:	58020000 	stmdapl	r2, {}	; <UNPREDICTABLE>
    1830:	077c0e06 	ldrbeq	r0, [ip, -r6, lsl #28]!
    1834:	077c0000 	ldrbeq	r0, [ip, -r0]!
    1838:	6b020000 	blvs	81840 <__bss_end__+0x783e8>
    183c:	013c0006 	teqeq	ip, r6
    1840:	00040000 	andeq	r0, r4, r0
    1844:	0000073a 	andeq	r0, r0, sl, lsr r7
    1848:	037c0104 	cmneq	ip, #4, 2
    184c:	d70c0000 	strle	r0, [ip, -r0]
    1850:	3f000007 	svccc	0x00000007
    1854:	84000005 	strhi	r0, [r0], #-5
    1858:	4000008b 	andmi	r0, r0, fp, lsl #1
    185c:	81000000 	mrshi	r0, (UNDEF: 0)
    1860:	0200000b 	andeq	r0, r0, #11
    1864:	6e690504 	cdpvs	5, 6, cr0, cr9, cr4, {0}
    1868:	04030074 	streq	r0, [r3], #-116	; 0xffffff8c
    186c:	00006b07 	andeq	r6, r0, r7, lsl #22
    1870:	06010300 	streq	r0, [r1], -r0, lsl #6
    1874:	00000027 	andeq	r0, r0, r7, lsr #32
    1878:	3a050203 	bcc	14208c <__bss_end__+0x138c34>
    187c:	03000001 	movweq	r0, #1
    1880:	01310504 	teqeq	r1, r4, lsl #10
    1884:	08030000 	stmdaeq	r3, {}	; <UNPREDICTABLE>
    1888:	00012c05 	andeq	r2, r1, r5, lsl #24
    188c:	08010300 	stmdaeq	r1, {r8, r9}
    1890:	00000025 	andeq	r0, r0, r5, lsr #32
    1894:	00070203 	andeq	r0, r7, r3, lsl #4
    1898:	03000000 	movweq	r0, #0
    189c:	00660704 	rsbeq	r0, r6, r4, lsl #14
    18a0:	08030000 	stmdaeq	r3, {}	; <UNPREDICTABLE>
    18a4:	00006107 	andeq	r6, r0, r7, lsl #2
    18a8:	08010300 	stmdaeq	r1, {r8, r9}
    18ac:	0000002e 	andeq	r0, r0, lr, lsr #32
    18b0:	0007b904 	andeq	fp, r7, r4, lsl #18
    18b4:	06040100 	streq	r0, [r4], -r0, lsl #2
    18b8:	00008b84 	andeq	r8, r0, r4, lsl #23
    18bc:	00000040 	andeq	r0, r0, r0, asr #32
    18c0:	01079c01 	tsteq	r7, r1, lsl #24
    18c4:	ab050000 	blge	1418cc <__bss_end__+0x138474>
    18c8:	01000007 	tsteq	r0, r7
    18cc:	00251005 	eoreq	r1, r5, r5
    18d0:	ec050000 	stc	0, cr0, [r5], {-0}
    18d4:	01000007 	tsteq	r0, r7
    18d8:	00251f05 	eoreq	r1, r5, r5, lsl #30
    18dc:	13060000 	movwne	r0, #24576	; 0x6000
    18e0:	01000000 	mrseq	r0, (UNDEF: 0)
    18e4:	62070706 	andvs	r0, r7, #1572864	; 0x180000
    18e8:	01007373 	tsteq	r0, r3, ror r3
    18ec:	01070a0a 	tsteq	r7, sl, lsl #20
    18f0:	09090000 	stmdbeq	r9, {}	; <UNPREDICTABLE>
    18f4:	09030000 	stmdbeq	r3, {}	; <UNPREDICTABLE>
    18f8:	c1080000 	mrsgt	r0, (UNDEF: 8)
    18fc:	01000007 	tsteq	r0, r7
    1900:	01070a0b 	tsteq	r7, fp, lsl #20
    1904:	ac090000 	stcge	0, cr0, [r9], {-0}
    1908:	0800008b 	stmdaeq	r0, {r0, r1, r3, r7}
    190c:	e2000000 	and	r0, r0, #0
    1910:	0a000000 	beq	1918 <__code_start__-0x66e8>
    1914:	01006e69 	tsteq	r0, r9, ror #28
    1918:	002c0514 	eoreq	r0, ip, r4, lsl r5
    191c:	00010000 	andeq	r0, r1, r0
    1920:	008b8c0b 	addeq	r8, fp, fp, lsl #24
    1924:	00010d00 	andeq	r0, r1, r0, lsl #26
    1928:	8bac0b00 	blhi	feb04530 <__bss_end__+0xfeafb0d8>
    192c:	011a0000 	tsteq	sl, r0
    1930:	b80b0000 	stmdalt	fp, {}	; <UNPREDICTABLE>
    1934:	2600008b 	strcs	r0, [r0], -fp, lsl #1
    1938:	0b000001 	bleq	1944 <__code_start__-0x66bc>
    193c:	00008bbc 			; <UNDEFINED> instruction: 0x00008bbc
    1940:	00000133 	andeq	r0, r0, r3, lsr r1
    1944:	25040c00 	strcs	r0, [r4, #-3072]	; 0xfffff400
    1948:	0d000000 	stceq	0, cr0, [r0, #-0]
    194c:	000007c9 	andeq	r0, r0, r9, asr #15
    1950:	000007c9 	andeq	r0, r0, r9, asr #15
    1954:	06013102 	streq	r3, [r1], -r2, lsl #2
    1958:	00001b0e 	andeq	r1, r0, lr, lsl #22
    195c:	00001b00 	andeq	r1, r0, r0, lsl #22
    1960:	063b0200 	ldrteq	r0, [fp], -r0, lsl #4
    1964:	0000130d 	andeq	r1, r0, sp, lsl #6
    1968:	00001300 	andeq	r1, r0, r0, lsl #6
    196c:	01050200 	mrseq	r0, SP_usr
    1970:	06fa0e06 	ldrbteq	r0, [sl], r6, lsl #28
    1974:	06fa0000 	ldrbteq	r0, [sl], r0
    1978:	6e020000 	cdpvs	0, 0, cr0, cr2, cr0, {0}
    197c:	00810006 	addeq	r0, r1, r6
    1980:	00040000 	andeq	r0, r4, r0
    1984:	0000081d 	andeq	r0, r0, sp, lsl r8
    1988:	037c0104 	cmneq	ip, #4, 2
    198c:	f80c0000 			; <UNDEFINED> instruction: 0xf80c0000
    1990:	3f000007 	svccc	0x00000007
    1994:	c4000005 	strgt	r0, [r0], #-5
    1998:	0400008b 	streq	r0, [r0], #-139	; 0xffffff75
    199c:	1b000000 	blne	19a4 <__code_start__-0x665c>
    19a0:	0200000c 	andeq	r0, r0, #12
    19a4:	6e690504 	cdpvs	5, 6, cr0, cr9, cr4, {0}
    19a8:	04030074 	streq	r0, [r3], #-116	; 0xffffff8c
    19ac:	00006b07 	andeq	r6, r0, r7, lsl #22
    19b0:	06010300 	streq	r0, [r1], -r0, lsl #6
    19b4:	00000027 	andeq	r0, r0, r7, lsr #32
    19b8:	3a050203 	bcc	1421cc <__bss_end__+0x138d74>
    19bc:	03000001 	movweq	r0, #1
    19c0:	01310504 	teqeq	r1, r4, lsl #10
    19c4:	08030000 	stmdaeq	r3, {}	; <UNPREDICTABLE>
    19c8:	00012c05 	andeq	r2, r1, r5, lsl #24
    19cc:	08010300 	stmdaeq	r1, {r8, r9}
    19d0:	00000025 	andeq	r0, r0, r5, lsr #32
    19d4:	00070203 	andeq	r0, r7, r3, lsl #4
    19d8:	03000000 	movweq	r0, #0
    19dc:	00660704 	rsbeq	r0, r6, r4, lsl #14
    19e0:	08030000 	stmdaeq	r3, {}	; <UNPREDICTABLE>
    19e4:	00006107 	andeq	r6, r0, r7, lsl #2
    19e8:	08010300 	stmdaeq	r1, {r8, r9}
    19ec:	0000002e 	andeq	r0, r0, lr, lsr #32
    19f0:	0007c904 	andeq	ip, r7, r4, lsl #18
    19f4:	06040100 	streq	r0, [r4], -r0, lsl #2
    19f8:	00008bc4 	andeq	r8, r0, r4, asr #23
    19fc:	00000004 	andeq	r0, r0, r4
    1a00:	e9009c01 	stmdb	r0, {r0, sl, fp, ip, pc}
    1a04:	04000001 	streq	r0, [r0], #-1
    1a08:	00086100 	andeq	r6, r8, r0, lsl #2
    1a0c:	7c010400 	cfstrsvc	mvf0, [r1], {-0}
    1a10:	0c000003 	stceq	0, cr0, [r0], {3}
    1a14:	0000083a 	andeq	r0, r0, sl, lsr r8
    1a18:	0000053f 	andeq	r0, r0, pc, lsr r5
	...
    1a24:	00000c69 	andeq	r0, r0, r9, ror #24
    1a28:	69050402 	stmdbvs	r5, {r1, sl}
    1a2c:	0300746e 	movweq	r7, #1134	; 0x46e
    1a30:	00000025 	andeq	r0, r0, r5, lsr #32
    1a34:	6b070404 	blvs	1c2a4c <__bss_end__+0x1b95f4>
    1a38:	04000000 	streq	r0, [r0], #-0
    1a3c:	00270601 	eoreq	r0, r7, r1, lsl #12
    1a40:	02040000 	andeq	r0, r4, #0
    1a44:	00013a05 	andeq	r3, r1, r5, lsl #20
    1a48:	05040400 	streq	r0, [r4, #-1024]	; 0xfffffc00
    1a4c:	00000131 	andeq	r0, r0, r1, lsr r1
    1a50:	2c050804 	stccs	8, cr0, [r5], {4}
    1a54:	04000001 	streq	r0, [r0], #-1
    1a58:	00250801 	eoreq	r0, r5, r1, lsl #16
    1a5c:	02040000 	andeq	r0, r4, #0
    1a60:	00000007 	andeq	r0, r0, r7
    1a64:	07040400 	streq	r0, [r4, -r0, lsl #8]
    1a68:	00000066 	andeq	r0, r0, r6, rrx
    1a6c:	61070804 	tstvs	r7, r4, lsl #16
    1a70:	04000000 	streq	r0, [r0], #-0
    1a74:	002e0801 	eoreq	r0, lr, r1, lsl #16
    1a78:	5e050000 	cdppl	0, 0, cr0, cr5, cr0, {0}
    1a7c:	01000008 	tsteq	r0, r8
    1a80:	0031110d 	eorseq	r1, r1, sp, lsl #2
    1a84:	7c060000 	stcvc	0, cr0, [r6], {-0}
    1a88:	01000007 	tsteq	r0, r7
    1a8c:	8bf4061f 	blhi	ffd03310 <__bss_end__+0xffcf9eb8>
    1a90:	00540000 	subseq	r0, r4, r0
    1a94:	9c010000 	stcls	0, cr0, [r1], {-0}
    1a98:	00000161 	andeq	r0, r0, r1, ror #2
    1a9c:	00088207 	andeq	r8, r8, r7, lsl #4
    1aa0:	0f2c0100 	svceq	0x002c0100
    1aa4:	0000002c 	andeq	r0, r0, ip, lsr #32
    1aa8:	00000936 	andeq	r0, r0, r6, lsr r9
    1aac:	00000934 	andeq	r0, r0, r4, lsr r9
    1ab0:	00081407 	andeq	r1, r8, r7, lsl #8
    1ab4:	0f2d0100 	svceq	0x002d0100
    1ab8:	0000002c 	andeq	r0, r0, ip, lsr #32
    1abc:	00000950 	andeq	r0, r0, r0, asr r9
    1ac0:	0000094e 	andeq	r0, r0, lr, asr #18
    1ac4:	00084f07 	andeq	r4, r8, r7, lsl #30
    1ac8:	0f2e0100 	svceq	0x002e0100
    1acc:	0000002c 	andeq	r0, r0, ip, lsr #32
    1ad0:	0000096a 	andeq	r0, r0, sl, ror #18
    1ad4:	00000968 	andeq	r0, r0, r8, ror #18
    1ad8:	00086907 	andeq	r6, r8, r7, lsl #18
    1adc:	0f2f0100 	svceq	0x002f0100
    1ae0:	0000002c 	andeq	r0, r0, ip, lsr #32
    1ae4:	00000983 	andeq	r0, r0, r3, lsl #19
    1ae8:	00000981 	andeq	r0, r0, r1, lsl #19
    1aec:	008bfc08 	addeq	pc, fp, r8, lsl #24
    1af0:	00018c00 	andeq	r8, r1, r0, lsl #24
    1af4:	8c080800 	stchi	8, cr0, [r8], {-0}
    1af8:	01bb0000 			; <UNDEFINED> instruction: 0x01bb0000
    1afc:	0c080000 	stceq	0, cr0, [r8], {-0}
    1b00:	c800008c 	stmdagt	r0, {r2, r3, r7}
    1b04:	09000001 	stmdbeq	r0, {r0}
    1b08:	00008c14 	andeq	r8, r0, r4, lsl ip
    1b0c:	000001d4 	ldrdeq	r0, [r0], -r4
    1b10:	00000117 	andeq	r0, r0, r7, lsl r1
    1b14:	0150010a 	cmpeq	r0, sl, lsl #2
    1b18:	2009003a 	andcs	r0, r9, sl, lsr r0
    1b1c:	e000008c 	and	r0, r0, ip, lsl #1
    1b20:	37000001 	strcc	r0, [r0, -r1]
    1b24:	0a000001 	beq	1b30 <__code_start__-0x64d0>
    1b28:	0c055001 	stceq	0, cr5, [r5], {1}
    1b2c:	20100024 	andscs	r0, r0, r4, lsr #32
    1b30:	0551010a 	ldrbeq	r0, [r1, #-266]	; 0xfffffef6
    1b34:	0000010c 	andeq	r0, r0, ip, lsl #2
    1b38:	2c09005a 	stccs	0, cr0, [r9], {90}	; 0x5a
    1b3c:	e000008c 	and	r0, r0, ip, lsl #1
    1b40:	57000001 	strpl	r0, [r0, -r1]
    1b44:	0a000001 	beq	1b50 <__code_start__-0x64b0>
    1b48:	0c055001 	stceq	0, cr5, [r5], {1}
    1b4c:	2010001c 	andscs	r0, r0, ip, lsl r0
    1b50:	0551010a 	ldrbeq	r0, [r1, #-266]	; 0xfffffef6
    1b54:	0000200c 	andeq	r2, r0, ip
    1b58:	3408005a 	strcc	r0, [r8], #-90	; 0xffffffa6
    1b5c:	6100008c 	smlabbvs	r0, ip, r0, r0
    1b60:	00000001 	andeq	r0, r0, r1
    1b64:	00082b0b 	andeq	r2, r8, fp, lsl #22
    1b68:	06170100 	ldreq	r0, [r7], -r0, lsl #2
    1b6c:	00008be0 	andeq	r8, r0, r0, ror #23
    1b70:	00000014 	andeq	r0, r0, r4, lsl r0
    1b74:	018c9c01 	orreq	r9, ip, r1, lsl #24
    1b78:	8a070000 	bhi	1c1b80 <__bss_end__+0x1b8728>
    1b7c:	01000008 	tsteq	r0, r8
    1b80:	00310e18 	eorseq	r0, r1, r8, lsl lr
    1b84:	099e0000 	ldmibeq	lr, {}	; <UNPREDICTABLE>
    1b88:	09980000 	ldmibeq	r8, {}	; <UNPREDICTABLE>
    1b8c:	0c000000 	stceq	0, cr0, [r0], {-0}
    1b90:	0000085b 	andeq	r0, r0, fp, asr r8
    1b94:	25050e01 	strcs	r0, [r5, #-3585]	; 0xfffff1ff
    1b98:	c8000000 	stmdagt	r0, {}	; <UNPREDICTABLE>
    1b9c:	1800008b 	stmdane	r0, {r0, r1, r3, r7}
    1ba0:	01000000 	mrseq	r0, (UNDEF: 0)
    1ba4:	0001bb9c 	muleq	r1, ip, fp
    1ba8:	088a0700 	stmeq	sl, {r8, r9, sl}
    1bac:	0f010000 	svceq	0x00010000
    1bb0:	0000310e 	andeq	r3, r0, lr, lsl #2
    1bb4:	0009cc00 	andeq	ip, r9, r0, lsl #24
    1bb8:	0009c800 	andeq	ip, r9, r0, lsl #16
    1bbc:	1c0d0000 	stcne	0, cr0, [sp], {-0}
    1bc0:	1c000008 	stcne	0, cr0, [r0], {8}
    1bc4:	02000008 	andeq	r0, r0, #8
    1bc8:	0e060136 	mcreq	1, 0, r0, cr6, cr6, {1}
    1bcc:	0000050b 	andeq	r0, r0, fp, lsl #10
    1bd0:	0000050b 	andeq	r0, r0, fp, lsl #10
    1bd4:	0e064d02 	cdpeq	13, 0, cr4, cr6, cr2, {0}
    1bd8:	00000787 	andeq	r0, r0, r7, lsl #15
    1bdc:	00000787 	andeq	r0, r0, r7, lsl #15
    1be0:	0e065802 	cdpeq	8, 0, cr5, cr6, cr2, {0}
    1be4:	0000041d 	andeq	r0, r0, sp, lsl r4
    1be8:	0000041d 	andeq	r0, r0, sp, lsl r4
    1bec:	0006ad02 	andeq	sl, r6, r2, lsl #26
    1bf0:	00000200 	andeq	r0, r0, r0, lsl #4
    1bf4:	09580004 	ldmdbeq	r8, {r2}^
    1bf8:	01040000 	mrseq	r0, (UNDEF: 4)
    1bfc:	0000037c 	andeq	r0, r0, ip, ror r3
    1c00:	0008a50c 	andeq	sl, r8, ip, lsl #10
    1c04:	00053f00 	andeq	r3, r5, r0, lsl #30
    1c08:	008c4800 	addeq	r4, ip, r0, lsl #16
    1c0c:	00008400 	andeq	r8, r0, r0, lsl #8
    1c10:	000d3500 	andeq	r3, sp, r0, lsl #10
    1c14:	05040200 	streq	r0, [r4, #-512]	; 0xfffffe00
    1c18:	00746e69 	rsbseq	r6, r4, r9, ror #28
    1c1c:	6b070403 	blvs	1c2c30 <__bss_end__+0x1b97d8>
    1c20:	03000000 	movweq	r0, #0
    1c24:	00270601 	eoreq	r0, r7, r1, lsl #12
    1c28:	02030000 	andeq	r0, r3, #0
    1c2c:	00013a05 	andeq	r3, r1, r5, lsl #20
    1c30:	05040300 	streq	r0, [r4, #-768]	; 0xfffffd00
    1c34:	00000131 	andeq	r0, r0, r1, lsr r1
    1c38:	2c050803 	stccs	8, cr0, [r5], {3}
    1c3c:	03000001 	movweq	r0, #1
    1c40:	00250801 	eoreq	r0, r5, r1, lsl #16
    1c44:	02030000 	andeq	r0, r3, #0
    1c48:	00000007 	andeq	r0, r0, r7
    1c4c:	07040300 	streq	r0, [r4, -r0, lsl #6]
    1c50:	00000066 	andeq	r0, r0, r6, rrx
    1c54:	61070803 	tstvs	r7, r3, lsl #16
    1c58:	03000000 	movweq	r0, #0
    1c5c:	002e0801 	eoreq	r0, lr, r1, lsl #16
    1c60:	9b040000 	blls	101c68 <__bss_end__+0xf8810>
    1c64:	01000008 	tsteq	r0, r8
    1c68:	8cb4061e 	ldchi	6, cr0, [r4], #120	; 0x78
    1c6c:	00180000 	andseq	r0, r8, r0
    1c70:	9c010000 	stcls	0, cr0, [r1], {-0}
    1c74:	000000bc 	strheq	r0, [r0], -ip
    1c78:	63657305 	cmnvs	r5, #335544320	; 0x14000000
    1c7c:	191e0100 	ldmdbne	lr, {r8}
    1c80:	0000002c 	andeq	r0, r0, ip, lsr #32
    1c84:	000009ef 	andeq	r0, r0, pc, ror #19
    1c88:	000009eb 	andeq	r0, r0, fp, ror #19
    1c8c:	008cc806 	addeq	ip, ip, r6, lsl #16
    1c90:	0000bc00 	andeq	fp, r0, r0, lsl #24
    1c94:	50010700 	andpl	r0, r1, r0, lsl #14
    1c98:	5001f311 	andpl	pc, r1, r1, lsl r3	; <UNPREDICTABLE>
    1c9c:	01f32435 	mvnseq	r2, r5, lsr r4
    1ca0:	24321c50 	ldrtcs	r1, [r2], #-3152	; 0xfffff3b0
    1ca4:	225001f3 	subscs	r0, r0, #-1073741764	; 0xc000003c
    1ca8:	00002433 	andeq	r2, r0, r3, lsr r4
    1cac:	00078704 	andeq	r8, r7, r4, lsl #14
    1cb0:	061b0100 	ldreq	r0, [fp], -r0, lsl #2
    1cb4:	00008c9c 	muleq	r0, ip, ip
    1cb8:	00000018 	andeq	r0, r0, r8, lsl r0
    1cbc:	01059c01 	tsteq	r5, r1, lsl #24
    1cc0:	6d050000 	stcvs	0, cr0, [r5, #-0]
    1cc4:	1b010073 	blne	41e98 <__bss_end__+0x38a40>
    1cc8:	00002c18 	andeq	r2, r0, r8, lsl ip
    1ccc:	000a1400 	andeq	r1, sl, r0, lsl #8
    1cd0:	000a1000 	andeq	r1, sl, r0
    1cd4:	8cb00600 	ldchi	6, cr0, [r0]
    1cd8:	01050000 	mrseq	r0, (UNDEF: 5)
    1cdc:	01070000 	mrseq	r0, (UNDEF: 7)
    1ce0:	01f31150 	mvnseq	r1, r0, asr r1
    1ce4:	f3243550 	vqrshl.u32	<illegal reg q1.5>, q0, q2
    1ce8:	321c5001 	andscc	r5, ip, #1
    1cec:	5001f324 	andpl	pc, r1, r4, lsr #6
    1cf0:	00243322 	eoreq	r3, r4, r2, lsr #6
    1cf4:	08c80400 	stmiaeq	r8, {sl}^
    1cf8:	12010000 	andne	r0, r1, #0
    1cfc:	008c7806 	addeq	r7, ip, r6, lsl #16
    1d00:	00002400 	andeq	r2, r0, r0, lsl #8
    1d04:	759c0100 	ldrvc	r0, [ip, #256]	; 0x100
    1d08:	05000001 	streq	r0, [r0, #-1]
    1d0c:	01007375 	tsteq	r0, r5, ror r3
    1d10:	002c1812 	eoreq	r1, ip, r2, lsl r8
    1d14:	0a390000 	beq	e41d1c <__bss_end__+0xe388c4>
    1d18:	0a350000 	beq	d41d20 <__bss_end__+0xd388c8>
    1d1c:	72080000 	andvc	r0, r8, #0
    1d20:	13010062 	movwne	r0, #4194	; 0x1062
    1d24:	00002c0e 	andeq	r2, r0, lr, lsl #24
    1d28:	000a5900 	andeq	r5, sl, r0, lsl #18
    1d2c:	000a5700 	andeq	r5, sl, r0, lsl #14
    1d30:	8c880900 			; <UNDEFINED> instruction: 0x8c880900
    1d34:	00140000 	andseq	r0, r4, r0
    1d38:	016b0000 	cmneq	fp, r0
    1d3c:	72080000 	andvc	r0, r8, #0
    1d40:	15010061 	strne	r0, [r1, #-97]	; 0xffffff9f
    1d44:	00002c12 	andeq	r2, r0, r2, lsl ip
    1d48:	000a6e00 	andeq	r6, sl, r0, lsl #28
    1d4c:	000a6c00 	andeq	r6, sl, r0, lsl #24
    1d50:	8c8c0a00 	vstmiahi	ip, {s0-s-1}
    1d54:	01750000 	cmneq	r5, r0
    1d58:	0a000000 	beq	1d60 <__code_start__-0x62a0>
    1d5c:	00008c84 	andeq	r8, r0, r4, lsl #25
    1d60:	00000175 	andeq	r0, r0, r5, ror r1
    1d64:	08b90b00 	ldmeq	r9!, {r8, r9, fp}
    1d68:	09010000 	stmdbeq	r1, {}	; <UNPREDICTABLE>
    1d6c:	00002c0a 	andeq	r2, r0, sl, lsl #24
    1d70:	008c5c00 	addeq	r5, ip, r0, lsl #24
    1d74:	00001c00 	andeq	r1, r0, r0, lsl #24
    1d78:	bd9c0100 	ldflts	f0, [ip]
    1d7c:	08000001 	stmdaeq	r0, {r0}
    1d80:	0d010075 	stceq	0, cr0, [r1, #-468]	; 0xfffffe2c
    1d84:	00002c0e 	andeq	r2, r0, lr, lsl #24
    1d88:	000a8500 	andeq	r8, sl, r0, lsl #10
    1d8c:	000a8100 	andeq	r8, sl, r0, lsl #2
    1d90:	8c640a00 			; <UNDEFINED> instruction: 0x8c640a00
    1d94:	01eb0000 	mvneq	r0, r0
    1d98:	680a0000 	stmdavs	sl, {}	; <UNPREDICTABLE>
    1d9c:	bd00008c 	stclt	0, cr0, [r0, #-560]	; 0xfffffdd0
    1da0:	0a000001 	beq	1dac <__code_start__-0x6254>
    1da4:	00008c70 	andeq	r8, r0, r0, ror ip
    1da8:	000001eb 	andeq	r0, r0, fp, ror #3
    1dac:	08d10b00 	ldmeq	r1, {r8, r9, fp}^
    1db0:	04010000 	streq	r0, [r1], #-0
    1db4:	00002c0a 	andeq	r2, r0, sl, lsl #24
    1db8:	008c4800 	addeq	r4, ip, r0, lsl #16
    1dbc:	00001400 	andeq	r1, r0, r0, lsl #8
    1dc0:	eb9c0100 	bl	fe7021c8 <__bss_end__+0xfe6f8d70>
    1dc4:	06000001 	streq	r0, [r0], -r1
    1dc8:	00008c54 	andeq	r8, r0, r4, asr ip
    1dcc:	000001f7 	strdeq	r0, [r0], -r7
    1dd0:	05500107 	ldrbeq	r0, [r0, #-263]	; 0xfffffef9
    1dd4:	0030040c 	eorseq	r0, r0, ip, lsl #8
    1dd8:	0c000020 	stceq	0, cr0, [r0], {32}
    1ddc:	0000088f 	andeq	r0, r0, pc, lsl #17
    1de0:	0000088f 	andeq	r0, r0, pc, lsl #17
    1de4:	0c069c02 	stceq	12, cr9, [r6], {2}
    1de8:	00000601 	andeq	r0, r0, r1, lsl #12
    1dec:	00000601 	andeq	r0, r0, r1, lsl #12
    1df0:	000ac202 	andeq	ip, sl, r2, lsl #4
    1df4:	0000036e 	andeq	r0, r0, lr, ror #6
    1df8:	0a240004 	beq	901e10 <__bss_end__+0x8f89b8>
    1dfc:	01040000 	mrseq	r0, (UNDEF: 4)
    1e00:	0000037c 	andeq	r0, r0, ip, ror r3
    1e04:	0009130c 	andeq	r1, r9, ip, lsl #6
    1e08:	00053f00 	andeq	r3, r5, r0, lsl #30
    1e0c:	008ccc00 	addeq	ip, ip, r0, lsl #24
    1e10:	0000e800 	andeq	lr, r0, r0, lsl #16
    1e14:	000e0800 	andeq	r0, lr, r0, lsl #16
    1e18:	05040200 	streq	r0, [r4, #-512]	; 0xfffffe00
    1e1c:	00746e69 	rsbseq	r6, r4, r9, ror #28
    1e20:	6b070403 	blvs	1c2e34 <__bss_end__+0x1b99dc>
    1e24:	04000000 	streq	r0, [r0], #-0
    1e28:	0000002c 	andeq	r0, r0, ip, lsr #32
    1e2c:	27060103 	strcs	r0, [r6, -r3, lsl #2]
    1e30:	03000000 	movweq	r0, #0
    1e34:	013a0502 	teqeq	sl, r2, lsl #10
    1e38:	04030000 	streq	r0, [r3], #-0
    1e3c:	00013105 	andeq	r3, r1, r5, lsl #2
    1e40:	05080300 	streq	r0, [r8, #-768]	; 0xfffffd00
    1e44:	0000012c 	andeq	r0, r0, ip, lsr #2
    1e48:	25080103 	strcs	r0, [r8, #-259]	; 0xfffffefd
    1e4c:	03000000 	movweq	r0, #0
    1e50:	00000702 	andeq	r0, r0, r2, lsl #14
    1e54:	0f050000 	svceq	0x00050000
    1e58:	02000007 	andeq	r0, r0, #7
    1e5c:	006e1934 	rsbeq	r1, lr, r4, lsr r9
    1e60:	04030000 	streq	r0, [r3], #-0
    1e64:	00006607 	andeq	r6, r0, r7, lsl #12
    1e68:	07080300 	streq	r0, [r8, -r0, lsl #6]
    1e6c:	00000061 	andeq	r0, r0, r1, rrx
    1e70:	2e080103 	adfcse	f0, f0, f3
    1e74:	06000000 	streq	r0, [r0], -r0
    1e78:	00540107 	subseq	r0, r4, r7, lsl #2
    1e7c:	0c030000 	stceq	0, cr0, [r3], {-0}
    1e80:	0000c20e 	andeq	ip, r0, lr, lsl #4
    1e84:	036c0700 	cmneq	ip, #0, 14
    1e88:	07000000 	streq	r0, [r0, -r0]
    1e8c:	000001d7 	ldrdeq	r0, [r0], -r7
    1e90:	02320701 	eorseq	r0, r2, #262144	; 0x40000
    1e94:	07040000 	streq	r0, [r4, -r0]
    1e98:	00000241 	andeq	r0, r0, r1, asr #4
    1e9c:	02500705 	subseq	r0, r0, #1310720	; 0x140000
    1ea0:	07060000 	streq	r0, [r6, -r0]
    1ea4:	0000025f 	andeq	r0, r0, pc, asr r2
    1ea8:	026e0707 	rsbeq	r0, lr, #1835008	; 0x1c0000
    1eac:	07030000 	streq	r0, [r3, -r0]
    1eb0:	0000027d 	andeq	r0, r0, sp, ror r2
    1eb4:	4c050002 	stcmi	0, cr0, [r5], {2}
    1eb8:	03000009 	movweq	r0, #9
    1ebc:	00830315 	addeq	r0, r3, r5, lsl r3
    1ec0:	6a080000 	bvs	201ec8 <__bss_end__+0x1f8a70>
    1ec4:	01000009 	tsteq	r0, r9
    1ec8:	0033179f 	mlaseq	r3, pc, r7, r1	; <UNPREDICTABLE>
    1ecc:	00000000 	andeq	r0, r0, r0
    1ed0:	f4082020 	vst4.8	{d2-d5}, [r8 :128], r0
    1ed4:	01000008 	tsteq	r0, r8
    1ed8:	003317a0 	eorseq	r1, r3, r0, lsr #15
    1edc:	001c0000 	andseq	r0, ip, r0
    1ee0:	e4082020 	str	r2, [r8], #-32	; 0xffffffe0
    1ee4:	01000008 	tsteq	r0, r8
    1ee8:	003317a1 	eorseq	r1, r3, r1, lsr #15
    1eec:	00280000 	eoreq	r0, r8, r0
    1ef0:	60082020 	andvs	r2, r8, r0, lsr #32
    1ef4:	01000009 	tsteq	r0, r9
    1ef8:	003317a2 	eorseq	r1, r3, r2, lsr #15
    1efc:	00340000 	eorseq	r0, r4, r0
    1f00:	09092020 	stmdbeq	r9, {r5, sp}
    1f04:	01000009 	tsteq	r0, r9
    1f08:	002505d4 	ldrdeq	r0, [r5], -r4	; <UNPREDICTABLE>
    1f0c:	8d940000 	ldchi	0, cr0, [r4]
    1f10:	00200000 	eoreq	r0, r0, r0
    1f14:	9c010000 	stcls	0, cr0, [r1], {-0}
    1f18:	00000150 	andeq	r0, r0, r0, asr r1
    1f1c:	6e69700a 	cdpvs	0, 6, cr7, cr9, cr10, {0}
    1f20:	18d40100 	ldmne	r4, {r8}^
    1f24:	0000002c 	andeq	r0, r0, ip, lsr #32
    1f28:	00000aa7 	andeq	r0, r0, r7, lsr #21
    1f2c:	00000aa3 	andeq	r0, r0, r3, lsr #21
    1f30:	008da40b 	addeq	sl, sp, fp, lsl #8
    1f34:	00035900 	andeq	r5, r3, r0, lsl #18
    1f38:	50010c00 	andpl	r0, r1, r0, lsl #24
    1f3c:	00340c05 	eorseq	r0, r4, r5, lsl #24
    1f40:	00002020 	andeq	r2, r0, r0, lsr #32
    1f44:	0009200d 	andeq	r2, r9, sp
    1f48:	06cf0100 	strbeq	r0, [pc], r0, lsl #2
    1f4c:	00008d84 	andeq	r8, r0, r4, lsl #27
    1f50:	00000010 	andeq	r0, r0, r0, lsl r0
    1f54:	01919c01 	orrseq	r9, r1, r1, lsl #24
    1f58:	700a0000 	andvc	r0, sl, r0
    1f5c:	01006e69 	tsteq	r0, r9, ror #28
    1f60:	002c1ecf 	eoreq	r1, ip, pc, asr #29
    1f64:	0ac90000 	beq	ff241f6c <__bss_end__+0xff238b14>
    1f68:	0ac50000 	beq	ff141f70 <__bss_end__+0xff138b18>
    1f6c:	900b0000 	andls	r0, fp, r0
    1f70:	bb00008d 	bllt	21ac <__code_start__-0x5e54>
    1f74:	0c000002 	stceq	0, cr0, [r0], {2}
    1f78:	f3035001 	vhadd.u8	d5, d3, d1
    1f7c:	010c5001 	tsteq	ip, r1
    1f80:	00300151 	eorseq	r0, r0, r1, asr r1
    1f84:	08fe0d00 	ldmeq	lr!, {r8, sl, fp}^
    1f88:	c3010000 	movwgt	r0, #4096	; 0x1000
    1f8c:	008d6806 	addeq	r6, sp, r6, lsl #16
    1f90:	00001c00 	andeq	r1, r0, r0, lsl #24
    1f94:	ec9c0100 	ldfs	f0, [ip], {0}
    1f98:	0a000001 	beq	1fa4 <__code_start__-0x605c>
    1f9c:	006e6970 	rsbeq	r6, lr, r0, ror r9
    1fa0:	2c1ac301 	ldccs	3, cr12, [sl], {1}
    1fa4:	f2000000 	vhadd.s8	d0, d0, d0
    1fa8:	ea00000a 	b	1fd8 <__code_start__-0x6028>
    1fac:	0a00000a 	beq	1fdc <__code_start__-0x6024>
    1fb0:	c3010076 	movwgt	r0, #4214	; 0x1076
    1fb4:	00002c28 	andeq	r2, r0, r8, lsr #24
    1fb8:	000b3400 	andeq	r3, fp, r0, lsl #8
    1fbc:	000b2c00 	andeq	r2, fp, r0, lsl #24
    1fc0:	8d780e00 	ldclhi	14, cr0, [r8, #-0]
    1fc4:	02330000 	eorseq	r0, r3, #0
    1fc8:	01e20000 	mvneq	r0, r0
    1fcc:	010c0000 	mrseq	r0, (UNDEF: 12)
    1fd0:	01f30350 	mvnseq	r0, r0, asr r3
    1fd4:	800f0050 	andhi	r0, pc, r0, asr r0	; <UNPREDICTABLE>
    1fd8:	ec00008d 	stc	0, cr0, [r0], {141}	; 0x8d
    1fdc:	00000001 	andeq	r0, r0, r1
    1fe0:	00092f0d 	andeq	r2, r9, sp, lsl #30
    1fe4:	06be0100 	ldrteq	r0, [lr], r0, lsl #2
    1fe8:	00008d4c 	andeq	r8, r0, ip, asr #26
    1fec:	0000001c 	andeq	r0, r0, ip, lsl r0
    1ff0:	02339c01 	eorseq	r9, r3, #256	; 0x100
    1ff4:	700a0000 	andvc	r0, sl, r0
    1ff8:	01006e69 	tsteq	r0, r9, ror #28
    1ffc:	002c1cbe 	strhteq	r1, [ip], -lr
    2000:	0b720000 	bleq	1c82008 <__bss_end__+0x1c78bb0>
    2004:	0b6e0000 	bleq	1b8200c <__bss_end__+0x1b78bb4>
    2008:	600b0000 	andvs	r0, fp, r0
    200c:	6500008d 	strvs	r0, [r0, #-141]	; 0xffffff73
    2010:	0c000003 	stceq	0, cr0, [r0], {3}
    2014:	0c055001 	stceq	0, cr5, [r5], {1}
    2018:	20200028 	eorcs	r0, r0, r8, lsr #32
    201c:	0551010c 	ldrbeq	r0, [r1, #-268]	; 0xfffffef4
    2020:	5001f331 	andpl	pc, r1, r1, lsr r3	; <UNPREDICTABLE>
    2024:	0d000024 	stceq	0, cr0, [r0, #-144]	; 0xffffff70
    2028:	0000097c 	andeq	r0, r0, ip, ror r9
    202c:	3006b901 	andcc	fp, r6, r1, lsl #18
    2030:	1c00008d 	stcne	0, cr0, [r0], {141}	; 0x8d
    2034:	01000000 	mrseq	r0, (UNDEF: 0)
    2038:	00027a9c 	muleq	r2, ip, sl
    203c:	69700a00 	ldmdbvs	r0!, {r9, fp}^
    2040:	b901006e 	stmdblt	r1, {r1, r2, r3, r5, r6}
    2044:	00002c1b 	andeq	r2, r0, fp, lsl ip
    2048:	000b9700 	andeq	r9, fp, r0, lsl #14
    204c:	000b9300 	andeq	r9, fp, r0, lsl #6
    2050:	8d440b00 	vstrhi	d16, [r4, #-0]
    2054:	03650000 	cmneq	r5, #0
    2058:	010c0000 	mrseq	r0, (UNDEF: 12)
    205c:	1c0c0550 	cfstr32ne	mvfx0, [ip], {80}	; 0x50
    2060:	0c202000 	stceq	0, cr2, [r0], #-0
    2064:	31055101 	tstcc	r5, r1, lsl #2
    2068:	245001f3 	ldrbcs	r0, [r0], #-499	; 0xfffffe0d
    206c:	3c0d0000 	stccc	0, cr0, [sp], {-0}
    2070:	01000009 	tsteq	r0, r9
    2074:	8d2006b4 	stchi	6, cr0, [r0, #-720]!	; 0xfffffd30
    2078:	00100000 	andseq	r0, r0, r0
    207c:	9c010000 	stcls	0, cr0, [r1], {-0}
    2080:	000002bb 			; <UNDEFINED> instruction: 0x000002bb
    2084:	6e69700a 	cdpvs	0, 6, cr7, cr9, cr10, {0}
    2088:	1fb40100 	svcne	0x00b40100
    208c:	0000002c 	andeq	r0, r0, ip, lsr #32
    2090:	00000bbc 			; <UNDEFINED> instruction: 0x00000bbc
    2094:	00000bb8 			; <UNDEFINED> instruction: 0x00000bb8
    2098:	008d2c0b 	addeq	r2, sp, fp, lsl #24
    209c:	0002bb00 	andeq	fp, r2, r0, lsl #22
    20a0:	50010c00 	andpl	r0, r1, r0, lsl #24
    20a4:	5001f303 	andpl	pc, r1, r3, lsl #6
    20a8:	0151010c 	cmpeq	r1, ip, lsl #2
    20ac:	0d000031 	stceq	0, cr0, [r0, #-196]	; 0xffffff3c
    20b0:	000004c0 	andeq	r0, r0, r0, asr #9
    20b4:	cc06a501 	cfstr32gt	mvfx10, [r6], {1}
    20b8:	5400008c 	strpl	r0, [r0], #-140	; 0xffffff74
    20bc:	01000000 	mrseq	r0, (UNDEF: 0)
    20c0:	0003599c 	muleq	r3, ip, r9
    20c4:	69700a00 	ldmdbvs	r0!, {r9, fp}^
    20c8:	a501006e 	strge	r0, [r1, #-110]	; 0xffffff92
    20cc:	00002c21 	andeq	r2, r0, r1, lsr #24
    20d0:	000be100 	andeq	lr, fp, r0, lsl #2
    20d4:	000bdd00 	andeq	sp, fp, r0, lsl #26
    20d8:	76660a00 	strbtvc	r0, [r6], -r0, lsl #20
    20dc:	32a50100 	adccc	r0, r5, #0, 2
    20e0:	000000c2 	andeq	r0, r0, r2, asr #1
    20e4:	00000c03 	andeq	r0, r0, r3, lsl #24
    20e8:	00000bff 	strdeq	r0, [r0], -pc	; <UNPREDICTABLE>
    20ec:	00095810 	andeq	r5, r9, r0, lsl r8
    20f0:	0ea60100 	fdveqs	f0, f6, f0
    20f4:	00000062 	andeq	r0, r0, r2, rrx
    20f8:	00000c26 	andeq	r0, r0, r6, lsr #24
    20fc:	00000c24 	andeq	r0, r0, r4, lsr #24
    2100:	00097410 	andeq	r7, r9, r0, lsl r4
    2104:	0ea70100 	fdveqs	f0, f7, f0
    2108:	00000062 	andeq	r0, r0, r2, rrx
    210c:	00000c3b 	andeq	r0, r0, fp, lsr ip
    2110:	00000c39 	andeq	r0, r0, r9, lsr ip
    2114:	0008ee10 	andeq	lr, r8, r0, lsl lr
    2118:	0ea80100 	fdveqe	f0, f0, f0
    211c:	00000062 	andeq	r0, r0, r2, rrx
    2120:	00000c50 	andeq	r0, r0, r0, asr ip
    2124:	00000c4e 	andeq	r0, r0, lr, asr #24
    2128:	008cf80e 	addeq	pc, ip, lr, lsl #16
    212c:	00035900 	andeq	r5, r3, r0, lsl #18
    2130:	00034800 	andeq	r4, r3, r0, lsl #16
    2134:	50010c00 	andpl	r0, r1, r0, lsl #24
    2138:	00007702 	andeq	r7, r0, r2, lsl #14
    213c:	008d180b 	addeq	r1, sp, fp, lsl #16
    2140:	00036500 	andeq	r6, r3, r0, lsl #10
    2144:	50010c00 	andpl	r0, r1, r0, lsl #24
    2148:	00007702 	andeq	r7, r0, r2, lsl #14
    214c:	06011100 	streq	r1, [r1], -r0, lsl #2
    2150:	06010000 	streq	r0, [r1], -r0
    2154:	c2040000 	andgt	r0, r4, #0
    2158:	041d110a 	ldreq	r1, [sp], #-266	; 0xfffffef6
    215c:	041d0000 	ldreq	r0, [sp], #-0
    2160:	ad040000 	stcge	0, cr0, [r4, #-0]
    2164:	011d0006 	tsteq	sp, r6
    2168:	00040000 	andeq	r0, r4, r0
    216c:	00000b35 	andeq	r0, r0, r5, lsr fp
    2170:	037c0104 	cmneq	ip, #4, 2
    2174:	a60c0000 	strge	r0, [ip], -r0
    2178:	3f000009 	svccc	0x00000009
    217c:	b4000005 	strlt	r0, [r0], #-5
    2180:	3c00008d 	stccc	0, cr0, [r0], {141}	; 0x8d
    2184:	78000000 	stmdavc	r0, {}	; <UNPREDICTABLE>
    2188:	0200000f 	andeq	r0, r0, #15
    218c:	6e690504 	cdpvs	5, 6, cr0, cr9, cr4, {0}
    2190:	04030074 	streq	r0, [r3], #-116	; 0xffffff8c
    2194:	00006b07 	andeq	r6, r0, r7, lsl #22
    2198:	06010300 	streq	r0, [r1], -r0, lsl #6
    219c:	00000027 	andeq	r0, r0, r7, lsr #32
    21a0:	3a050203 	bcc	1429b4 <__bss_end__+0x13955c>
    21a4:	03000001 	movweq	r0, #1
    21a8:	01310504 	teqeq	r1, r4, lsl #10
    21ac:	08030000 	stmdaeq	r3, {}	; <UNPREDICTABLE>
    21b0:	00012c05 	andeq	r2, r1, r5, lsl #24
    21b4:	08010300 	stmdaeq	r1, {r8, r9}
    21b8:	00000025 	andeq	r0, r0, r5, lsr #32
    21bc:	00070203 	andeq	r0, r7, r3, lsl #4
    21c0:	03000000 	movweq	r0, #0
    21c4:	00660704 	rsbeq	r0, r6, r4, lsl #14
    21c8:	08030000 	stmdaeq	r3, {}	; <UNPREDICTABLE>
    21cc:	00006107 	andeq	r6, r0, r7, lsl #2
    21d0:	00250400 	eoreq	r0, r5, r0, lsl #8
    21d4:	007a0000 	rsbseq	r0, sl, r0
    21d8:	25050000 	strcs	r0, [r5, #-0]
    21dc:	00000000 	andeq	r0, r0, r0
    21e0:	0006a906 	andeq	sl, r6, r6, lsl #18
    21e4:	0e1c0200 	cdpeq	2, 1, cr0, cr12, cr0, {0}
    21e8:	00000086 	andeq	r0, r0, r6, lsl #1
    21ec:	006b0407 	rsbeq	r0, fp, r7, lsl #8
    21f0:	01030000 	mrseq	r0, (UNDEF: 3)
    21f4:	00002e08 	andeq	r2, r0, r8, lsl #28
    21f8:	007a0800 	rsbseq	r0, sl, r0, lsl #16
    21fc:	06010000 	streq	r0, [r1], -r0
    2200:	4c030507 	cfstr32mi	mvfx0, [r3], {7}
    2204:	09000090 	stmdbeq	r0, {r4, r7}
    2208:	00000999 	muleq	r0, r9, r9
    220c:	e0060b01 	and	r0, r6, r1, lsl #22
    2210:	1000008d 	andne	r0, r0, sp, lsl #1
    2214:	01000000 	mrseq	r0, (UNDEF: 0)
    2218:	0000c59c 	muleq	r0, ip, r5
    221c:	70660a00 	rsbvc	r0, r6, r0, lsl #20
    2220:	190b0100 	stmdbne	fp, {r8}
    2224:	00000086 	andeq	r0, r0, r6, lsl #1
    2228:	0b005001 	bleq	16234 <__bss_end__+0xcddc>
    222c:	000009b7 			; <UNDEFINED> instruction: 0x000009b7
    2230:	c8060801 	stmdagt	r6, {r0, fp}
    2234:	1800008d 	stmdane	r0, {r0, r2, r3, r7}
    2238:	01000000 	mrseq	r0, (UNDEF: 0)
    223c:	09880c9c 	stmibeq	r8, {r2, r3, r4, r7, sl, fp}
    2240:	03010000 	movweq	r0, #4096	; 0x1000
    2244:	0000250c 	andeq	r2, r0, ip, lsl #10
    2248:	008db400 	addeq	fp, sp, r0, lsl #8
    224c:	00001400 	andeq	r1, r0, r0, lsl #8
    2250:	149c0100 	ldrne	r0, [ip], #256	; 0x100
    2254:	0d000001 	stceq	0, cr0, [r0, #-4]
    2258:	03010063 	movweq	r0, #4195	; 0x1063
    225c:	00002521 	andeq	r2, r0, r1, lsr #10
    2260:	000c6700 	andeq	r6, ip, r0, lsl #14
    2264:	000c6300 	andeq	r6, ip, r0, lsl #6
    2268:	8dc00e00 	stclhi	14, cr0, [r0]
    226c:	01140000 	tsteq	r4, r0
    2270:	010f0000 	mrseq	r0, CPSR
    2274:	00740250 	rsbseq	r0, r4, r0, asr r2
    2278:	bc100000 	ldclt	0, cr0, [r0], {-0}
    227c:	bc000005 	stclt	0, cr0, [r0], {5}
    2280:	02000005 	andeq	r0, r0, #5
    2284:	f5000642 			; <UNDEFINED> instruction: 0xf5000642
    2288:	04000000 	streq	r0, [r0], #-0
    228c:	000c3d00 	andeq	r3, ip, r0, lsl #26
    2290:	7c010400 	cfstrsvc	mvf0, [r1], {-0}
    2294:	0c000003 	stceq	0, cr0, [r0], {3}
    2298:	000009cb 	andeq	r0, r0, fp, asr #19
    229c:	0000053f 	andeq	r0, r0, pc, lsr r5
    22a0:	00008df0 	strdeq	r8, [r0], -r0
    22a4:	00000034 	andeq	r0, r0, r4, lsr r0
    22a8:	0000100f 	andeq	r1, r0, pc
    22ac:	69050402 	stmdbvs	r5, {r1, sl}
    22b0:	0300746e 	movweq	r7, #1134	; 0x46e
    22b4:	006b0704 	rsbeq	r0, fp, r4, lsl #14
    22b8:	01030000 	mrseq	r0, (UNDEF: 3)
    22bc:	00002706 	andeq	r2, r0, r6, lsl #14
    22c0:	05020300 	streq	r0, [r2, #-768]	; 0xfffffd00
    22c4:	0000013a 	andeq	r0, r0, sl, lsr r1
    22c8:	31050403 	tstcc	r5, r3, lsl #8
    22cc:	03000001 	movweq	r0, #1
    22d0:	012c0508 			; <UNDEFINED> instruction: 0x012c0508
    22d4:	01030000 	mrseq	r0, (UNDEF: 3)
    22d8:	00002508 	andeq	r2, r0, r8, lsl #10
    22dc:	07020300 	streq	r0, [r2, -r0, lsl #6]
    22e0:	00000000 	andeq	r0, r0, r0
    22e4:	66070403 	strvs	r0, [r7], -r3, lsl #8
    22e8:	03000000 	movweq	r0, #0
    22ec:	00610708 	rsbeq	r0, r1, r8, lsl #14
    22f0:	04040000 	streq	r0, [r4], #-0
    22f4:	00000078 	andeq	r0, r0, r8, ror r0
    22f8:	2e080103 	adfcse	f0, f0, f3
    22fc:	05000000 	streq	r0, [r0, #-0]
    2300:	00000071 	andeq	r0, r0, r1, ror r0
    2304:	00073106 	andeq	r3, r7, r6, lsl #2
    2308:	07040100 	streq	r0, [r4, -r0, lsl #2]
    230c:	000000f2 	strdeq	r0, [r0], -r2
    2310:	00008df0 	strdeq	r8, [r0], -r0
    2314:	00000034 	andeq	r0, r0, r4, lsr r0
    2318:	00f29c01 	rscseq	r9, r2, r1, lsl #24
    231c:	c6070000 	strgt	r0, [r7], -r0
    2320:	01000009 	tsteq	r0, r9
    2324:	00f21504 	rscseq	r1, r2, r4, lsl #10
    2328:	50010000 	andpl	r0, r1, r0
    232c:	63727308 	cmnvs	r2, #8, 6	; 0x20000000
    2330:	27040100 	strcs	r0, [r4, -r0, lsl #2]
    2334:	0000006b 	andeq	r0, r0, fp, rrx
    2338:	00000c89 	andeq	r0, r0, r9, lsl #25
    233c:	00000c85 	andeq	r0, r0, r5, lsl #25
    2340:	00317309 	eorseq	r7, r1, r9, lsl #6
    2344:	f20b0501 	vrshl.s8	d0, d1, d11
    2348:	b4000000 	strlt	r0, [r0], #-0
    234c:	aa00000c 	bge	2384 <__code_start__-0x5c7c>
    2350:	0900000c 	stmdbeq	r0, {r2, r3}
    2354:	01003273 	tsteq	r0, r3, ror r2
    2358:	006b1106 	rsbeq	r1, fp, r6, lsl #2
    235c:	0cf90000 	ldcleq	0, cr0, [r9]
    2360:	0cf50000 	ldcleq	0, cr0, [r5]
    2364:	63090000 	movwvs	r0, #36864	; 0x9000
    2368:	0a070100 	beq	1c2770 <__bss_end__+0x1b9318>
    236c:	00000071 	andeq	r0, r0, r1, ror r0
    2370:	00000d1d 	andeq	r0, r0, sp, lsl sp
    2374:	00000d19 	andeq	r0, r0, r9, lsl sp
    2378:	71040400 	tstvc	r4, r0, lsl #8
    237c:	00000000 	andeq	r0, r0, r0
    2380:	000000b5 	strheq	r0, [r0], -r5
    2384:	0cce0004 	stcleq	0, cr0, [lr], {4}
    2388:	01040000 	mrseq	r0, (UNDEF: 4)
    238c:	0000037c 	andeq	r0, r0, ip, ror r3
    2390:	0009db0c 	andeq	sp, r9, ip, lsl #22
    2394:	00053f00 	andeq	r3, r5, r0, lsl #30
    2398:	008e2400 	addeq	r2, lr, r0, lsl #8
    239c:	00003000 	andeq	r3, r0, r0
    23a0:	0010c400 	andseq	ip, r0, r0, lsl #8
    23a4:	05040200 	streq	r0, [r4, #-512]	; 0xfffffe00
    23a8:	00746e69 	rsbseq	r6, r4, r9, ror #28
    23ac:	6b070403 	blvs	1c33c0 <__bss_end__+0x1b9f68>
    23b0:	03000000 	movweq	r0, #0
    23b4:	00270601 	eoreq	r0, r7, r1, lsl #12
    23b8:	02030000 	andeq	r0, r3, #0
    23bc:	00013a05 	andeq	r3, r1, r5, lsl #20
    23c0:	05040300 	streq	r0, [r4, #-768]	; 0xfffffd00
    23c4:	00000131 	andeq	r0, r0, r1, lsr r1
    23c8:	2c050803 	stccs	8, cr0, [r5], {3}
    23cc:	03000001 	movweq	r0, #1
    23d0:	00250801 	eoreq	r0, r5, r1, lsl #16
    23d4:	02030000 	andeq	r0, r3, #0
    23d8:	00000007 	andeq	r0, r0, r7
    23dc:	07040300 	streq	r0, [r4, -r0, lsl #6]
    23e0:	00000066 	andeq	r0, r0, r6, rrx
    23e4:	61070803 	tstvs	r7, r3, lsl #16
    23e8:	04000000 	streq	r0, [r0], #-0
    23ec:	00007804 	andeq	r7, r0, r4, lsl #16
    23f0:	08010300 	stmdaeq	r1, {r8, r9}
    23f4:	0000002e 	andeq	r0, r0, lr, lsr #32
    23f8:	00007105 	andeq	r7, r0, r5, lsl #2
    23fc:	075a0600 	ldrbeq	r0, [sl, -r0, lsl #12]
    2400:	03010000 	movweq	r0, #4096	; 0x1000
    2404:	00002505 	andeq	r2, r0, r5, lsl #10
    2408:	008e2400 	addeq	r2, lr, r0, lsl #8
    240c:	00003000 	andeq	r3, r0, r0
    2410:	079c0100 	ldreq	r0, [ip, r0, lsl #2]
    2414:	03010061 	movweq	r0, #4193	; 0x1061
    2418:	00006b18 	andeq	r6, r0, r8, lsl fp
    241c:	000d3f00 	andeq	r3, sp, r0, lsl #30
    2420:	000d3b00 	andeq	r3, sp, r0, lsl #22
    2424:	00620700 	rsbeq	r0, r2, r0, lsl #14
    2428:	6b270301 	blvs	9c3034 <__bss_end__+0x9b9bdc>
    242c:	61000000 	mrsvs	r0, (UNDEF: 0)
    2430:	5d00000d 	stcpl	0, cr0, [r0, #-52]	; 0xffffffcc
    2434:	0000000d 	andeq	r0, r0, sp
    2438:	0000cd00 	andeq	ip, r0, r0, lsl #26
    243c:	38000400 	stmdacc	r0, {sl}
    2440:	0400000d 	streq	r0, [r0], #-13
    2444:	00037c01 	andeq	r7, r3, r1, lsl #24
    2448:	09eb0c00 	stmibeq	fp!, {sl, fp}^
    244c:	053f0000 	ldreq	r0, [pc, #-0]!	; 2454 <__code_start__-0x5bac>
    2450:	8e540000 	cdphi	0, 5, cr0, cr4, cr0, {0}
    2454:	00200000 	eoreq	r0, r0, r0
    2458:	11360000 	teqne	r6, r0
    245c:	04020000 	streq	r0, [r2], #-0
    2460:	746e6905 	strbtvc	r6, [lr], #-2309	; 0xfffff6fb
    2464:	07040300 	streq	r0, [r4, -r0, lsl #6]
    2468:	0000006b 	andeq	r0, r0, fp, rrx
    246c:	27060103 	strcs	r0, [r6, -r3, lsl #2]
    2470:	03000000 	movweq	r0, #0
    2474:	013a0502 	teqeq	sl, r2, lsl #10
    2478:	04030000 	streq	r0, [r3], #-0
    247c:	00013105 	andeq	r3, r1, r5, lsl #2
    2480:	05080300 	streq	r0, [r8, #-768]	; 0xfffffd00
    2484:	0000012c 	andeq	r0, r0, ip, lsr #2
    2488:	25080103 	strcs	r0, [r8, #-259]	; 0xfffffefd
    248c:	03000000 	movweq	r0, #0
    2490:	00000702 	andeq	r0, r0, r2, lsl #14
    2494:	04030000 	streq	r0, [r3], #-0
    2498:	00006607 	andeq	r6, r0, r7, lsl #12
    249c:	07080300 	streq	r0, [r8, -r0, lsl #6]
    24a0:	00000061 	andeq	r0, r0, r1, rrx
    24a4:	00780404 	rsbseq	r0, r8, r4, lsl #8
    24a8:	01030000 	mrseq	r0, (UNDEF: 3)
    24ac:	00002e08 	andeq	r2, r0, r8, lsl #28
    24b0:	00710500 	rsbseq	r0, r1, r0, lsl #10
    24b4:	38060000 	stmdacc	r6, {}	; <UNPREDICTABLE>
    24b8:	01000007 	tsteq	r0, r7
    24bc:	00ca0703 	sbceq	r0, sl, r3, lsl #14
    24c0:	8e540000 	cdphi	0, 5, cr0, cr4, cr0, {0}
    24c4:	00200000 	eoreq	r0, r0, r0
    24c8:	9c010000 	stcls	0, cr0, [r1], {-0}
    24cc:	000000ca 	andeq	r0, r0, sl, asr #1
    24d0:	00317307 	eorseq	r7, r1, r7, lsl #6
    24d4:	ca150301 	bgt	5430e0 <__bss_end__+0x539c88>
    24d8:	01000000 	mrseq	r0, (UNDEF: 0)
    24dc:	32730850 	rsbscc	r0, r3, #80, 16	; 0x500000
    24e0:	26030100 	strcs	r0, [r3], -r0, lsl #2
    24e4:	0000006b 	andeq	r0, r0, fp, rrx
    24e8:	00000d85 	andeq	r0, r0, r5, lsl #27
    24ec:	00000d7f 	andeq	r0, r0, pc, ror sp
    24f0:	01007309 	tsteq	r0, r9, lsl #6
    24f4:	00ca1404 	sbceq	r1, sl, r4, lsl #8
    24f8:	0db60000 	ldceq	0, cr0, [r6]
    24fc:	0db00000 	ldceq	0, cr0, [r0]
    2500:	04000000 	streq	r0, [r0], #-0
    2504:	00007104 	andeq	r7, r0, r4, lsl #2
    2508:	010c0000 	mrseq	r0, (UNDEF: 12)
    250c:	00040000 	andeq	r0, r4, r0
    2510:	00000dc9 	andeq	r0, r0, r9, asr #27
    2514:	037c0104 	cmneq	ip, #4, 2
    2518:	020c0000 	andeq	r0, ip, #0
    251c:	3f00000a 	svccc	0x0000000a
    2520:	10000005 	andne	r0, r0, r5
    2524:	00000000 	andeq	r0, r0, r0
    2528:	a2000000 	andge	r0, r0, #0
    252c:	02000011 	andeq	r0, r0, #17
    2530:	6e690504 	cdpvs	5, 6, cr0, cr9, cr4, {0}
    2534:	fb030074 	blx	c270e <__bss_end__+0xb92b6>
    2538:	02000009 	andeq	r0, r0, #9
    253c:	003817d1 	ldrsbteq	r1, [r8], -r1
    2540:	04040000 	streq	r0, [r4], #-0
    2544:	00006b07 	andeq	r6, r0, r7, lsl #22
    2548:	06010400 	streq	r0, [r1], -r0, lsl #8
    254c:	00000027 	andeq	r0, r0, r7, lsr #32
    2550:	3a050204 	bcc	142d68 <__bss_end__+0x139910>
    2554:	04000001 	streq	r0, [r0], #-1
    2558:	01310504 	teqeq	r1, r4, lsl #10
    255c:	08040000 	stmdaeq	r4, {}	; <UNPREDICTABLE>
    2560:	00012c05 	andeq	r2, r1, r5, lsl #24
    2564:	08010400 	stmdaeq	r1, {sl}
    2568:	00000025 	andeq	r0, r0, r5, lsr #32
    256c:	00005b05 	andeq	r5, r0, r5, lsl #22
    2570:	07020400 	streq	r0, [r2, -r0, lsl #8]
    2574:	00000000 	andeq	r0, r0, r0
    2578:	66070404 	strvs	r0, [r7], -r4, lsl #8
    257c:	04000000 	streq	r0, [r0], #-0
    2580:	00610708 	rsbeq	r0, r1, r8, lsl #14
    2584:	04060000 	streq	r0, [r6], #-0
    2588:	00000089 	andeq	r0, r0, r9, lsl #1
    258c:	2e080104 	adfcse	f0, f0, f4
    2590:	05000000 	streq	r0, [r0, #-0]
    2594:	00000082 	andeq	r0, r0, r2, lsl #1
    2598:	00076607 	andeq	r6, r7, r7, lsl #12
    259c:	05040100 	streq	r0, [r4, #-256]	; 0xffffff00
    25a0:	00000025 	andeq	r0, r0, r5, lsr #32
    25a4:	00008e74 	andeq	r8, r0, r4, ror lr
    25a8:	0000002c 	andeq	r0, r0, ip, lsr #32
    25ac:	01099c01 	tsteq	r9, r1, lsl #24
    25b0:	5f080000 	svcpl	0x00080000
    25b4:	01003173 	tsteq	r0, r3, ror r1
    25b8:	007c1904 	rsbseq	r1, ip, r4, lsl #18
    25bc:	0de50000 	stcleq	0, cr0, [r5]
    25c0:	0de10000 	stcleq	0, cr0, [r1]
    25c4:	5f080000 	svcpl	0x00080000
    25c8:	01003273 	tsteq	r0, r3, ror r2
    25cc:	007c2a04 	rsbseq	r2, ip, r4, lsl #20
    25d0:	0e0a0000 	cdpeq	0, 0, cr0, cr10, cr0, {0}
    25d4:	0e060000 	cdpeq	0, 0, cr0, cr6, cr0, {0}
    25d8:	6e080000 	cdpvs	0, 0, cr0, cr8, cr0, {0}
    25dc:	36040100 	strcc	r0, [r4], -r0, lsl #2
    25e0:	0000002c 	andeq	r0, r0, ip, lsr #32
    25e4:	00000e31 	andeq	r0, r0, r1, lsr lr
    25e8:	00000e2b 	andeq	r0, r0, fp, lsr #28
    25ec:	00317309 	eorseq	r7, r1, r9, lsl #6
    25f0:	091a0501 	ldmdbeq	sl, {r0, r8, sl}
    25f4:	64000001 	strvs	r0, [r0], #-1
    25f8:	5c00000e 	stcpl	0, cr0, [r0], {14}
    25fc:	0900000e 	stmdbeq	r0, {r1, r2, r3}
    2600:	01003273 	tsteq	r0, r3, ror r2
    2604:	01092c05 	tsteq	r9, r5, lsl #24
    2608:	0ea00000 	cdpeq	0, 10, cr0, cr0, cr0, {0}
    260c:	0e9a0000 	cdpeq	0, 9, cr0, cr10, cr0, {0}
    2610:	06000000 	streq	r0, [r0], -r0
    2614:	00006204 	andeq	r6, r0, r4, lsl #4
    2618:	00810000 	addeq	r0, r1, r0
    261c:	00040000 	andeq	r0, r4, r0
    2620:	00000e58 	andeq	r0, r0, r8, asr lr
    2624:	037c0104 	cmneq	ip, #4, 2
    2628:	130c0000 	movwne	r0, #49152	; 0xc000
    262c:	3f00000a 	svccc	0x0000000a
    2630:	a0000005 	andge	r0, r0, r5
    2634:	0400008e 	streq	r0, [r0], #-142	; 0xffffff72
    2638:	63000000 	movwvs	r0, #0
    263c:	02000012 	andeq	r0, r0, #18
    2640:	6e690504 	cdpvs	5, 6, cr0, cr9, cr4, {0}
    2644:	04030074 	streq	r0, [r3], #-116	; 0xffffff8c
    2648:	00006b07 	andeq	r6, r0, r7, lsl #22
    264c:	06010300 	streq	r0, [r1], -r0, lsl #6
    2650:	00000027 	andeq	r0, r0, r7, lsr #32
    2654:	3a050203 	bcc	142e68 <__bss_end__+0x139a10>
    2658:	03000001 	movweq	r0, #1
    265c:	01310504 	teqeq	r1, r4, lsl #10
    2660:	08030000 	stmdaeq	r3, {}	; <UNPREDICTABLE>
    2664:	00012c05 	andeq	r2, r1, r5, lsl #24
    2668:	08010300 	stmdaeq	r1, {r8, r9}
    266c:	00000025 	andeq	r0, r0, r5, lsr #32
    2670:	00070203 	andeq	r0, r7, r3, lsl #4
    2674:	03000000 	movweq	r0, #0
    2678:	00660704 	rsbeq	r0, r6, r4, lsl #14
    267c:	08030000 	stmdaeq	r3, {}	; <UNPREDICTABLE>
    2680:	00006107 	andeq	r6, r0, r7, lsl #2
    2684:	08010300 	stmdaeq	r1, {r8, r9}
    2688:	0000002e 	andeq	r0, r0, lr, lsr #32
    268c:	00081c04 	andeq	r1, r8, r4, lsl #24
    2690:	06030100 	streq	r0, [r3], -r0, lsl #2
    2694:	00008ea0 	andeq	r8, r0, r0, lsr #29
    2698:	00000004 	andeq	r0, r0, r4
    269c:	Address 0x000000000000269c is out of bounds.


Disassembly of section .debug_abbrev:

00000000 <.debug_abbrev>:
   0:	25011101 	strcs	r1, [r1, #-257]	; 0xfffffeff
   4:	030b130e 	movweq	r1, #45838	; 0xb30e
   8:	110e1b0e 	tstne	lr, lr, lsl #22
   c:	10061201 	andne	r1, r6, r1, lsl #4
  10:	02000017 	andeq	r0, r0, #23
  14:	0b0b0024 	bleq	2c00ac <__bss_end__+0x2b6c54>
  18:	08030b3e 	stmdaeq	r3, {r1, r2, r3, r4, r5, r8, r9, fp}
  1c:	24030000 	strcs	r0, [r3], #-0
  20:	3e0b0b00 	vmlacc.f64	d0, d11, d0
  24:	000e030b 	andeq	r0, lr, fp, lsl #6
  28:	012e0400 			; <UNDEFINED> instruction: 0x012e0400
  2c:	0e03193f 			; <UNDEFINED> instruction: 0x0e03193f
  30:	0b3b0b3a 	bleq	ec2d20 <__bss_end__+0xeb98c8>
  34:	19270b39 	stmdbne	r7!, {r0, r3, r4, r5, r8, r9, fp}
  38:	06120111 			; <UNDEFINED> instruction: 0x06120111
  3c:	42971840 	addsmi	r1, r7, #64, 16	; 0x400000
  40:	00130119 	andseq	r0, r3, r9, lsl r1
  44:	82890500 	addhi	r0, r9, #0, 10
  48:	01110001 	tsteq	r1, r1
  4c:	00001331 	andeq	r1, r0, r1, lsr r3
  50:	01828906 	orreq	r8, r2, r6, lsl #18
  54:	31011101 	tstcc	r1, r1, lsl #2
  58:	07000013 	smladeq	r0, r3, r0, r0
  5c:	0001828a 	andeq	r8, r1, sl, lsl #5
  60:	42911802 	addsmi	r1, r1, #131072	; 0x20000
  64:	08000018 	stmdaeq	r0, {r3, r4}
  68:	193f002e 	ldmdbne	pc!, {r1, r2, r3, r5}	; <UNPREDICTABLE>
  6c:	0e6e193c 			; <UNDEFINED> instruction: 0x0e6e193c
  70:	0b3a0e03 	bleq	e83884 <__bss_end__+0xe7a42c>
  74:	0b390b3b 	bleq	e42d68 <__bss_end__+0xe39910>
  78:	01000000 	mrseq	r0, (UNDEF: 0)
  7c:	0e250111 	mcreq	1, 1, r0, cr5, cr1, {0}
  80:	0e030b13 	vmoveq.32	d3[0], r0
  84:	01110e1b 	tsteq	r1, fp, lsl lr
  88:	17100612 			; <UNDEFINED> instruction: 0x17100612
  8c:	24020000 	strcs	r0, [r2], #-0
  90:	3e0b0b00 	vmlacc.f64	d0, d11, d0
  94:	0008030b 	andeq	r0, r8, fp, lsl #6
  98:	00240300 	eoreq	r0, r4, r0, lsl #6
  9c:	0b3e0b0b 	bleq	f82cd0 <__bss_end__+0xf79878>
  a0:	00000e03 	andeq	r0, r0, r3, lsl #28
  a4:	49002604 	stmdbmi	r0, {r2, r9, sl, sp}
  a8:	05000013 	streq	r0, [r0, #-19]	; 0xffffffed
  ac:	0e030016 	mcreq	0, 0, r0, cr3, cr6, {0}
  b0:	0b3b0b3a 	bleq	ec2da0 <__bss_end__+0xeb9948>
  b4:	13490b39 	movtne	r0, #39737	; 0x9b39
  b8:	04060000 	streq	r0, [r6], #-0
  bc:	0b0b3e01 	bleq	2cf8c8 <__bss_end__+0x2c6470>
  c0:	3a13490b 	bcc	4d24f4 <__bss_end__+0x4c909c>
  c4:	390b3b0b 	stmdbcc	fp, {r0, r1, r3, r8, r9, fp, ip, sp}
  c8:	0013010b 	andseq	r0, r3, fp, lsl #2
  cc:	00280700 	eoreq	r0, r8, r0, lsl #14
  d0:	0b1c0e03 	bleq	7038e4 <__bss_end__+0x6fa48c>
  d4:	34080000 	strcc	r0, [r8], #-0
  d8:	3a0e0300 	bcc	380ce0 <__bss_end__+0x377888>
  dc:	390b3b0b 	stmdbcc	fp, {r0, r1, r3, r8, r9, fp, ip, sp}
  e0:	1c13490b 			; <UNDEFINED> instruction: 0x1c13490b
  e4:	09000006 	stmdbeq	r0, {r1, r2}
  e8:	0e030113 	mcreq	1, 0, r0, cr3, cr3, {0}
  ec:	0b3a0b0b 	bleq	e82d20 <__bss_end__+0xe798c8>
  f0:	0b390b3b 	bleq	e42de4 <__bss_end__+0xe3998c>
  f4:	00001301 	andeq	r1, r0, r1, lsl #6
  f8:	03000d0a 	movweq	r0, #3338	; 0xd0a
  fc:	3b0b3a0e 	blcc	2ce93c <__bss_end__+0x2c54e4>
 100:	490b390b 	stmdbmi	fp, {r0, r1, r3, r8, fp, ip, sp}
 104:	0d0b0b13 	vstreq	d0, [fp, #-76]	; 0xffffffb4
 108:	380b0c0b 	stmdacc	fp, {r0, r1, r3, sl, fp}
 10c:	0b00000b 	bleq	140 <__code_start__-0x7ec0>
 110:	0e03000d 	cdpeq	0, 0, cr0, cr3, cr13, {0}
 114:	053b0b3a 	ldreq	r0, [fp, #-2874]!	; 0xfffff4c6
 118:	13490b39 	movtne	r0, #39737	; 0x9b39
 11c:	0b0d0b0b 	bleq	342d50 <__bss_end__+0x3398f8>
 120:	0b380b0c 	bleq	e02d58 <__bss_end__+0xdf9900>
 124:	160c0000 	strne	r0, [ip], -r0
 128:	3a0e0300 	bcc	380d30 <__bss_end__+0x3778d8>
 12c:	39053b0b 	stmdbcc	r5, {r0, r1, r3, r8, r9, fp, ip, sp}
 130:	0013490b 	andseq	r4, r3, fp, lsl #18
 134:	01130d00 	tsteq	r3, r0, lsl #26
 138:	0b0b0e03 	bleq	2c394c <__bss_end__+0x2ba4f4>
 13c:	053b0b3a 	ldreq	r0, [fp, #-2874]!	; 0xfffff4c6
 140:	13010b39 	movwne	r0, #6969	; 0x1b39
 144:	170e0000 	strne	r0, [lr, -r0]
 148:	3a0b0b01 	bcc	2c2d54 <__bss_end__+0x2b98fc>
 14c:	39053b0b 	stmdbcc	r5, {r0, r1, r3, r8, r9, fp, ip, sp}
 150:	0013010b 	andseq	r0, r3, fp, lsl #2
 154:	000d0f00 	andeq	r0, sp, r0, lsl #30
 158:	0b3a0e03 	bleq	e8396c <__bss_end__+0xe7a514>
 15c:	0b39053b 	bleq	e41650 <__bss_end__+0xe381f8>
 160:	00001349 	andeq	r1, r0, r9, asr #6
 164:	49000d10 	stmdbmi	r0, {r4, r8, sl, fp}
 168:	000b3813 	andeq	r3, fp, r3, lsl r8
 16c:	000d1100 	andeq	r1, sp, r0, lsl #2
 170:	0b3a0803 	bleq	e82184 <__bss_end__+0xe78d2c>
 174:	0b39053b 	bleq	e41668 <__bss_end__+0xe38210>
 178:	0b381349 	bleq	e04ea4 <__bss_end__+0xdfba4c>
 17c:	01120000 	tsteq	r2, r0
 180:	01134901 	tsteq	r3, r1, lsl #18
 184:	13000013 	movwne	r0, #19
 188:	13490021 	movtne	r0, #36897	; 0x9021
 18c:	00000b2f 	andeq	r0, r0, pc, lsr #22
 190:	03003414 	movweq	r3, #1044	; 0x414
 194:	3b0b3a0e 	blcc	2ce9d4 <__bss_end__+0x2c557c>
 198:	490b3905 	stmdbmi	fp, {r0, r2, r8, fp, ip, sp}
 19c:	00180213 	andseq	r0, r8, r3, lsl r2
 1a0:	000f1500 	andeq	r1, pc, r0, lsl #10
 1a4:	13490b0b 	movtne	r0, #39691	; 0x9b0b
 1a8:	2e160000 	cdpcs	0, 1, cr0, cr6, cr0, {0}
 1ac:	03193f01 	tsteq	r9, #1, 30
 1b0:	3b0b3a0e 	blcc	2ce9f0 <__bss_end__+0x2c5598>
 1b4:	270b3905 	strcs	r3, [fp, -r5, lsl #18]
 1b8:	12011119 	andne	r1, r1, #1073741830	; 0x40000006
 1bc:	97184006 	ldrls	r4, [r8, -r6]
 1c0:	13011942 	movwne	r1, #6466	; 0x1942
 1c4:	89170000 	ldmdbhi	r7, {}	; <UNPREDICTABLE>
 1c8:	11010182 	smlabbne	r1, r2, r1, r0
 1cc:	01133101 	tsteq	r3, r1, lsl #2
 1d0:	18000013 	stmdane	r0, {r0, r1, r4}
 1d4:	0001828a 	andeq	r8, r1, sl, lsl #5
 1d8:	42911802 	addsmi	r1, r1, #131072	; 0x20000
 1dc:	19000018 	stmdbne	r0, {r3, r4}
 1e0:	00018289 	andeq	r8, r1, r9, lsl #5
 1e4:	13310111 	teqne	r1, #1073741828	; 0x40000004
 1e8:	2e1a0000 	cdpcs	0, 1, cr0, cr10, cr0, {0}
 1ec:	03193f01 	tsteq	r9, #1, 30
 1f0:	3b0b3a0e 	blcc	2cea30 <__bss_end__+0x2c55d8>
 1f4:	270b3905 	strcs	r3, [fp, -r5, lsl #18]
 1f8:	11134919 	tstne	r3, r9, lsl r9
 1fc:	40061201 	andmi	r1, r6, r1, lsl #4
 200:	19429718 	stmdbne	r2, {r3, r4, r8, r9, sl, ip, pc}^
 204:	00001301 	andeq	r1, r0, r1, lsl #6
 208:	0300341b 	movweq	r3, #1051	; 0x41b
 20c:	3b0b3a08 	blcc	2cea34 <__bss_end__+0x2c55dc>
 210:	490b3905 	stmdbmi	fp, {r0, r2, r8, fp, ip, sp}
 214:	00180213 	andseq	r0, r8, r3, lsl r2
 218:	00341c00 	eorseq	r1, r4, r0, lsl #24
 21c:	0b3a0e03 	bleq	e83a30 <__bss_end__+0xe7a5d8>
 220:	0b39053b 	bleq	e41714 <__bss_end__+0xe382bc>
 224:	17021349 	strne	r1, [r2, -r9, asr #6]
 228:	001742b7 			; <UNDEFINED> instruction: 0x001742b7
 22c:	82891d00 	addhi	r1, r9, #0, 26
 230:	01110101 	tsteq	r1, r1, lsl #2
 234:	00001331 	andeq	r1, r0, r1, lsr r3
 238:	0300051e 	movweq	r0, #1310	; 0x51e
 23c:	3b0b3a08 	blcc	2cea64 <__bss_end__+0x2c560c>
 240:	490b3905 	stmdbmi	fp, {r0, r2, r8, fp, ip, sp}
 244:	b7170213 			; <UNDEFINED> instruction: 0xb7170213
 248:	00001742 	andeq	r1, r0, r2, asr #14
 24c:	0300341f 	movweq	r3, #1055	; 0x41f
 250:	3b0b3a08 	blcc	2cea78 <__bss_end__+0x2c5620>
 254:	490b3905 	stmdbmi	fp, {r0, r2, r8, fp, ip, sp}
 258:	b7170213 			; <UNDEFINED> instruction: 0xb7170213
 25c:	00001742 	andeq	r1, r0, r2, asr #14
 260:	03012e20 	movweq	r2, #7712	; 0x1e20
 264:	3b0b3a0e 	blcc	2ceaa4 <__bss_end__+0x2c564c>
 268:	270b3905 	strcs	r3, [fp, -r5, lsl #18]
 26c:	11134919 	tstne	r3, r9, lsl r9
 270:	40061201 	andmi	r1, r6, r1, lsl #4
 274:	19429718 	stmdbne	r2, {r3, r4, r8, r9, sl, ip, pc}^
 278:	00001301 	andeq	r1, r0, r1, lsl #6
 27c:	3f002e21 	svccc	0x00002e21
 280:	6e193c19 	mrcvs	12, 0, r3, cr9, cr9, {0}
 284:	3a0e030e 	bcc	380ec4 <__bss_end__+0x377a6c>
 288:	390b3b0b 	stmdbcc	fp, {r0, r1, r3, r8, r9, fp, ip, sp}
 28c:	0000000b 	andeq	r0, r0, fp
 290:	25011101 	strcs	r1, [r1, #-257]	; 0xfffffeff
 294:	030b130e 	movweq	r1, #45838	; 0xb30e
 298:	110e1b0e 	tstne	lr, lr, lsl #22
 29c:	10061201 	andne	r1, r6, r1, lsl #4
 2a0:	02000017 	andeq	r0, r0, #23
 2a4:	0e030016 	mcreq	0, 0, r0, cr3, cr6, {0}
 2a8:	0b3b0b3a 	bleq	ec2f98 <__bss_end__+0xeb9b40>
 2ac:	13490b39 	movtne	r0, #39737	; 0x9b39
 2b0:	13030000 	movwne	r0, #12288	; 0x3000
 2b4:	0b0e0301 	bleq	380ec0 <__bss_end__+0x377a68>
 2b8:	3b0b3a0b 	blcc	2ceaec <__bss_end__+0x2c5694>
 2bc:	0013010b 	andseq	r0, r3, fp, lsl #2
 2c0:	000d0400 	andeq	r0, sp, r0, lsl #8
 2c4:	13490e03 	movtne	r0, #40451	; 0x9e03
 2c8:	19340b38 	ldmdbne	r4!, {r3, r4, r5, r8, r9, fp}
 2cc:	0f050000 	svceq	0x00050000
 2d0:	000b0b00 	andeq	r0, fp, r0, lsl #22
 2d4:	00240600 	eoreq	r0, r4, r0, lsl #12
 2d8:	0b3e0b0b 	bleq	f82f0c <__bss_end__+0xf79ab4>
 2dc:	00000803 	andeq	r0, r0, r3, lsl #16
 2e0:	0b002407 	bleq	9304 <buf.0+0x2b0>
 2e4:	030b3e0b 	movweq	r3, #48651	; 0xbe0b
 2e8:	0800000e 	stmdaeq	r0, {r1, r2, r3}
 2ec:	19270115 	stmdbne	r7!, {r0, r2, r4, r8}
 2f0:	13011349 	movwne	r1, #4937	; 0x1349
 2f4:	05090000 	streq	r0, [r9, #-0]
 2f8:	00134900 	andseq	r4, r3, r0, lsl #18
 2fc:	000f0a00 	andeq	r0, pc, r0, lsl #20
 300:	13490b0b 	movtne	r0, #39691	; 0x9b0b
 304:	260b0000 	strcs	r0, [fp], -r0
 308:	00134900 	andseq	r4, r3, r0, lsl #18
 30c:	00340c00 	eorseq	r0, r4, r0, lsl #24
 310:	0b3a0e03 	bleq	e83b24 <__bss_end__+0xe7a6cc>
 314:	0b390b3b 	bleq	e43008 <__bss_end__+0xe39bb0>
 318:	193f1349 	ldmdbne	pc!, {r0, r3, r6, r8, r9, ip}	; <UNPREDICTABLE>
 31c:	0000193c 	andeq	r1, r0, ip, lsr r9
 320:	3f012e0d 	svccc	0x00012e0d
 324:	3a0e0319 	bcc	380f90 <__bss_end__+0x377b38>
 328:	390b3b0b 	stmdbcc	fp, {r0, r1, r3, r8, r9, fp, ip, sp}
 32c:	4919270b 	ldmdbmi	r9, {r0, r1, r3, r8, r9, sl, sp}
 330:	12011113 	andne	r1, r1, #-1073741820	; 0xc0000004
 334:	97184006 	ldrls	r4, [r8, -r6]
 338:	13011942 	movwne	r1, #6466	; 0x1942
 33c:	050e0000 	streq	r0, [lr, #-0]
 340:	3a080300 	bcc	200f48 <__bss_end__+0x1f7af0>
 344:	390b3b0b 	stmdbcc	fp, {r0, r1, r3, r8, r9, fp, ip, sp}
 348:	0213490b 	andseq	r4, r3, #180224	; 0x2c000
 34c:	0f000018 	svceq	0x00000018
 350:	00000018 	andeq	r0, r0, r8, lsl r0
 354:	03003410 	movweq	r3, #1040	; 0x410
 358:	3b0b3a08 	blcc	2ceb80 <__bss_end__+0x2c5728>
 35c:	490b390b 	stmdbmi	fp, {r0, r1, r3, r8, fp, ip, sp}
 360:	00180213 	andseq	r0, r8, r3, lsl r2
 364:	00341100 	eorseq	r1, r4, r0, lsl #2
 368:	0b3a0e03 	bleq	e83b7c <__bss_end__+0xe7a724>
 36c:	0b390b3b 	bleq	e43060 <__bss_end__+0xe39c08>
 370:	18021349 	stmdane	r2, {r0, r3, r6, r8, r9, ip}
 374:	34120000 	ldrcc	r0, [r2], #-0
 378:	3a080300 	bcc	200f80 <__bss_end__+0x1f7b28>
 37c:	390b3b0b 	stmdbcc	fp, {r0, r1, r3, r8, r9, fp, ip, sp}
 380:	0213490b 	andseq	r4, r3, #180224	; 0x2c000
 384:	1742b717 	smlaldne	fp, r2, r7, r7
 388:	89130000 	ldmdbhi	r3, {}	; <UNPREDICTABLE>
 38c:	11010182 	smlabbne	r1, r2, r1, r0
 390:	01133101 	tsteq	r3, r1, lsl #2
 394:	14000013 	strne	r0, [r0], #-19	; 0xffffffed
 398:	0001828a 	andeq	r8, r1, sl, lsl #5
 39c:	42911802 	addsmi	r1, r1, #131072	; 0x20000
 3a0:	15000018 	strne	r0, [r0, #-24]	; 0xffffffe8
 3a4:	01018289 	smlabbeq	r1, r9, r2, r8
 3a8:	00000111 	andeq	r0, r0, r1, lsl r1
 3ac:	49010116 	stmdbmi	r1, {r1, r2, r4, r8}
 3b0:	00130113 	andseq	r0, r3, r3, lsl r1
 3b4:	00211700 	eoreq	r1, r1, r0, lsl #14
 3b8:	052f1349 	streq	r1, [pc, #-841]!	; 77 <__code_start__-0x7f89>
 3bc:	2e180000 	cdpcs	0, 1, cr0, cr8, cr0, {0}
 3c0:	3c193f00 	ldccc	15, cr3, [r9], {-0}
 3c4:	030e6e19 	movweq	r6, #60953	; 0xee19
 3c8:	3b0b3a0e 	blcc	2cec08 <__bss_end__+0x2c57b0>
 3cc:	000b390b 	andeq	r3, fp, fp, lsl #18
 3d0:	11010000 	mrsne	r0, (UNDEF: 1)
 3d4:	130e2501 	movwne	r2, #58625	; 0xe501
 3d8:	1b0e030b 	blne	38100c <__bss_end__+0x377bb4>
 3dc:	1201110e 	andne	r1, r1, #-2147483645	; 0x80000003
 3e0:	00171006 	andseq	r1, r7, r6
 3e4:	00240200 	eoreq	r0, r4, r0, lsl #4
 3e8:	0b3e0b0b 	bleq	f8301c <__bss_end__+0xf79bc4>
 3ec:	00000803 	andeq	r0, r0, r3, lsl #16
 3f0:	0b002403 	bleq	9404 <buf.0+0x3b0>
 3f4:	030b3e0b 	movweq	r3, #48651	; 0xbe0b
 3f8:	0400000e 	streq	r0, [r0], #-14
 3fc:	19270115 	stmdbne	r7!, {r0, r2, r4, r8}
 400:	13011349 	movwne	r1, #4937	; 0x1349
 404:	05050000 	streq	r0, [r5, #-0]
 408:	00134900 	andseq	r4, r3, r0, lsl #18
 40c:	00340600 	eorseq	r0, r4, r0, lsl #12
 410:	0b3a0e03 	bleq	e83c24 <__bss_end__+0xe7a7cc>
 414:	0b390b3b 	bleq	e43108 <__bss_end__+0xe39cb0>
 418:	193f1349 	ldmdbne	pc!, {r0, r3, r6, r8, r9, ip}	; <UNPREDICTABLE>
 41c:	0000193c 	andeq	r1, r0, ip, lsr r9
 420:	0b000f07 	bleq	4044 <__code_start__-0x3fbc>
 424:	0013490b 	andseq	r4, r3, fp, lsl #18
 428:	00260800 	eoreq	r0, r6, r0, lsl #16
 42c:	00001349 	andeq	r1, r0, r9, asr #6
 430:	47003409 	strmi	r3, [r0, -r9, lsl #8]
 434:	3b0b3a13 	blcc	2cec88 <__bss_end__+0x2c5830>
 438:	020b390b 	andeq	r3, fp, #180224	; 0x2c000
 43c:	0a000018 	beq	4a4 <__code_start__-0x7b5c>
 440:	193f012e 	ldmdbne	pc!, {r1, r2, r3, r5, r8}	; <UNPREDICTABLE>
 444:	0b3a0e03 	bleq	e83c58 <__bss_end__+0xe7a800>
 448:	0b390b3b 	bleq	e4313c <__bss_end__+0xe39ce4>
 44c:	13491927 	movtne	r1, #39207	; 0x9927
 450:	06120111 			; <UNDEFINED> instruction: 0x06120111
 454:	42961840 	addsmi	r1, r6, #64, 16	; 0x400000
 458:	0b000019 	bleq	4c4 <__code_start__-0x7b3c>
 45c:	08030005 	stmdaeq	r3, {r0, r2}
 460:	0b3b0b3a 	bleq	ec3150 <__bss_end__+0xeb9cf8>
 464:	13490b39 	movtne	r0, #39737	; 0x9b39
 468:	42b71702 	adcsmi	r1, r7, #524288	; 0x80000
 46c:	00000017 	andeq	r0, r0, r7, lsl r0
 470:	25011101 	strcs	r1, [r1, #-257]	; 0xfffffeff
 474:	030b130e 	movweq	r1, #45838	; 0xb30e
 478:	110e1b0e 	tstne	lr, lr, lsl #22
 47c:	10061201 	andne	r1, r6, r1, lsl #4
 480:	02000017 	andeq	r0, r0, #23
 484:	0b0b0024 	bleq	2c051c <__bss_end__+0x2b70c4>
 488:	08030b3e 	stmdaeq	r3, {r1, r2, r3, r4, r5, r8, r9, fp}
 48c:	24030000 	strcs	r0, [r3], #-0
 490:	3e0b0b00 	vmlacc.f64	d0, d11, d0
 494:	000e030b 	andeq	r0, lr, fp, lsl #6
 498:	00160400 	andseq	r0, r6, r0, lsl #8
 49c:	0b3a0e03 	bleq	e83cb0 <__bss_end__+0xe7a858>
 4a0:	0b390b3b 	bleq	e43194 <__bss_end__+0xe39d3c>
 4a4:	00001349 	andeq	r1, r0, r9, asr #6
 4a8:	27011505 	strcs	r1, [r1, -r5, lsl #10]
 4ac:	01134919 	tsteq	r3, r9, lsl r9
 4b0:	06000013 			; <UNDEFINED> instruction: 0x06000013
 4b4:	13490005 	movtne	r0, #36869	; 0x9005
 4b8:	34070000 	strcc	r0, [r7], #-0
 4bc:	3a0e0300 	bcc	3810c4 <__bss_end__+0x377c6c>
 4c0:	390b3b0b 	stmdbcc	fp, {r0, r1, r3, r8, r9, fp, ip, sp}
 4c4:	3f13490b 	svccc	0x0013490b
 4c8:	00193c19 	andseq	r3, r9, r9, lsl ip
 4cc:	000f0800 	andeq	r0, pc, r0, lsl #16
 4d0:	13490b0b 	movtne	r0, #39691	; 0x9b0b
 4d4:	26090000 	strcs	r0, [r9], -r0
 4d8:	00134900 	andseq	r4, r3, r0, lsl #18
 4dc:	01130a00 	tsteq	r3, r0, lsl #20
 4e0:	0b0b0e03 	bleq	2c3cf4 <__bss_end__+0x2ba89c>
 4e4:	0b3b0b3a 	bleq	ec31d4 <__bss_end__+0xeb9d7c>
 4e8:	00001301 	andeq	r1, r0, r1, lsl #6
 4ec:	03000d0b 	movweq	r0, #3339	; 0xd0b
 4f0:	3813490e 	ldmdacc	r3, {r1, r2, r3, r8, fp, lr}
 4f4:	0019340b 	andseq	r3, r9, fp, lsl #8
 4f8:	000f0c00 	andeq	r0, pc, r0, lsl #24
 4fc:	00000b0b 	andeq	r0, r0, fp, lsl #22
 500:	3f012e0d 	svccc	0x00012e0d
 504:	3a0e0319 	bcc	381170 <__bss_end__+0x377d18>
 508:	390b3b0b 	stmdbcc	fp, {r0, r1, r3, r8, r9, fp, ip, sp}
 50c:	4919270b 	ldmdbmi	r9, {r0, r1, r3, r8, r9, sl, sp}
 510:	12011113 	andne	r1, r1, #-1073741820	; 0xc0000004
 514:	97184006 	ldrls	r4, [r8, -r6]
 518:	13011942 	movwne	r1, #6466	; 0x1942
 51c:	050e0000 	streq	r0, [lr, #-0]
 520:	3a080300 	bcc	201128 <__bss_end__+0x1f7cd0>
 524:	390b3b0b 	stmdbcc	fp, {r0, r1, r3, r8, r9, fp, ip, sp}
 528:	0213490b 	andseq	r4, r3, #180224	; 0x2c000
 52c:	1742b717 	smlaldne	fp, r2, r7, r7
 530:	050f0000 	streq	r0, [pc, #-0]	; 538 <__code_start__-0x7ac8>
 534:	3a0e0300 	bcc	38113c <__bss_end__+0x377ce4>
 538:	390b3b0b 	stmdbcc	fp, {r0, r1, r3, r8, r9, fp, ip, sp}
 53c:	0213490b 	andseq	r4, r3, #180224	; 0x2c000
 540:	10000018 	andne	r0, r0, r8, lsl r0
 544:	08030034 	stmdaeq	r3, {r2, r4, r5}
 548:	0b3b0b3a 	bleq	ec3238 <__bss_end__+0xeb9de0>
 54c:	13490b39 	movtne	r0, #39737	; 0x9b39
 550:	42b71702 	adcsmi	r1, r7, #524288	; 0x80000
 554:	11000017 	tstne	r0, r7, lsl r0
 558:	08030034 	stmdaeq	r3, {r2, r4, r5}
 55c:	0b3b0b3a 	bleq	ec324c <__bss_end__+0xeb9df4>
 560:	13490b39 	movtne	r0, #39737	; 0x9b39
 564:	34120000 	ldrcc	r0, [r2], #-0
 568:	3a0e0300 	bcc	381170 <__bss_end__+0x377d18>
 56c:	390b3b0b 	stmdbcc	fp, {r0, r1, r3, r8, r9, fp, ip, sp}
 570:	0213490b 	andseq	r4, r3, #180224	; 0x2c000
 574:	1742b717 	smlaldne	fp, r2, r7, r7
 578:	34130000 	ldrcc	r0, [r3], #-0
 57c:	490e0300 	stmdbmi	lr, {r8, r9}
 580:	02193413 	andseq	r3, r9, #318767104	; 0x13000000
 584:	14000018 	strne	r0, [r0], #-24	; 0xffffffe8
 588:	0111010b 	tsteq	r1, fp, lsl #2
 58c:	00000612 	andeq	r0, r0, r2, lsl r6
 590:	03003415 	movweq	r3, #1045	; 0x415
 594:	3b0b3a08 	blcc	2cedbc <__bss_end__+0x2c5964>
 598:	490b390b 	stmdbmi	fp, {r0, r1, r3, r8, fp, ip, sp}
 59c:	00180213 	andseq	r0, r8, r3, lsl r2
 5a0:	00341600 	eorseq	r1, r4, r0, lsl #12
 5a4:	0b3a0e03 	bleq	e83db8 <__bss_end__+0xe7a960>
 5a8:	0b390b3b 	bleq	e4329c <__bss_end__+0xe39e44>
 5ac:	18021349 	stmdane	r2, {r0, r3, r6, r8, r9, ip}
 5b0:	0b170000 	bleq	5c05b8 <__bss_end__+0x5b7160>
 5b4:	12011101 	andne	r1, r1, #1073741824	; 0x40000000
 5b8:	00130106 	andseq	r0, r3, r6, lsl #2
 5bc:	82891800 	addhi	r1, r9, #0, 16
 5c0:	01110101 	tsteq	r1, r1, lsl #2
 5c4:	13011331 	movwne	r1, #4913	; 0x1331
 5c8:	8a190000 	bhi	6405d0 <__bss_end__+0x637178>
 5cc:	02000182 	andeq	r0, r0, #-2147483616	; 0x80000020
 5d0:	18429118 	stmdane	r2, {r3, r4, r8, ip, pc}^
 5d4:	891a0000 	ldmdbhi	sl, {}	; <UNPREDICTABLE>
 5d8:	11000182 	smlabbne	r0, r2, r1, r0
 5dc:	00133101 	andseq	r3, r3, r1, lsl #2
 5e0:	82891b00 	addhi	r1, r9, #0, 22
 5e4:	01110101 	tsteq	r1, r1, lsl #2
 5e8:	00001301 	andeq	r1, r0, r1, lsl #6
 5ec:	4901011c 	stmdbmi	r1, {r2, r3, r4, r8}
 5f0:	00130113 	andseq	r0, r3, r3, lsl r1
 5f4:	00211d00 	eoreq	r1, r1, r0, lsl #26
 5f8:	0b2f1349 	bleq	bc5324 <__bss_end__+0xbbbecc>
 5fc:	2e1e0000 	cdpcs	0, 1, cr0, cr14, cr0, {0}
 600:	3a0e0301 	bcc	38120c <__bss_end__+0x377db4>
 604:	390b3b0b 	stmdbcc	fp, {r0, r1, r3, r8, r9, fp, ip, sp}
 608:	4919270b 	ldmdbmi	r9, {r0, r1, r3, r8, r9, sl, sp}
 60c:	12011113 	andne	r1, r1, #-1073741820	; 0xc0000004
 610:	97184006 	ldrls	r4, [r8, -r6]
 614:	13011942 	movwne	r1, #6466	; 0x1942
 618:	051f0000 	ldreq	r0, [pc, #-0]	; 620 <__code_start__-0x79e0>
 61c:	3a0e0300 	bcc	381224 <__bss_end__+0x377dcc>
 620:	390b3b0b 	stmdbcc	fp, {r0, r1, r3, r8, r9, fp, ip, sp}
 624:	0213490b 	andseq	r4, r3, #180224	; 0x2c000
 628:	1742b717 	smlaldne	fp, r2, r7, r7
 62c:	2e200000 	cdpcs	0, 2, cr0, cr0, cr0, {0}
 630:	3a080301 	bcc	20123c <__bss_end__+0x1f7de4>
 634:	390b3b0b 	stmdbcc	fp, {r0, r1, r3, r8, r9, fp, ip, sp}
 638:	4919270b 	ldmdbmi	r9, {r0, r1, r3, r8, r9, sl, sp}
 63c:	12011113 	andne	r1, r1, #-1073741820	; 0xc0000004
 640:	97184006 	ldrls	r4, [r8, -r6]
 644:	13011942 	movwne	r1, #6466	; 0x1942
 648:	2e210000 	cdpcs	0, 2, cr0, cr1, cr0, {0}
 64c:	03193f01 	tsteq	r9, #1, 30
 650:	3b0b3a0e 	blcc	2cee90 <__bss_end__+0x2c5a38>
 654:	270b390b 	strcs	r3, [fp, -fp, lsl #18]
 658:	12011119 	andne	r1, r1, #1073741830	; 0x40000006
 65c:	97184006 	ldrls	r4, [r8, -r6]
 660:	13011942 	movwne	r1, #6466	; 0x1942
 664:	2e220000 	cdpcs	0, 2, cr0, cr2, cr0, {0}
 668:	3c193f00 	ldccc	15, cr3, [r9], {-0}
 66c:	030e6e19 	movweq	r6, #60953	; 0xee19
 670:	3b0b3a0e 	blcc	2ceeb0 <__bss_end__+0x2c5a58>
 674:	000b390b 	andeq	r3, fp, fp, lsl #18
 678:	11010000 	mrsne	r0, (UNDEF: 1)
 67c:	130e2501 	movwne	r2, #58625	; 0xe501
 680:	1b0e030b 	blne	3812b4 <__bss_end__+0x377e5c>
 684:	1201110e 	andne	r1, r1, #-2147483645	; 0x80000003
 688:	00171006 	andseq	r1, r7, r6
 68c:	00240200 	eoreq	r0, r4, r0, lsl #4
 690:	0b3e0b0b 	bleq	f832c4 <__bss_end__+0xf79e6c>
 694:	00000803 	andeq	r0, r0, r3, lsl #16
 698:	0b002403 	bleq	96ac <__bss_end__+0x254>
 69c:	030b3e0b 	movweq	r3, #48651	; 0xbe0b
 6a0:	0400000e 	streq	r0, [r0], #-14
 6a4:	19270115 	stmdbne	r7!, {r0, r2, r4, r8}
 6a8:	13011349 	movwne	r1, #4937	; 0x1349
 6ac:	05050000 	streq	r0, [r5, #-0]
 6b0:	00134900 	andseq	r4, r3, r0, lsl #18
 6b4:	000f0600 	andeq	r0, pc, r0, lsl #12
 6b8:	13490b0b 	movtne	r0, #39691	; 0x9b0b
 6bc:	26070000 	strcs	r0, [r7], -r0
 6c0:	00134900 	andseq	r4, r3, r0, lsl #18
 6c4:	00340800 	eorseq	r0, r4, r0, lsl #16
 6c8:	0b3a0e03 	bleq	e83edc <__bss_end__+0xe7aa84>
 6cc:	0b390b3b 	bleq	e433c0 <__bss_end__+0xe39f68>
 6d0:	193f1349 	ldmdbne	pc!, {r0, r3, r6, r8, r9, ip}	; <UNPREDICTABLE>
 6d4:	0000193c 	andeq	r1, r0, ip, lsr r9
 6d8:	3f012e09 	svccc	0x00012e09
 6dc:	3a0e0319 	bcc	381348 <__bss_end__+0x377ef0>
 6e0:	390b3b0b 	stmdbcc	fp, {r0, r1, r3, r8, r9, fp, ip, sp}
 6e4:	8719270b 	ldrhi	r2, [r9, -fp, lsl #14]
 6e8:	01111901 	tsteq	r1, r1, lsl #18
 6ec:	18400612 	stmdane	r0, {r1, r4, r9, sl}^
 6f0:	01194297 			; <UNDEFINED> instruction: 0x01194297
 6f4:	0a000013 	beq	748 <__code_start__-0x78b8>
 6f8:	01018289 	smlabbeq	r1, r9, r2, r8
 6fc:	13010111 	movwne	r0, #4369	; 0x1111
 700:	8a0b0000 	bhi	2c0708 <__bss_end__+0x2b72b0>
 704:	02000182 	andeq	r0, r0, #-2147483616	; 0x80000020
 708:	18429118 	stmdane	r2, {r3, r4, r8, ip, pc}^
 70c:	890c0000 	stmdbhi	ip, {}	; <UNPREDICTABLE>
 710:	11000182 	smlabbne	r0, r2, r1, r0
 714:	00133101 	andseq	r3, r3, r1, lsl #2
 718:	82890d00 	addhi	r0, r9, #0, 26
 71c:	01110101 	tsteq	r1, r1, lsl #2
 720:	13011331 	movwne	r1, #4913	; 0x1331
 724:	2e0e0000 	cdpcs	0, 0, cr0, cr14, cr0, {0}
 728:	3c193f00 	ldccc	15, cr3, [r9], {-0}
 72c:	030e6e19 	movweq	r6, #60953	; 0xee19
 730:	3b0b3a0e 	blcc	2cef70 <__bss_end__+0x2c5b18>
 734:	000b390b 	andeq	r3, fp, fp, lsl #18
 738:	11010000 	mrsne	r0, (UNDEF: 1)
 73c:	130e2501 	movwne	r2, #58625	; 0xe501
 740:	1b0e030b 	blne	381374 <__bss_end__+0x377f1c>
 744:	1201110e 	andne	r1, r1, #-2147483645	; 0x80000003
 748:	00171006 	andseq	r1, r7, r6
 74c:	00240200 	eoreq	r0, r4, r0, lsl #4
 750:	0b3e0b0b 	bleq	f83384 <__bss_end__+0xf79f2c>
 754:	00000803 	andeq	r0, r0, r3, lsl #16
 758:	0b002403 	bleq	976c <__bss_end__+0x314>
 75c:	030b3e0b 	movweq	r3, #48651	; 0xbe0b
 760:	0400000e 	streq	r0, [r0], #-14
 764:	193f012e 	ldmdbne	pc!, {r1, r2, r3, r5, r8}	; <UNPREDICTABLE>
 768:	0b3a0e03 	bleq	e83f7c <__bss_end__+0xe7ab24>
 76c:	0b390b3b 	bleq	e43460 <__bss_end__+0xe3a008>
 770:	06120111 			; <UNDEFINED> instruction: 0x06120111
 774:	42971840 	addsmi	r1, r7, #64, 16	; 0x400000
 778:	00130119 	andseq	r0, r3, r9, lsl r1
 77c:	00340500 	eorseq	r0, r4, r0, lsl #10
 780:	0b3a0e03 	bleq	e83f94 <__bss_end__+0xe7ab3c>
 784:	0b390b3b 	bleq	e43478 <__bss_end__+0xe3a020>
 788:	193f1349 	ldmdbne	pc!, {r0, r3, r6, r8, r9, ip}	; <UNPREDICTABLE>
 78c:	0000193c 	andeq	r1, r0, ip, lsr r9
 790:	3f002e06 	svccc	0x00002e06
 794:	3a0e0319 	bcc	381400 <__bss_end__+0x377fa8>
 798:	390b3b0b 	stmdbcc	fp, {r0, r1, r3, r8, r9, fp, ip, sp}
 79c:	3c19270b 	ldccc	7, cr2, [r9], {11}
 7a0:	07000019 	smladeq	r0, r9, r0, r0
 7a4:	08030034 	stmdaeq	r3, {r2, r4, r5}
 7a8:	0b3b0b3a 	bleq	ec3498 <__bss_end__+0xeba040>
 7ac:	13490b39 	movtne	r0, #39737	; 0x9b39
 7b0:	42b71702 	adcsmi	r1, r7, #524288	; 0x80000
 7b4:	08000017 	stmdaeq	r0, {r0, r1, r2, r4}
 7b8:	0e030034 	mcreq	0, 0, r0, cr3, cr4, {1}
 7bc:	0b3b0b3a 	bleq	ec34ac <__bss_end__+0xeba054>
 7c0:	13490b39 	movtne	r0, #39737	; 0x9b39
 7c4:	0b090000 	bleq	2407cc <__bss_end__+0x237374>
 7c8:	12011101 	andne	r1, r1, #1073741824	; 0x40000000
 7cc:	00130106 	andseq	r0, r3, r6, lsl #2
 7d0:	00340a00 	eorseq	r0, r4, r0, lsl #20
 7d4:	0b3a0803 	bleq	e827e8 <__bss_end__+0xe79390>
 7d8:	0b390b3b 	bleq	e434cc <__bss_end__+0xe3a074>
 7dc:	0b1c1349 	bleq	705508 <__bss_end__+0x6fc0b0>
 7e0:	890b0000 	stmdbhi	fp, {}	; <UNPREDICTABLE>
 7e4:	11000182 	smlabbne	r0, r2, r1, r0
 7e8:	00133101 	andseq	r3, r3, r1, lsl #2
 7ec:	000f0c00 	andeq	r0, pc, r0, lsl #24
 7f0:	13490b0b 	movtne	r0, #39691	; 0x9b0b
 7f4:	2e0d0000 	cdpcs	0, 0, cr0, cr13, cr0, {0}
 7f8:	3c193f00 	ldccc	15, cr3, [r9], {-0}
 7fc:	030e6e19 	movweq	r6, #60953	; 0xee19
 800:	3b0b3a0e 	blcc	2cf040 <__bss_end__+0x2c5be8>
 804:	000b3905 	andeq	r3, fp, r5, lsl #18
 808:	002e0e00 	eoreq	r0, lr, r0, lsl #28
 80c:	193c193f 	ldmdbne	ip!, {r0, r1, r2, r3, r4, r5, r8, fp, ip}
 810:	0e030e6e 	cdpeq	14, 0, cr0, cr3, cr14, {3}
 814:	0b3b0b3a 	bleq	ec3504 <__bss_end__+0xeba0ac>
 818:	00000b39 	andeq	r0, r0, r9, lsr fp
 81c:	01110100 	tsteq	r1, r0, lsl #2
 820:	0b130e25 	bleq	4c40bc <__bss_end__+0x4bac64>
 824:	0e1b0e03 	cdpeq	14, 1, cr0, cr11, cr3, {0}
 828:	06120111 			; <UNDEFINED> instruction: 0x06120111
 82c:	00001710 	andeq	r1, r0, r0, lsl r7
 830:	0b002402 	bleq	9840 <__bss_end__+0x3e8>
 834:	030b3e0b 	movweq	r3, #48651	; 0xbe0b
 838:	03000008 	movweq	r0, #8
 83c:	0b0b0024 	bleq	2c08d4 <__bss_end__+0x2b747c>
 840:	0e030b3e 	vmoveq.16	d3[0], r0
 844:	2e040000 	cdpcs	0, 0, cr0, cr4, cr0, {0}
 848:	03193f00 	tsteq	r9, #0, 30
 84c:	3b0b3a0e 	blcc	2cf08c <__bss_end__+0x2c5c34>
 850:	270b390b 	strcs	r3, [fp, -fp, lsl #18]
 854:	12011119 	andne	r1, r1, #1073741830	; 0x40000006
 858:	97184006 	ldrls	r4, [r8, -r6]
 85c:	00001942 	andeq	r1, r0, r2, asr #18
 860:	01110100 	tsteq	r1, r0, lsl #2
 864:	0b130e25 	bleq	4c4100 <__bss_end__+0x4baca8>
 868:	0e1b0e03 	cdpeq	14, 1, cr0, cr11, cr3, {0}
 86c:	01111755 	tsteq	r1, r5, asr r7
 870:	00001710 	andeq	r1, r0, r0, lsl r7
 874:	0b002402 	bleq	9884 <__bss_end__+0x42c>
 878:	030b3e0b 	movweq	r3, #48651	; 0xbe0b
 87c:	03000008 	movweq	r0, #8
 880:	13490026 	movtne	r0, #36902	; 0x9026
 884:	24040000 	strcs	r0, [r4], #-0
 888:	3e0b0b00 	vmlacc.f64	d0, d11, d0
 88c:	000e030b 	andeq	r0, lr, fp, lsl #6
 890:	00340500 	eorseq	r0, r4, r0, lsl #10
 894:	0b3a0e03 	bleq	e840a8 <__bss_end__+0xe7ac50>
 898:	0b390b3b 	bleq	e4358c <__bss_end__+0xe3a134>
 89c:	00001349 	andeq	r1, r0, r9, asr #6
 8a0:	3f012e06 	svccc	0x00012e06
 8a4:	3a0e0319 	bcc	381510 <__bss_end__+0x3780b8>
 8a8:	390b3b0b 	stmdbcc	fp, {r0, r1, r3, r8, r9, fp, ip, sp}
 8ac:	8719270b 	ldrhi	r2, [r9, -fp, lsl #14]
 8b0:	01111901 	tsteq	r1, r1, lsl #18
 8b4:	18400612 	stmdane	r0, {r1, r4, r9, sl}^
 8b8:	01194297 			; <UNDEFINED> instruction: 0x01194297
 8bc:	07000013 	smladeq	r0, r3, r0, r0
 8c0:	0e030034 	mcreq	0, 0, r0, cr3, cr4, {1}
 8c4:	0b3b0b3a 	bleq	ec35b4 <__bss_end__+0xeba15c>
 8c8:	13490b39 	movtne	r0, #39737	; 0x9b39
 8cc:	42b71702 	adcsmi	r1, r7, #524288	; 0x80000
 8d0:	08000017 	stmdaeq	r0, {r0, r1, r2, r4}
 8d4:	00018289 	andeq	r8, r1, r9, lsl #5
 8d8:	13310111 	teqne	r1, #1073741828	; 0x40000004
 8dc:	89090000 	stmdbhi	r9, {}	; <UNPREDICTABLE>
 8e0:	11010182 	smlabbne	r1, r2, r1, r0
 8e4:	01133101 	tsteq	r3, r1, lsl #2
 8e8:	0a000013 	beq	93c <__code_start__-0x76c4>
 8ec:	0001828a 	andeq	r8, r1, sl, lsl #5
 8f0:	42911802 	addsmi	r1, r1, #131072	; 0x20000
 8f4:	0b000018 	bleq	95c <__code_start__-0x76a4>
 8f8:	193f012e 	ldmdbne	pc!, {r1, r2, r3, r5, r8}	; <UNPREDICTABLE>
 8fc:	0b3a0e03 	bleq	e84110 <__bss_end__+0xe7acb8>
 900:	0b390b3b 	bleq	e435f4 <__bss_end__+0xe3a19c>
 904:	01111927 	tsteq	r1, r7, lsr #18
 908:	18400612 	stmdane	r0, {r1, r4, r9, sl}^
 90c:	01194297 			; <UNDEFINED> instruction: 0x01194297
 910:	0c000013 	stceq	0, cr0, [r0], {19}
 914:	193f012e 	ldmdbne	pc!, {r1, r2, r3, r5, r8}	; <UNPREDICTABLE>
 918:	0b3a0e03 	bleq	e8412c <__bss_end__+0xe7acd4>
 91c:	0b390b3b 	bleq	e43610 <__bss_end__+0xe3a1b8>
 920:	13491927 	movtne	r1, #39207	; 0x9927
 924:	06120111 			; <UNDEFINED> instruction: 0x06120111
 928:	42971840 	addsmi	r1, r7, #64, 16	; 0x400000
 92c:	00130119 	andseq	r0, r3, r9, lsl r1
 930:	002e0d00 	eoreq	r0, lr, r0, lsl #26
 934:	193c193f 	ldmdbne	ip!, {r0, r1, r2, r3, r4, r5, r8, fp, ip}
 938:	0e030e6e 	cdpeq	14, 0, cr0, cr3, cr14, {3}
 93c:	053b0b3a 	ldreq	r0, [fp, #-2874]!	; 0xfffff4c6
 940:	00000b39 	andeq	r0, r0, r9, lsr fp
 944:	3f002e0e 	svccc	0x00002e0e
 948:	6e193c19 	mrcvs	12, 0, r3, cr9, cr9, {0}
 94c:	3a0e030e 	bcc	38158c <__bss_end__+0x378134>
 950:	390b3b0b 	stmdbcc	fp, {r0, r1, r3, r8, r9, fp, ip, sp}
 954:	0000000b 	andeq	r0, r0, fp
 958:	25011101 	strcs	r1, [r1, #-257]	; 0xfffffeff
 95c:	030b130e 	movweq	r1, #45838	; 0xb30e
 960:	110e1b0e 	tstne	lr, lr, lsl #22
 964:	10061201 	andne	r1, r6, r1, lsl #4
 968:	02000017 	andeq	r0, r0, #23
 96c:	0b0b0024 	bleq	2c0a04 <__bss_end__+0x2b75ac>
 970:	08030b3e 	stmdaeq	r3, {r1, r2, r3, r4, r5, r8, r9, fp}
 974:	24030000 	strcs	r0, [r3], #-0
 978:	3e0b0b00 	vmlacc.f64	d0, d11, d0
 97c:	000e030b 	andeq	r0, lr, fp, lsl #6
 980:	012e0400 			; <UNDEFINED> instruction: 0x012e0400
 984:	0e03193f 			; <UNDEFINED> instruction: 0x0e03193f
 988:	0b3b0b3a 	bleq	ec3678 <__bss_end__+0xeba220>
 98c:	19270b39 	stmdbne	r7!, {r0, r3, r4, r5, r8, r9, fp}
 990:	06120111 			; <UNDEFINED> instruction: 0x06120111
 994:	42971840 	addsmi	r1, r7, #64, 16	; 0x400000
 998:	00130119 	andseq	r0, r3, r9, lsl r1
 99c:	00050500 	andeq	r0, r5, r0, lsl #10
 9a0:	0b3a0803 	bleq	e829b4 <__bss_end__+0xe7955c>
 9a4:	0b390b3b 	bleq	e43698 <__bss_end__+0xe3a240>
 9a8:	17021349 	strne	r1, [r2, -r9, asr #6]
 9ac:	001742b7 			; <UNDEFINED> instruction: 0x001742b7
 9b0:	82890600 	addhi	r0, r9, #0, 12
 9b4:	01110101 	tsteq	r1, r1, lsl #2
 9b8:	00001331 	andeq	r1, r0, r1, lsr r3
 9bc:	01828a07 	orreq	r8, r2, r7, lsl #20
 9c0:	91180200 	tstls	r8, r0, lsl #4
 9c4:	00001842 	andeq	r1, r0, r2, asr #16
 9c8:	03003408 	movweq	r3, #1032	; 0x408
 9cc:	3b0b3a08 	blcc	2cf1f4 <__bss_end__+0x2c5d9c>
 9d0:	490b390b 	stmdbmi	fp, {r0, r1, r3, r8, fp, ip, sp}
 9d4:	b7170213 			; <UNDEFINED> instruction: 0xb7170213
 9d8:	00001742 	andeq	r1, r0, r2, asr #14
 9dc:	11010b09 	tstne	r1, r9, lsl #22
 9e0:	01061201 	tsteq	r6, r1, lsl #4
 9e4:	0a000013 	beq	a38 <__code_start__-0x75c8>
 9e8:	00018289 	andeq	r8, r1, r9, lsl #5
 9ec:	13310111 	teqne	r1, #1073741828	; 0x40000004
 9f0:	2e0b0000 	cdpcs	0, 0, cr0, cr11, cr0, {0}
 9f4:	03193f01 	tsteq	r9, #1, 30
 9f8:	3b0b3a0e 	blcc	2cf238 <__bss_end__+0x2c5de0>
 9fc:	270b390b 	strcs	r3, [fp, -fp, lsl #18]
 a00:	11134919 	tstne	r3, r9, lsl r9
 a04:	40061201 	andmi	r1, r6, r1, lsl #4
 a08:	19429718 	stmdbne	r2, {r3, r4, r8, r9, sl, ip, pc}^
 a0c:	00001301 	andeq	r1, r0, r1, lsl #6
 a10:	3f002e0c 	svccc	0x00002e0c
 a14:	6e193c19 	mrcvs	12, 0, r3, cr9, cr9, {0}
 a18:	3a0e030e 	bcc	381658 <__bss_end__+0x378200>
 a1c:	390b3b0b 	stmdbcc	fp, {r0, r1, r3, r8, r9, fp, ip, sp}
 a20:	0000000b 	andeq	r0, r0, fp
 a24:	25011101 	strcs	r1, [r1, #-257]	; 0xfffffeff
 a28:	030b130e 	movweq	r1, #45838	; 0xb30e
 a2c:	110e1b0e 	tstne	lr, lr, lsl #22
 a30:	10061201 	andne	r1, r6, r1, lsl #4
 a34:	02000017 	andeq	r0, r0, #23
 a38:	0b0b0024 	bleq	2c0ad0 <__bss_end__+0x2b7678>
 a3c:	08030b3e 	stmdaeq	r3, {r1, r2, r3, r4, r5, r8, r9, fp}
 a40:	24030000 	strcs	r0, [r3], #-0
 a44:	3e0b0b00 	vmlacc.f64	d0, d11, d0
 a48:	000e030b 	andeq	r0, lr, fp, lsl #6
 a4c:	00260400 	eoreq	r0, r6, r0, lsl #8
 a50:	00001349 	andeq	r1, r0, r9, asr #6
 a54:	03001605 	movweq	r1, #1541	; 0x605
 a58:	3b0b3a0e 	blcc	2cf298 <__bss_end__+0x2c5e40>
 a5c:	490b390b 	stmdbmi	fp, {r0, r1, r3, r8, fp, ip, sp}
 a60:	06000013 			; <UNDEFINED> instruction: 0x06000013
 a64:	0b3e0104 	bleq	f80e7c <__bss_end__+0xf77a24>
 a68:	13490b0b 	movtne	r0, #39691	; 0x9b0b
 a6c:	0b3b0b3a 	bleq	ec375c <__bss_end__+0xeba304>
 a70:	13010b39 	movwne	r0, #6969	; 0x1b39
 a74:	28070000 	stmdacs	r7, {}	; <UNPREDICTABLE>
 a78:	1c0e0300 	stcne	3, cr0, [lr], {-0}
 a7c:	0800000b 	stmdaeq	r0, {r0, r1, r3}
 a80:	0e030034 	mcreq	0, 0, r0, cr3, cr4, {1}
 a84:	0b3b0b3a 	bleq	ec3774 <__bss_end__+0xeba31c>
 a88:	13490b39 	movtne	r0, #39737	; 0x9b39
 a8c:	0000061c 	andeq	r0, r0, ip, lsl r6
 a90:	3f012e09 	svccc	0x00012e09
 a94:	3a0e0319 	bcc	381700 <__bss_end__+0x3782a8>
 a98:	390b3b0b 	stmdbcc	fp, {r0, r1, r3, r8, r9, fp, ip, sp}
 a9c:	4919270b 	ldmdbmi	r9, {r0, r1, r3, r8, r9, sl, sp}
 aa0:	12011113 	andne	r1, r1, #-1073741820	; 0xc0000004
 aa4:	97184006 	ldrls	r4, [r8, -r6]
 aa8:	13011942 	movwne	r1, #6466	; 0x1942
 aac:	050a0000 	streq	r0, [sl, #-0]
 ab0:	3a080300 	bcc	2016b8 <__bss_end__+0x1f8260>
 ab4:	390b3b0b 	stmdbcc	fp, {r0, r1, r3, r8, r9, fp, ip, sp}
 ab8:	0213490b 	andseq	r4, r3, #180224	; 0x2c000
 abc:	1742b717 	smlaldne	fp, r2, r7, r7
 ac0:	890b0000 	stmdbhi	fp, {}	; <UNPREDICTABLE>
 ac4:	11010182 	smlabbne	r1, r2, r1, r0
 ac8:	00133101 	andseq	r3, r3, r1, lsl #2
 acc:	828a0c00 	addhi	r0, sl, #0, 24
 ad0:	18020001 	stmdane	r2, {r0}
 ad4:	00184291 	mulseq	r8, r1, r2
 ad8:	012e0d00 			; <UNDEFINED> instruction: 0x012e0d00
 adc:	0e03193f 			; <UNDEFINED> instruction: 0x0e03193f
 ae0:	0b3b0b3a 	bleq	ec37d0 <__bss_end__+0xeba378>
 ae4:	19270b39 	stmdbne	r7!, {r0, r3, r4, r5, r8, r9, fp}
 ae8:	06120111 			; <UNDEFINED> instruction: 0x06120111
 aec:	42971840 	addsmi	r1, r7, #64, 16	; 0x400000
 af0:	00130119 	andseq	r0, r3, r9, lsl r1
 af4:	82890e00 	addhi	r0, r9, #0, 28
 af8:	01110101 	tsteq	r1, r1, lsl #2
 afc:	13011331 	movwne	r1, #4913	; 0x1331
 b00:	890f0000 	stmdbhi	pc, {}	; <UNPREDICTABLE>
 b04:	11000182 	smlabbne	r0, r2, r1, r0
 b08:	00133101 	andseq	r3, r3, r1, lsl #2
 b0c:	00341000 	eorseq	r1, r4, r0
 b10:	0b3a0e03 	bleq	e84324 <__bss_end__+0xe7aecc>
 b14:	0b390b3b 	bleq	e43808 <__bss_end__+0xe3a3b0>
 b18:	17021349 	strne	r1, [r2, -r9, asr #6]
 b1c:	001742b7 			; <UNDEFINED> instruction: 0x001742b7
 b20:	002e1100 	eoreq	r1, lr, r0, lsl #2
 b24:	193c193f 	ldmdbne	ip!, {r0, r1, r2, r3, r4, r5, r8, fp, ip}
 b28:	0e030e6e 	cdpeq	14, 0, cr0, cr3, cr14, {3}
 b2c:	0b3b0b3a 	bleq	ec381c <__bss_end__+0xeba3c4>
 b30:	00000b39 	andeq	r0, r0, r9, lsr fp
 b34:	01110100 	tsteq	r1, r0, lsl #2
 b38:	0b130e25 	bleq	4c43d4 <__bss_end__+0x4baf7c>
 b3c:	0e1b0e03 	cdpeq	14, 1, cr0, cr11, cr3, {0}
 b40:	06120111 			; <UNDEFINED> instruction: 0x06120111
 b44:	00001710 	andeq	r1, r0, r0, lsl r7
 b48:	0b002402 	bleq	9b58 <__bss_end__+0x700>
 b4c:	030b3e0b 	movweq	r3, #48651	; 0xbe0b
 b50:	03000008 	movweq	r0, #8
 b54:	0b0b0024 	bleq	2c0bec <__bss_end__+0x2b7794>
 b58:	0e030b3e 	vmoveq.16	d3[0], r0
 b5c:	15040000 	strne	r0, [r4, #-0]
 b60:	49192701 	ldmdbmi	r9, {r0, r8, r9, sl, sp}
 b64:	00130113 	andseq	r0, r3, r3, lsl r1
 b68:	00050500 	andeq	r0, r5, r0, lsl #10
 b6c:	00001349 	andeq	r1, r0, r9, asr #6
 b70:	03003406 	movweq	r3, #1030	; 0x406
 b74:	3b0b3a0e 	blcc	2cf3b4 <__bss_end__+0x2c5f5c>
 b78:	490b390b 	stmdbmi	fp, {r0, r1, r3, r8, fp, ip, sp}
 b7c:	3c193f13 	ldccc	15, cr3, [r9], {19}
 b80:	07000019 	smladeq	r0, r9, r0, r0
 b84:	0b0b000f 	bleq	2c0bc8 <__bss_end__+0x2b7770>
 b88:	00001349 	andeq	r1, r0, r9, asr #6
 b8c:	47003408 	strmi	r3, [r0, -r8, lsl #8]
 b90:	3b0b3a13 	blcc	2cf3e4 <__bss_end__+0x2c5f8c>
 b94:	020b390b 	andeq	r3, fp, #180224	; 0x2c000
 b98:	09000018 	stmdbeq	r0, {r3, r4}
 b9c:	193f012e 	ldmdbne	pc!, {r1, r2, r3, r5, r8}	; <UNPREDICTABLE>
 ba0:	0b3a0e03 	bleq	e843b4 <__bss_end__+0xe7af5c>
 ba4:	0b390b3b 	bleq	e43898 <__bss_end__+0xe3a440>
 ba8:	01111927 	tsteq	r1, r7, lsr #18
 bac:	18400612 	stmdane	r0, {r1, r4, r9, sl}^
 bb0:	01194297 			; <UNDEFINED> instruction: 0x01194297
 bb4:	0a000013 	beq	c08 <__code_start__-0x73f8>
 bb8:	08030005 	stmdaeq	r3, {r0, r2}
 bbc:	0b3b0b3a 	bleq	ec38ac <__bss_end__+0xeba454>
 bc0:	13490b39 	movtne	r0, #39737	; 0x9b39
 bc4:	00001802 	andeq	r1, r0, r2, lsl #16
 bc8:	3f002e0b 	svccc	0x00002e0b
 bcc:	3a0e0319 	bcc	381838 <__bss_end__+0x3783e0>
 bd0:	390b3b0b 	stmdbcc	fp, {r0, r1, r3, r8, r9, fp, ip, sp}
 bd4:	1119270b 	tstne	r9, fp, lsl #14
 bd8:	40061201 	andmi	r1, r6, r1, lsl #4
 bdc:	19429718 	stmdbne	r2, {r3, r4, r8, r9, sl, ip, pc}^
 be0:	2e0c0000 	cdpcs	0, 0, cr0, cr12, cr0, {0}
 be4:	3a0e0301 	bcc	3817f0 <__bss_end__+0x378398>
 be8:	390b3b0b 	stmdbcc	fp, {r0, r1, r3, r8, r9, fp, ip, sp}
 bec:	4919270b 	ldmdbmi	r9, {r0, r1, r3, r8, r9, sl, sp}
 bf0:	12011113 	andne	r1, r1, #-1073741820	; 0xc0000004
 bf4:	97184006 	ldrls	r4, [r8, -r6]
 bf8:	13011942 	movwne	r1, #6466	; 0x1942
 bfc:	050d0000 	streq	r0, [sp, #-0]
 c00:	3a080300 	bcc	201808 <__bss_end__+0x1f83b0>
 c04:	390b3b0b 	stmdbcc	fp, {r0, r1, r3, r8, r9, fp, ip, sp}
 c08:	0213490b 	andseq	r4, r3, #180224	; 0x2c000
 c0c:	1742b717 	smlaldne	fp, r2, r7, r7
 c10:	890e0000 	stmdbhi	lr, {}	; <UNPREDICTABLE>
 c14:	11010182 	smlabbne	r1, r2, r1, r0
 c18:	00133101 	andseq	r3, r3, r1, lsl #2
 c1c:	828a0f00 	addhi	r0, sl, #0, 30
 c20:	18020001 	stmdane	r2, {r0}
 c24:	00184291 	mulseq	r8, r1, r2
 c28:	002e1000 	eoreq	r1, lr, r0
 c2c:	193c193f 	ldmdbne	ip!, {r0, r1, r2, r3, r4, r5, r8, fp, ip}
 c30:	0e030e6e 	cdpeq	14, 0, cr0, cr3, cr14, {3}
 c34:	0b3b0b3a 	bleq	ec3924 <__bss_end__+0xeba4cc>
 c38:	00000b39 	andeq	r0, r0, r9, lsr fp
 c3c:	01110100 	tsteq	r1, r0, lsl #2
 c40:	0b130e25 	bleq	4c44dc <__bss_end__+0x4bb084>
 c44:	0e1b0e03 	cdpeq	14, 1, cr0, cr11, cr3, {0}
 c48:	06120111 			; <UNDEFINED> instruction: 0x06120111
 c4c:	00001710 	andeq	r1, r0, r0, lsl r7
 c50:	0b002402 	bleq	9c60 <__bss_end__+0x808>
 c54:	030b3e0b 	movweq	r3, #48651	; 0xbe0b
 c58:	03000008 	movweq	r0, #8
 c5c:	0b0b0024 	bleq	2c0cf4 <__bss_end__+0x2b789c>
 c60:	0e030b3e 	vmoveq.16	d3[0], r0
 c64:	0f040000 	svceq	0x00040000
 c68:	490b0b00 	stmdbmi	fp, {r8, r9, fp}
 c6c:	05000013 	streq	r0, [r0, #-19]	; 0xffffffed
 c70:	13490026 	movtne	r0, #36902	; 0x9026
 c74:	2e060000 	cdpcs	0, 0, cr0, cr6, cr0, {0}
 c78:	03193f01 	tsteq	r9, #1, 30
 c7c:	3b0b3a0e 	blcc	2cf4bc <__bss_end__+0x2c6064>
 c80:	270b390b 	strcs	r3, [fp, -fp, lsl #18]
 c84:	11134919 	tstne	r3, r9, lsl r9
 c88:	40061201 	andmi	r1, r6, r1, lsl #4
 c8c:	19429718 	stmdbne	r2, {r3, r4, r8, r9, sl, ip, pc}^
 c90:	00001301 	andeq	r1, r0, r1, lsl #6
 c94:	03000507 	movweq	r0, #1287	; 0x507
 c98:	3b0b3a0e 	blcc	2cf4d8 <__bss_end__+0x2c6080>
 c9c:	490b390b 	stmdbmi	fp, {r0, r1, r3, r8, fp, ip, sp}
 ca0:	00180213 	andseq	r0, r8, r3, lsl r2
 ca4:	00050800 	andeq	r0, r5, r0, lsl #16
 ca8:	0b3a0803 	bleq	e82cbc <__bss_end__+0xe79864>
 cac:	0b390b3b 	bleq	e439a0 <__bss_end__+0xe3a548>
 cb0:	17021349 	strne	r1, [r2, -r9, asr #6]
 cb4:	001742b7 			; <UNDEFINED> instruction: 0x001742b7
 cb8:	00340900 	eorseq	r0, r4, r0, lsl #18
 cbc:	0b3a0803 	bleq	e82cd0 <__bss_end__+0xe79878>
 cc0:	0b390b3b 	bleq	e439b4 <__bss_end__+0xe3a55c>
 cc4:	17021349 	strne	r1, [r2, -r9, asr #6]
 cc8:	001742b7 			; <UNDEFINED> instruction: 0x001742b7
 ccc:	11010000 	mrsne	r0, (UNDEF: 1)
 cd0:	130e2501 	movwne	r2, #58625	; 0xe501
 cd4:	1b0e030b 	blne	381908 <__bss_end__+0x3784b0>
 cd8:	1201110e 	andne	r1, r1, #-2147483645	; 0x80000003
 cdc:	00171006 	andseq	r1, r7, r6
 ce0:	00240200 	eoreq	r0, r4, r0, lsl #4
 ce4:	0b3e0b0b 	bleq	f83918 <__bss_end__+0xf7a4c0>
 ce8:	00000803 	andeq	r0, r0, r3, lsl #16
 cec:	0b002403 	bleq	9d00 <__bss_end__+0x8a8>
 cf0:	030b3e0b 	movweq	r3, #48651	; 0xbe0b
 cf4:	0400000e 	streq	r0, [r0], #-14
 cf8:	0b0b000f 	bleq	2c0d3c <__bss_end__+0x2b78e4>
 cfc:	00001349 	andeq	r1, r0, r9, asr #6
 d00:	49002605 	stmdbmi	r0, {r0, r2, r9, sl, sp}
 d04:	06000013 			; <UNDEFINED> instruction: 0x06000013
 d08:	193f012e 	ldmdbne	pc!, {r1, r2, r3, r5, r8}	; <UNPREDICTABLE>
 d0c:	0b3a0e03 	bleq	e84520 <__bss_end__+0xe7b0c8>
 d10:	0b390b3b 	bleq	e43a04 <__bss_end__+0xe3a5ac>
 d14:	13491927 	movtne	r1, #39207	; 0x9927
 d18:	06120111 			; <UNDEFINED> instruction: 0x06120111
 d1c:	42971840 	addsmi	r1, r7, #64, 16	; 0x400000
 d20:	07000019 	smladeq	r0, r9, r0, r0
 d24:	08030005 	stmdaeq	r3, {r0, r2}
 d28:	0b3b0b3a 	bleq	ec3a18 <__bss_end__+0xeba5c0>
 d2c:	13490b39 	movtne	r0, #39737	; 0x9b39
 d30:	42b71702 	adcsmi	r1, r7, #524288	; 0x80000
 d34:	00000017 	andeq	r0, r0, r7, lsl r0
 d38:	25011101 	strcs	r1, [r1, #-257]	; 0xfffffeff
 d3c:	030b130e 	movweq	r1, #45838	; 0xb30e
 d40:	110e1b0e 	tstne	lr, lr, lsl #22
 d44:	10061201 	andne	r1, r6, r1, lsl #4
 d48:	02000017 	andeq	r0, r0, #23
 d4c:	0b0b0024 	bleq	2c0de4 <__bss_end__+0x2b798c>
 d50:	08030b3e 	stmdaeq	r3, {r1, r2, r3, r4, r5, r8, r9, fp}
 d54:	24030000 	strcs	r0, [r3], #-0
 d58:	3e0b0b00 	vmlacc.f64	d0, d11, d0
 d5c:	000e030b 	andeq	r0, lr, fp, lsl #6
 d60:	000f0400 	andeq	r0, pc, r0, lsl #8
 d64:	13490b0b 	movtne	r0, #39691	; 0x9b0b
 d68:	26050000 	strcs	r0, [r5], -r0
 d6c:	00134900 	andseq	r4, r3, r0, lsl #18
 d70:	012e0600 			; <UNDEFINED> instruction: 0x012e0600
 d74:	0e03193f 			; <UNDEFINED> instruction: 0x0e03193f
 d78:	0b3b0b3a 	bleq	ec3a68 <__bss_end__+0xeba610>
 d7c:	19270b39 	stmdbne	r7!, {r0, r3, r4, r5, r8, r9, fp}
 d80:	01111349 	tsteq	r1, r9, asr #6
 d84:	18400612 	stmdane	r0, {r1, r4, r9, sl}^
 d88:	01194297 			; <UNDEFINED> instruction: 0x01194297
 d8c:	07000013 	smladeq	r0, r3, r0, r0
 d90:	08030005 	stmdaeq	r3, {r0, r2}
 d94:	0b3b0b3a 	bleq	ec3a84 <__bss_end__+0xeba62c>
 d98:	13490b39 	movtne	r0, #39737	; 0x9b39
 d9c:	00001802 	andeq	r1, r0, r2, lsl #16
 da0:	03000508 	movweq	r0, #1288	; 0x508
 da4:	3b0b3a08 	blcc	2cf5cc <__bss_end__+0x2c6174>
 da8:	490b390b 	stmdbmi	fp, {r0, r1, r3, r8, fp, ip, sp}
 dac:	b7170213 			; <UNDEFINED> instruction: 0xb7170213
 db0:	00001742 	andeq	r1, r0, r2, asr #14
 db4:	03003409 	movweq	r3, #1033	; 0x409
 db8:	3b0b3a08 	blcc	2cf5e0 <__bss_end__+0x2c6188>
 dbc:	490b390b 	stmdbmi	fp, {r0, r1, r3, r8, fp, ip, sp}
 dc0:	b7170213 			; <UNDEFINED> instruction: 0xb7170213
 dc4:	00001742 	andeq	r1, r0, r2, asr #14
 dc8:	01110100 	tsteq	r1, r0, lsl #2
 dcc:	0b130e25 	bleq	4c4668 <__bss_end__+0x4bb210>
 dd0:	0e1b0e03 	cdpeq	14, 1, cr0, cr11, cr3, {0}
 dd4:	01111755 	tsteq	r1, r5, asr r7
 dd8:	00001710 	andeq	r1, r0, r0, lsl r7
 ddc:	0b002402 	bleq	9dec <__bss_end__+0x994>
 de0:	030b3e0b 	movweq	r3, #48651	; 0xbe0b
 de4:	03000008 	movweq	r0, #8
 de8:	0e030016 	mcreq	0, 0, r0, cr3, cr6, {0}
 dec:	0b3b0b3a 	bleq	ec3adc <__bss_end__+0xeba684>
 df0:	13490b39 	movtne	r0, #39737	; 0x9b39
 df4:	24040000 	strcs	r0, [r4], #-0
 df8:	3e0b0b00 	vmlacc.f64	d0, d11, d0
 dfc:	000e030b 	andeq	r0, lr, fp, lsl #6
 e00:	00260500 	eoreq	r0, r6, r0, lsl #10
 e04:	00001349 	andeq	r1, r0, r9, asr #6
 e08:	0b000f06 	bleq	4a28 <__code_start__-0x35d8>
 e0c:	0013490b 	andseq	r4, r3, fp, lsl #18
 e10:	012e0700 			; <UNDEFINED> instruction: 0x012e0700
 e14:	0e03193f 			; <UNDEFINED> instruction: 0x0e03193f
 e18:	0b3b0b3a 	bleq	ec3b08 <__bss_end__+0xeba6b0>
 e1c:	19270b39 	stmdbne	r7!, {r0, r3, r4, r5, r8, r9, fp}
 e20:	01111349 	tsteq	r1, r9, asr #6
 e24:	18400612 	stmdane	r0, {r1, r4, r9, sl}^
 e28:	01194297 			; <UNDEFINED> instruction: 0x01194297
 e2c:	08000013 	stmdaeq	r0, {r0, r1, r4}
 e30:	08030005 	stmdaeq	r3, {r0, r2}
 e34:	0b3b0b3a 	bleq	ec3b24 <__bss_end__+0xeba6cc>
 e38:	13490b39 	movtne	r0, #39737	; 0x9b39
 e3c:	42b71702 	adcsmi	r1, r7, #524288	; 0x80000
 e40:	09000017 	stmdbeq	r0, {r0, r1, r2, r4}
 e44:	08030034 	stmdaeq	r3, {r2, r4, r5}
 e48:	0b3b0b3a 	bleq	ec3b38 <__bss_end__+0xeba6e0>
 e4c:	13490b39 	movtne	r0, #39737	; 0x9b39
 e50:	42b71702 	adcsmi	r1, r7, #524288	; 0x80000
 e54:	00000017 	andeq	r0, r0, r7, lsl r0
 e58:	25011101 	strcs	r1, [r1, #-257]	; 0xfffffeff
 e5c:	030b130e 	movweq	r1, #45838	; 0xb30e
 e60:	110e1b0e 	tstne	lr, lr, lsl #22
 e64:	10061201 	andne	r1, r6, r1, lsl #4
 e68:	02000017 	andeq	r0, r0, #23
 e6c:	0b0b0024 	bleq	2c0f04 <__bss_end__+0x2b7aac>
 e70:	08030b3e 	stmdaeq	r3, {r1, r2, r3, r4, r5, r8, r9, fp}
 e74:	24030000 	strcs	r0, [r3], #-0
 e78:	3e0b0b00 	vmlacc.f64	d0, d11, d0
 e7c:	000e030b 	andeq	r0, lr, fp, lsl #6
 e80:	002e0400 	eoreq	r0, lr, r0, lsl #8
 e84:	0e03193f 			; <UNDEFINED> instruction: 0x0e03193f
 e88:	0b3b0b3a 	bleq	ec3b78 <__bss_end__+0xeba720>
 e8c:	19270b39 	stmdbne	r7!, {r0, r3, r4, r5, r8, r9, fp}
 e90:	06120111 			; <UNDEFINED> instruction: 0x06120111
 e94:	42971840 	addsmi	r1, r7, #64, 16	; 0x400000
 e98:	00000019 	andeq	r0, r0, r9, lsl r0

Disassembly of section .debug_aranges:

00000000 <.debug_aranges>:
   0:	0000001c 	andeq	r0, r0, ip, lsl r0
   4:	00000002 	andeq	r0, r0, r2
   8:	00040000 	andeq	r0, r4, r0
   c:	00000000 	andeq	r0, r0, r0
  10:	00008038 	andeq	r8, r0, r8, lsr r0
  14:	00000018 	andeq	r0, r0, r8, lsl r0
	...
  20:	0000001c 	andeq	r0, r0, ip, lsl r0
  24:	00be0002 	adcseq	r0, lr, r2
  28:	00040000 	andeq	r0, r4, r0
  2c:	00000000 	andeq	r0, r0, r0
  30:	00008050 	andeq	r8, r0, r0, asr r0
  34:	00000354 	andeq	r0, r0, r4, asr r3
	...
  40:	0000001c 	andeq	r0, r0, ip, lsl r0
  44:	0a7c0002 	beq	1f00054 <__bss_end__+0x1ef6bfc>
  48:	00040000 	andeq	r0, r4, r0
  4c:	00000000 	andeq	r0, r0, r0
  50:	000083a4 	andeq	r8, r0, r4, lsr #7
  54:	00000058 	andeq	r0, r0, r8, asr r0
	...
  60:	0000001c 	andeq	r0, r0, ip, lsl r0
  64:	0bfc0002 	bleq	fff00074 <__bss_end__+0xffef6c1c>
  68:	00040000 	andeq	r0, r4, r0
  6c:	00000000 	andeq	r0, r0, r0
  70:	000083fc 	strdeq	r8, [r0], -ip
  74:	00000034 	andeq	r0, r0, r4, lsr r0
	...
  80:	0000001c 	andeq	r0, r0, ip, lsl r0
  84:	0cf30002 	ldcleq	0, cr0, [r3], #8
  88:	00040000 	andeq	r0, r4, r0
  8c:	00000000 	andeq	r0, r0, r0
  90:	00008430 	andeq	r8, r0, r0, lsr r4
  94:	00000728 	andeq	r0, r0, r8, lsr #14
	...
  a0:	0000001c 	andeq	r0, r0, ip, lsl r0
  a4:	172c0002 	strne	r0, [ip, -r2]!
  a8:	00040000 	andeq	r0, r4, r0
  ac:	00000000 	andeq	r0, r0, r0
  b0:	00008b58 	andeq	r8, r0, r8, asr fp
  b4:	0000002c 	andeq	r0, r0, ip, lsr #32
	...
  c0:	0000001c 	andeq	r0, r0, ip, lsl r0
  c4:	183e0002 	ldmdane	lr!, {r1}
  c8:	00040000 	andeq	r0, r4, r0
  cc:	00000000 	andeq	r0, r0, r0
  d0:	00008b84 	andeq	r8, r0, r4, lsl #23
  d4:	00000040 	andeq	r0, r0, r0, asr #32
	...
  e0:	0000001c 	andeq	r0, r0, ip, lsl r0
  e4:	197e0002 	ldmdbne	lr!, {r1}^
  e8:	00040000 	andeq	r0, r4, r0
  ec:	00000000 	andeq	r0, r0, r0
  f0:	00008bc4 	andeq	r8, r0, r4, asr #23
  f4:	00000004 	andeq	r0, r0, r4
	...
 100:	0000001c 	andeq	r0, r0, ip, lsl r0
 104:	1a030002 	bne	c0114 <__bss_end__+0xb6cbc>
 108:	00040000 	andeq	r0, r4, r0
 10c:	00000000 	andeq	r0, r0, r0
 110:	00008bc8 	andeq	r8, r0, r8, asr #23
 114:	00000080 	andeq	r0, r0, r0, lsl #1
	...
 120:	0000001c 	andeq	r0, r0, ip, lsl r0
 124:	1bf00002 	blne	ffc00134 <__bss_end__+0xffbf6cdc>
 128:	00040000 	andeq	r0, r4, r0
 12c:	00000000 	andeq	r0, r0, r0
 130:	00008c48 	andeq	r8, r0, r8, asr #24
 134:	00000084 	andeq	r0, r0, r4, lsl #1
	...
 140:	0000001c 	andeq	r0, r0, ip, lsl r0
 144:	1df40002 	ldclne	0, cr0, [r4, #8]!
 148:	00040000 	andeq	r0, r4, r0
 14c:	00000000 	andeq	r0, r0, r0
 150:	00008ccc 	andeq	r8, r0, ip, asr #25
 154:	000000e8 	andeq	r0, r0, r8, ror #1
	...
 160:	0000001c 	andeq	r0, r0, ip, lsl r0
 164:	21660002 	cmncs	r6, r2
 168:	00040000 	andeq	r0, r4, r0
 16c:	00000000 	andeq	r0, r0, r0
 170:	00008db4 			; <UNDEFINED> instruction: 0x00008db4
 174:	0000003c 	andeq	r0, r0, ip, lsr r0
	...
 180:	0000001c 	andeq	r0, r0, ip, lsl r0
 184:	22870002 	addcs	r0, r7, #2
 188:	00040000 	andeq	r0, r4, r0
 18c:	00000000 	andeq	r0, r0, r0
 190:	00008df0 	strdeq	r8, [r0], -r0
 194:	00000034 	andeq	r0, r0, r4, lsr r0
	...
 1a0:	0000001c 	andeq	r0, r0, ip, lsl r0
 1a4:	23800002 	orrcs	r0, r0, #2
 1a8:	00040000 	andeq	r0, r4, r0
 1ac:	00000000 	andeq	r0, r0, r0
 1b0:	00008e24 	andeq	r8, r0, r4, lsr #28
 1b4:	00000030 	andeq	r0, r0, r0, lsr r0
	...
 1c0:	0000001c 	andeq	r0, r0, ip, lsl r0
 1c4:	24390002 	ldrtcs	r0, [r9], #-2
 1c8:	00040000 	andeq	r0, r4, r0
 1cc:	00000000 	andeq	r0, r0, r0
 1d0:	00008e54 	andeq	r8, r0, r4, asr lr
 1d4:	00000020 	andeq	r0, r0, r0, lsr #32
	...
 1e0:	0000001c 	andeq	r0, r0, ip, lsl r0
 1e4:	250a0002 	strcs	r0, [sl, #-2]
 1e8:	00040000 	andeq	r0, r4, r0
 1ec:	00000000 	andeq	r0, r0, r0
 1f0:	00008e74 	andeq	r8, r0, r4, ror lr
 1f4:	0000002c 	andeq	r0, r0, ip, lsr #32
	...
 200:	0000001c 	andeq	r0, r0, ip, lsl r0
 204:	261a0002 	ldrcs	r0, [sl], -r2
 208:	00040000 	andeq	r0, r4, r0
 20c:	00000000 	andeq	r0, r0, r0
 210:	00008ea0 	andeq	r8, r0, r0, lsr #29
 214:	00000004 	andeq	r0, r0, r4
	...

Disassembly of section .debug_line:

00000000 <.debug_line>:
       0:	0000007c 	andeq	r0, r0, ip, ror r0
       4:	00510003 	subseq	r0, r1, r3
       8:	01020000 	mrseq	r0, (UNDEF: 2)
       c:	000d0efb 	strdeq	r0, [sp], -fp
      10:	01010101 	tsteq	r1, r1, lsl #2
      14:	01000000 	mrseq	r0, (UNDEF: 0)
      18:	2f010000 	svccs	0x00010000
      1c:	2f74706f 	svccs	0x0074706f
      20:	65303431 	ldrvs	r3, [r0, #-1073]!	; 0xfffffbcf
      24:	3173632f 	cmncc	r3, pc, lsr #6
      28:	2d653034 	stclcs	0, cr3, [r5, #-208]!	; 0xffffff30
      2c:	69773232 	ldmdbvs	r7!, {r1, r4, r5, r9, ip, sp}^
      30:	696c2f6e 	stmdbvs	ip!, {r1, r2, r3, r5, r6, r8, r9, sl, fp, sp}^
      34:	2f697062 	svccs	0x00697062
      38:	6c636e69 	stclvs	14, cr6, [r3], #-420	; 0xfffffe5c
      3c:	00656475 	rsbeq	r6, r5, r5, ror r4
      40:	65683100 	strbvs	r3, [r8, #-256]!	; 0xffffff00
      44:	2d6f6c6c 	stclcs	12, cr6, [pc, #-432]!	; fffffe9c <__bss_end__+0xffff6a44>
      48:	2e666e69 	cdpcs	14, 6, cr6, cr6, cr9, {3}
      4c:	00000063 	andeq	r0, r0, r3, rrx
      50:	69707200 	ldmdbvs	r0!, {r9, ip, sp, lr}^
      54:	0100682e 	tsteq	r0, lr, lsr #16
      58:	05000000 	streq	r0, [r0, #-0]
      5c:	02050014 	andeq	r0, r5, #20
      60:	00008038 	andeq	r8, r0, r8, lsr r0
      64:	2f020517 	svccs	0x00020517
      68:	01040200 	mrseq	r0, R12_usr
      6c:	0003052f 	andeq	r0, r3, pc, lsr #10
      70:	13010402 	movwne	r0, #5122	; 0x1402
      74:	02000705 	andeq	r0, r0, #1310720	; 0x140000
      78:	02490104 	subeq	r0, r9, #4, 2
      7c:	01010004 	tsteq	r1, r4
      80:	0000031d 	andeq	r0, r0, sp, lsl r3
      84:	00b90003 	adcseq	r0, r9, r3
      88:	01020000 	mrseq	r0, (UNDEF: 2)
      8c:	000d0efb 	strdeq	r0, [sp], -fp
      90:	01010101 	tsteq	r1, r1, lsl #2
      94:	01000000 	mrseq	r0, (UNDEF: 0)
      98:	2e010000 	cdpcs	0, 0, cr0, cr1, cr0, {0}
      9c:	6372732f 	cmnvs	r2, #-1140850688	; 0xbc000000
      a0:	706f2f00 	rsbvc	r2, pc, r0, lsl #30
      a4:	34312f74 	ldrtcc	r2, [r1], #-3956	; 0xfffff08c
      a8:	672f6530 			; <UNDEFINED> instruction: 0x672f6530
      ac:	612d6363 			; <UNDEFINED> instruction: 0x612d6363
      b0:	6e2d6d72 	mcrvs	13, 1, r6, cr13, cr2, {3}
      b4:	2d656e6f 	stclcs	14, cr6, [r5, #-444]!	; 0xfffffe44
      b8:	69626165 	stmdbvs	r2!, {r0, r2, r5, r6, r8, sp, lr}^
      bc:	2e30312d 	rsfcssp	f3, f0, #5.0
      c0:	30322d33 	eorscc	r2, r2, r3, lsr sp
      c4:	312e3132 			; <UNDEFINED> instruction: 0x312e3132
      c8:	696c2f30 	stmdbvs	ip!, {r4, r5, r8, r9, sl, fp, sp}^
      cc:	63672f62 	cmnvs	r7, #392	; 0x188
      d0:	72612f63 	rsbvc	r2, r1, #396	; 0x18c
      d4:	6f6e2d6d 	svcvs	0x006e2d6d
      d8:	652d656e 	strvs	r6, [sp, #-1390]!	; 0xfffffa92
      dc:	2f696261 	svccs	0x00696261
      e0:	332e3031 			; <UNDEFINED> instruction: 0x332e3031
      e4:	692f312e 	stmdbvs	pc!, {r1, r2, r3, r5, r8, ip, sp}	; <UNPREDICTABLE>
      e8:	756c636e 	strbvc	r6, [ip, #-878]!	; 0xfffffc92
      ec:	2f006564 	svccs	0x00006564
      f0:	2f74706f 	svccs	0x0074706f
      f4:	65303431 	ldrvs	r3, [r0, #-1073]!	; 0xfffffbcf
      f8:	3173632f 	cmncc	r3, pc, lsr #6
      fc:	2d653034 	stclcs	0, cr3, [r5, #-208]!	; 0xffffff30
     100:	69773232 	ldmdbvs	r7!, {r1, r4, r5, r9, ip, sp}^
     104:	696c2f6e 	stmdbvs	ip!, {r1, r2, r3, r5, r6, r8, r9, sl, fp, sp}^
     108:	2f697062 	svccs	0x00697062
     10c:	6c636e69 	stclvs	14, cr6, [r3], #-420	; 0xfffffe5c
     110:	00656475 	rsbeq	r6, r5, r5, ror r4
     114:	72617500 	rsbvc	r7, r1, #0, 10
     118:	00632e74 	rsbeq	r2, r3, r4, ror lr
     11c:	73000001 	movwvc	r0, #1
     120:	6e696474 	mcrvs	4, 3, r6, cr9, cr4, {3}
     124:	63672d74 	cmnvs	r7, #116, 26	; 0x1d00
     128:	00682e63 	rsbeq	r2, r8, r3, ror #28
     12c:	72000002 	andvc	r0, r0, #2
     130:	682e6970 	stmdavs	lr!, {r4, r5, r6, r8, fp, sp, lr}
     134:	00000300 	andeq	r0, r0, r0, lsl #6
     138:	6f697067 	svcvs	0x00697067
     13c:	0300682e 	movweq	r6, #2094	; 0x82e
     140:	05000000 	streq	r0, [r0, #-0]
     144:	02050020 	andeq	r0, r5, #32
     148:	00008050 	andeq	r8, r0, r0, asr r0
     14c:	0102fd03 	tsteq	r2, r3, lsl #26	; <UNPREDICTABLE>
     150:	05510505 	ldrbeq	r0, [r1, #-1285]	; 0xfffffafb
     154:	05010614 	streq	r0, [r1, #-1556]	; 0xfffff9ec
     158:	05670605 	strbeq	r0, [r7, #-1541]!	; 0xfffff9fb
     15c:	05010612 	streq	r0, [r1, #-1554]	; 0xfffff9ee
     160:	05054a0e 	streq	r4, [r5, #-2574]	; 0xfffff5f2
     164:	02052f06 	andeq	r2, r5, #6, 30
     168:	06100513 			; <UNDEFINED> instruction: 0x06100513
     16c:	2f010501 	svccs	0x00010501
     170:	03061605 	movweq	r1, #26117	; 0x6605
     174:	0505ba43 	streq	fp, [r5, #-2627]	; 0xfffff5bd
     178:	0614052f 	ldreq	r0, [r4], -pc, lsr #10
     17c:	06050501 	streq	r0, [r5], -r1, lsl #10
     180:	05696768 	strbeq	r6, [r9, #-1896]!	; 0xfffff898
     184:	0501063e 	streq	r0, [r1, #-1598]	; 0xfffff9c2
     188:	1c052e1e 	stcne	14, cr2, [r5], {30}
     18c:	0605054a 	streq	r0, [r5], -sl, asr #10
     190:	0613052f 	ldreq	r0, [r3], -pc, lsr #10
     194:	2e2f0501 	cfsh64cs	mvdx0, mvdx15, #1
     198:	83060505 	movwhi	r0, #25861	; 0x6505
     19c:	063f054d 	ldrteq	r0, [pc], -sp, asr #10
     1a0:	2e1f0501 	cfmul32cs	mvfx0, mvfx15, mvfx1
     1a4:	054a1d05 	strbeq	r1, [sl, #-3333]	; 0xfffff2fb
     1a8:	052f0605 	streq	r0, [pc, #-1541]!	; fffffbab <__bss_end__+0xffff6753>
     1ac:	05010613 	streq	r0, [r1, #-1555]	; 0xfffff9ed
     1b0:	05052e33 	streq	r2, [r5, #-3635]	; 0xfffff1cd
     1b4:	33056706 	movwcc	r6, #22278	; 0x5706
     1b8:	05050106 	streq	r0, [r5, #-262]	; 0xfffffefa
     1bc:	054d8306 	strbeq	r8, [sp, #-774]	; 0xfffffcfa
     1c0:	0501063e 	streq	r0, [r1, #-1598]	; 0xfffff9c2
     1c4:	1c052e1e 	stcne	14, cr2, [r5], {30}
     1c8:	0605054a 	streq	r0, [r5], -sl, asr #10
     1cc:	0613052f 	ldreq	r0, [r3], -pc, lsr #10
     1d0:	2e340501 	cdpcs	5, 3, cr0, cr4, cr1, {0}
     1d4:	67060505 	strvs	r0, [r6, -r5, lsl #10]
     1d8:	01063405 	tsteq	r6, r5, lsl #8
     1dc:	83060505 	movwhi	r0, #25861	; 0x6505
     1e0:	063e054d 	ldrteq	r0, [lr], -sp, asr #10
     1e4:	2e1e0501 	cfmul32cs	mvfx0, mvfx14, mvfx1
     1e8:	054a1c05 	strbeq	r1, [sl, #-3077]	; 0xfffff3fb
     1ec:	052f0605 	streq	r0, [pc, #-1541]!	; fffffbef <__bss_end__+0xffff6797>
     1f0:	05010613 	streq	r0, [r1, #-1555]	; 0xfffff9ed
     1f4:	05052e35 	streq	r2, [r5, #-3637]	; 0xfffff1cb
     1f8:	35056706 	strcc	r6, [r5, #-1798]	; 0xfffff8fa
     1fc:	05050106 	streq	r0, [r5, #-262]	; 0xfffffefa
     200:	05508306 	ldrbeq	r8, [r0, #-774]	; 0xfffffcfa
     204:	0501063f 	streq	r0, [r1, #-1599]	; 0xfffff9c1
     208:	1d052e1f 	stcne	14, cr2, [r5, #-124]	; 0xffffff84
     20c:	0605054a 	streq	r0, [r5], -sl, asr #10
     210:	0613052f 	ldreq	r0, [r3], -pc, lsr #10
     214:	2e2e0501 	cfsh64cs	mvdx0, mvdx14, #1
     218:	67060505 	strvs	r0, [r6, -r5, lsl #10]
     21c:	063e054d 	ldrteq	r0, [lr], -sp, asr #10
     220:	2e1e0501 	cfmul32cs	mvfx0, mvfx14, mvfx1
     224:	054a1c05 	strbeq	r1, [sl, #-3077]	; 0xfffff3fb
     228:	052f0605 	streq	r0, [pc, #-1541]!	; fffffc2b <__bss_end__+0xffff67d3>
     22c:	05010613 	streq	r0, [r1, #-1555]	; 0xfffff9ed
     230:	05052e31 	streq	r2, [r5, #-3633]	; 0xfffff1cf
     234:	054d8306 	strbeq	r8, [sp, #-774]	; 0xfffffcfa
     238:	0501063f 	streq	r0, [r1, #-1599]	; 0xfffff9c1
     23c:	1d052e1f 	stcne	14, cr2, [r5, #-124]	; 0xffffff84
     240:	0605054a 	streq	r0, [r5], -sl, asr #10
     244:	0613052f 	ldreq	r0, [r3], -pc, lsr #10
     248:	2e330501 	cdpcs	5, 3, cr0, cr3, cr1, {0}
     24c:	67060505 	strvs	r0, [r6, -r5, lsl #10]
     250:	01063305 	tsteq	r6, r5, lsl #6
     254:	83060505 	movwhi	r0, #25861	; 0x6505
     258:	4b060105 	blmi	180674 <__bss_end__+0x17721c>
     25c:	03061505 	movweq	r1, #25861	; 0x6505
     260:	05058212 	streq	r8, [r5, #-530]	; 0xfffffdee
     264:	0614052f 	ldreq	r0, [r4], -pc, lsr #10
     268:	06050501 	streq	r0, [r5], -r1, lsl #10
     26c:	00090567 	andeq	r0, r9, r7, ror #10
     270:	13010402 	movwne	r0, #5122	; 0x1402
     274:	02000b05 	andeq	r0, r0, #5120	; 0x1400
     278:	05110104 	ldreq	r0, [r1, #-260]	; 0xfffffefc
     27c:	0402000d 	streq	r0, [r2], #-13
     280:	05010601 	streq	r0, [r1, #-1537]	; 0xfffff9ff
     284:	0402000b 	streq	r0, [r2], #-11
     288:	05052e01 	streq	r2, [r5, #-3585]	; 0xfffff1ff
     28c:	32054c06 	andcc	r4, r5, #1536	; 0x600
     290:	12050106 	andne	r0, r5, #-2147483647	; 0x80000001
     294:	0605054a 	streq	r0, [r5], -sl, asr #10
     298:	1302054b 	movwne	r0, #9547	; 0x254b
     29c:	13060105 	movwne	r0, #24837	; 0x6105
     2a0:	85061905 	strhi	r1, [r6, #-2309]	; 0xfffff6fb
     2a4:	054b0505 	strbeq	r0, [fp, #-1285]	; 0xfffffafb
     2a8:	05010614 	streq	r0, [r1, #-1556]	; 0xfffff9ec
     2ac:	05670605 	strbeq	r0, [r7, #-1541]!	; 0xfffff9fb
     2b0:	05010612 	streq	r0, [r1, #-1554]	; 0xfffff9ee
     2b4:	05054a0e 	streq	r4, [r5, #-2574]	; 0xfffff5f2
     2b8:	02052f06 	andeq	r2, r5, #6, 30
     2bc:	06100513 			; <UNDEFINED> instruction: 0x06100513
     2c0:	4b010501 	blmi	416cc <__bss_end__+0x38274>
     2c4:	be061c05 	cdplt	12, 0, cr1, cr6, cr5, {0}
     2c8:	05050106 	streq	r0, [r5, #-262]	; 0xfffffefa
     2cc:	14054b06 	strne	r4, [r5], #-2822	; 0xfffff4fa
     2d0:	05050106 	streq	r0, [r5, #-262]	; 0xfffffefa
     2d4:	09056706 	stmdbeq	r5, {r1, r2, r8, r9, sl, sp, lr}
     2d8:	01040200 	mrseq	r0, R12_usr
     2dc:	000b0513 	andeq	r0, fp, r3, lsl r5
     2e0:	11010402 	tstne	r1, r2, lsl #8
     2e4:	02000d05 	andeq	r0, r0, #320	; 0x140
     2e8:	01060104 	tsteq	r6, r4, lsl #2
     2ec:	02000b05 	andeq	r0, r0, #5120	; 0x1400
     2f0:	052e0104 	streq	r0, [lr, #-260]!	; 0xfffffefc
     2f4:	054c0605 	strbeq	r0, [ip, #-1541]	; 0xfffff9fb
     2f8:	05010625 	streq	r0, [r1, #-1573]	; 0xfffff9db
     2fc:	01054a05 	tsteq	r5, r5, lsl #20
     300:	06190567 	ldreq	r0, [r9], -r7, ror #10
     304:	2f05056b 	svccs	0x0005056b
     308:	01060c05 	tsteq	r6, r5, lsl #24
     30c:	052f0105 	streq	r0, [pc, #-261]!	; 20f <__code_start__-0x7df1>
     310:	0531061b 	ldreq	r0, [r1, #-1563]!	; 0xfffff9e5
     314:	09052f05 	stmdbeq	r5, {r0, r2, r8, r9, sl, fp, sp}
     318:	07050106 	streq	r0, [r5, -r6, lsl #2]
     31c:	0605052e 	streq	r0, [r5], -lr, lsr #10
     320:	060c054c 	streq	r0, [ip], -ip, asr #10
     324:	49100501 	ldmdbmi	r0, {r0, r8, sl}
     328:	05300105 	ldreq	r0, [r0, #-261]!	; 0xfffffefb
     32c:	0531061c 	ldreq	r0, [r1, #-1564]!	; 0xfffff9e4
     330:	14054b05 	strne	r4, [r5], #-2821	; 0xfffff4fb
     334:	05050106 	streq	r0, [r5, #-262]	; 0xfffffefa
     338:	12056706 	andne	r6, r5, #1572864	; 0x180000
     33c:	0e050106 	adfeqs	f0, f5, f6
     340:	0605054a 	streq	r0, [r5], -sl, asr #10
     344:	1302052f 	movwne	r0, #9519	; 0x252f
     348:	01061005 	tsteq	r6, r5
     34c:	052f0105 	streq	r0, [pc, #-261]!	; 24f <__code_start__-0x7db1>
     350:	05bc061a 	ldreq	r0, [ip, #1562]!	; 0x61a
     354:	04020009 	streq	r0, [r2], #-9
     358:	0a053001 	beq	14c364 <__bss_end__+0x142f0c>
     35c:	01040200 	mrseq	r0, R12_usr
     360:	000c0511 	andeq	r0, ip, r1, lsl r5
     364:	06010402 	streq	r0, [r1], -r2, lsl #8
     368:	000a0501 	andeq	r0, sl, r1, lsl #10
     36c:	2e010402 	cdpcs	4, 0, cr0, cr1, cr2, {0}
     370:	6c060105 	stfvss	f0, [r6], {5}
     374:	052f0505 	streq	r0, [pc, #-1285]!	; fffffe77 <__bss_end__+0xffff6a1f>
     378:	0501063f 	streq	r0, [r1, #-1599]	; 0xfffff9c1
     37c:	1d054a1f 	vstrne	s8, [r5, #-124]	; 0xffffff84
     380:	0605054a 	streq	r0, [r5], -sl, asr #10
     384:	0613052f 	ldreq	r0, [r3], -pc, lsr #10
     388:	2e330501 	cdpcs	5, 3, cr0, cr3, cr1, {0}
     38c:	67060505 	strvs	r0, [r6, -r5, lsl #10]
     390:	01063305 	tsteq	r6, r5, lsl #6
     394:	83060505 	movwhi	r0, #25861	; 0x6505
     398:	4b060105 	blmi	1807b4 <__bss_end__+0x17735c>
     39c:	01000402 	tsteq	r0, r2, lsl #8
     3a0:	0000fd01 	andeq	pc, r0, r1, lsl #26
     3a4:	cb000300 	blgt	fac <__code_start__-0x7054>
     3a8:	02000000 	andeq	r0, r0, #0
     3ac:	0d0efb01 	vstreq	d15, [lr, #-4]
     3b0:	01010100 	mrseq	r0, (UNDEF: 17)
     3b4:	00000001 	andeq	r0, r0, r1
     3b8:	01000001 	tsteq	r0, r1
     3bc:	696c2f2e 	stmdbvs	ip!, {r1, r2, r3, r5, r8, r9, sl, fp, sp}^
     3c0:	2f006362 	svccs	0x00006362
     3c4:	2f74706f 	svccs	0x0074706f
     3c8:	65303431 	ldrvs	r3, [r0, #-1073]!	; 0xfffffbcf
     3cc:	6363672f 	cmnvs	r3, #12320768	; 0xbc0000
     3d0:	6d72612d 	ldfvse	f6, [r2, #-180]!	; 0xffffff4c
     3d4:	6e6f6e2d 	cdpvs	14, 6, cr6, cr15, cr13, {1}
     3d8:	61652d65 	cmnvs	r5, r5, ror #26
     3dc:	312d6962 			; <UNDEFINED> instruction: 0x312d6962
     3e0:	2d332e30 	ldccs	14, cr2, [r3, #-192]!	; 0xffffff40
     3e4:	31323032 	teqcc	r2, r2, lsr r0
     3e8:	2f30312e 	svccs	0x0030312e
     3ec:	2f62696c 	svccs	0x0062696c
     3f0:	2f636367 	svccs	0x00636367
     3f4:	2d6d7261 	sfmcs	f7, 2, [sp, #-388]!	; 0xfffffe7c
     3f8:	656e6f6e 	strbvs	r6, [lr, #-3950]!	; 0xfffff092
     3fc:	6261652d 	rsbvs	r6, r1, #188743680	; 0xb400000
     400:	30312f69 	eorscc	r2, r1, r9, ror #30
     404:	312e332e 			; <UNDEFINED> instruction: 0x312e332e
     408:	636e692f 	cmnvs	lr, #770048	; 0xbc000
     40c:	6564756c 	strbvs	r7, [r4, #-1388]!	; 0xfffffa94
     410:	706f2f00 	rsbvc	r2, pc, r0, lsl #30
     414:	34312f74 	ldrtcc	r2, [r1], #-3956	; 0xfffff08c
     418:	632f6530 			; <UNDEFINED> instruction: 0x632f6530
     41c:	30343173 	eorscc	r3, r4, r3, ror r1
     420:	32322d65 	eorscc	r2, r2, #6464	; 0x1940
     424:	2f6e6977 	svccs	0x006e6977
     428:	7062696c 	rsbvc	r6, r2, ip, ror #18
     42c:	6e692f69 	cdpvs	15, 6, cr2, cr9, cr9, {3}
     430:	64756c63 	ldrbtvs	r6, [r5], #-3171	; 0xfffff39d
     434:	70000065 	andvc	r0, r0, r5, rrx
     438:	746e6972 	strbtvc	r6, [lr], #-2418	; 0xfffff68e
     43c:	00632e6b 	rsbeq	r2, r3, fp, ror #28
     440:	73000001 	movwvc	r0, #1
     444:	72616474 	rsbvc	r6, r1, #116, 8	; 0x74000000
     448:	00682e67 	rsbeq	r2, r8, r7, ror #28
     44c:	3c000002 	stccc	0, cr0, [r0], {2}
     450:	6c697562 	cfstr64vs	mvdx7, [r9], #-392	; 0xfffffe78
     454:	6e692d74 	mcrvs	13, 3, r2, cr9, cr4, {3}
     458:	0000003e 	andeq	r0, r0, lr, lsr r0
     45c:	69707200 	ldmdbvs	r0!, {r9, ip, sp, lr}^
     460:	0300682e 	movweq	r6, #2094	; 0x82e
     464:	61760000 	cmnvs	r6, r0
     468:	6972702d 	ldmdbvs	r2!, {r0, r2, r3, r5, ip, sp, lr}^
     46c:	2e6b746e 	cdpcs	4, 6, cr7, cr11, cr14, {3}
     470:	00010068 	andeq	r0, r1, r8, rrx
     474:	22050000 	andcs	r0, r5, #0
     478:	a4020500 	strge	r0, [r2], #-1280	; 0xfffffb00
     47c:	17000083 	strne	r0, [r0, -r3, lsl #1]
     480:	05050106 	streq	r0, [r5, #-262]	; 0xfffffefa
     484:	14136806 	ldrne	r6, [r3], #-2054	; 0xfffff7fa
     488:	054b0905 	strbeq	r0, [fp, #-2309]	; 0xfffff6fb
     48c:	05010612 	streq	r0, [r1, #-1554]	; 0xfffff9ee
     490:	16bb0605 	ldrtne	r0, [fp], r5, lsl #12
     494:	34066606 	strcc	r6, [r6], #-1542	; 0xfffff9fa
     498:	13060105 	movwne	r0, #24837	; 0x6105
     49c:	00080266 	andeq	r0, r8, r6, ror #4
     4a0:	00990101 	addseq	r0, r9, r1, lsl #2
     4a4:	00030000 	andeq	r0, r3, r0
     4a8:	00000052 	andeq	r0, r0, r2, asr r0
     4ac:	0efb0102 	cdpeq	1, 15, cr0, cr11, cr2, {0}
     4b0:	0101000d 	tsteq	r1, sp
     4b4:	00000101 	andeq	r0, r0, r1, lsl #2
     4b8:	00000100 	andeq	r0, r0, r0, lsl #2
     4bc:	6c2f2e01 	stcvs	14, cr2, [pc], #-4	; 4c0 <__code_start__-0x7b40>
     4c0:	00636269 	rsbeq	r6, r3, r9, ror #4
     4c4:	74706f2f 	ldrbtvc	r6, [r0], #-3887	; 0xfffff0d1
     4c8:	3034312f 	eorscc	r3, r4, pc, lsr #2
     4cc:	73632f65 	cmnvc	r3, #404	; 0x194
     4d0:	65303431 	ldrvs	r3, [r0, #-1073]!	; 0xfffffbcf
     4d4:	7732322d 	ldrvc	r3, [r2, -sp, lsr #4]!
     4d8:	6c2f6e69 	stcvs	14, cr6, [pc], #-420	; 33c <__code_start__-0x7cc4>
     4dc:	69706269 	ldmdbvs	r0!, {r0, r3, r5, r6, r9, sp, lr}^
     4e0:	636e692f 	cmnvs	lr, #770048	; 0xbc000
     4e4:	6564756c 	strbvs	r7, [r4, #-1388]!	; 0xfffffa94
     4e8:	75700000 	ldrbvc	r0, [r0, #-0]!
     4ec:	632e6b74 			; <UNDEFINED> instruction: 0x632e6b74
     4f0:	00000100 	andeq	r0, r0, r0, lsl #2
     4f4:	2e697072 	mcrcs	0, 3, r7, cr9, cr2, {3}
     4f8:	00020068 	andeq	r0, r2, r8, rrx
     4fc:	22050000 	andcs	r0, r5, #0
     500:	fc020500 	stc2	5, cr0, [r2], {-0}
     504:	15000083 	strne	r0, [r0, #-131]	; 0xffffff7d
     508:	05050106 	streq	r0, [r5, #-262]	; 0xfffffefa
     50c:	09054b06 	stmdbeq	r5, {r1, r2, r8, r9, fp, lr}
     510:	02040200 	andeq	r0, r4, #0, 4
     514:	000f052f 	andeq	r0, pc, pc, lsr #10
     518:	65020402 	strvs	r0, [r2, #-1026]	; 0xfffffbfe
     51c:	02001005 	andeq	r1, r0, #5
     520:	01060204 	tsteq	r6, r4, lsl #4
     524:	02000b05 	andeq	r0, r0, #5120	; 0x1400
     528:	2e060104 	adfcss	f0, f6, f4
     52c:	02000505 	andeq	r0, r0, #20971520	; 0x1400000
     530:	2e060104 	adfcss	f0, f6, f4
     534:	01054e06 	tsteq	r5, r6, lsl #28
     538:	06021306 	streq	r1, [r2], -r6, lsl #6
     53c:	c0010100 	andgt	r0, r1, r0, lsl #2
     540:	03000005 	movweq	r0, #5
     544:	0000cf00 	andeq	ip, r0, r0, lsl #30
     548:	fb010200 	blx	40d52 <__bss_end__+0x378fa>
     54c:	01000d0e 	tsteq	r0, lr, lsl #26
     550:	00010101 	andeq	r0, r1, r1, lsl #2
     554:	00010000 	andeq	r0, r1, r0
     558:	2f2e0100 	svccs	0x002e0100
     55c:	6362696c 	cmnvs	r2, #108, 18	; 0x1b0000
     560:	706f2f00 	rsbvc	r2, pc, r0, lsl #30
     564:	34312f74 	ldrtcc	r2, [r1], #-3956	; 0xfffff08c
     568:	672f6530 			; <UNDEFINED> instruction: 0x672f6530
     56c:	612d6363 			; <UNDEFINED> instruction: 0x612d6363
     570:	6e2d6d72 	mcrvs	13, 1, r6, cr13, cr2, {3}
     574:	2d656e6f 	stclcs	14, cr6, [r5, #-444]!	; 0xfffffe44
     578:	69626165 	stmdbvs	r2!, {r0, r2, r5, r6, r8, sp, lr}^
     57c:	2e30312d 	rsfcssp	f3, f0, #5.0
     580:	30322d33 	eorscc	r2, r2, r3, lsr sp
     584:	312e3132 			; <UNDEFINED> instruction: 0x312e3132
     588:	696c2f30 	stmdbvs	ip!, {r4, r5, r8, r9, sl, fp, sp}^
     58c:	63672f62 	cmnvs	r7, #392	; 0x188
     590:	72612f63 	rsbvc	r2, r1, #396	; 0x18c
     594:	6f6e2d6d 	svcvs	0x006e2d6d
     598:	652d656e 	strvs	r6, [sp, #-1390]!	; 0xfffffa92
     59c:	2f696261 	svccs	0x00696261
     5a0:	332e3031 			; <UNDEFINED> instruction: 0x332e3031
     5a4:	692f312e 	stmdbvs	pc!, {r1, r2, r3, r5, r8, ip, sp}	; <UNPREDICTABLE>
     5a8:	756c636e 	strbvc	r6, [ip, #-878]!	; 0xfffffc92
     5ac:	2f006564 	svccs	0x00006564
     5b0:	2f74706f 	svccs	0x0074706f
     5b4:	65303431 	ldrvs	r3, [r0, #-1073]!	; 0xfffffbcf
     5b8:	3173632f 	cmncc	r3, pc, lsr #6
     5bc:	2d653034 	stclcs	0, cr3, [r5, #-208]!	; 0xffffff30
     5c0:	69773232 	ldmdbvs	r7!, {r1, r4, r5, r9, ip, sp}^
     5c4:	696c2f6e 	stmdbvs	ip!, {r1, r2, r3, r5, r6, r8, r9, sl, fp, sp}^
     5c8:	2f697062 	svccs	0x00697062
     5cc:	6c636e69 	stclvs	14, cr6, [r3], #-420	; 0xfffffe5c
     5d0:	00656475 	rsbeq	r6, r5, r5, ror r4
     5d4:	2d617600 	stclcs	6, cr7, [r1, #-0]
     5d8:	6e697270 	mcrvs	2, 3, r7, cr9, cr0, {3}
     5dc:	632e6b74 			; <UNDEFINED> instruction: 0x632e6b74
     5e0:	00000100 	andeq	r0, r0, r0, lsl #2
     5e4:	69647473 	stmdbvs	r4!, {r0, r1, r4, r5, r6, sl, ip, sp, lr}^
     5e8:	672d746e 	strvs	r7, [sp, -lr, ror #8]!
     5ec:	682e6363 	stmdavs	lr!, {r0, r1, r5, r6, r8, r9, sp, lr}
     5f0:	00000200 	andeq	r0, r0, r0, lsl #4
     5f4:	2e697072 	mcrcs	0, 3, r7, cr9, cr2, {3}
     5f8:	00030068 	andeq	r0, r3, r8, rrx
     5fc:	64747300 	ldrbtvs	r7, [r4], #-768	; 0xfffffd00
     600:	2e677261 	cdpcs	2, 6, cr7, cr7, cr1, {3}
     604:	00020068 	andeq	r0, r2, r8, rrx
     608:	75623c00 	strbvc	r3, [r2, #-3072]!	; 0xfffff400
     60c:	2d746c69 	ldclcs	12, cr6, [r4, #-420]!	; 0xfffffe5c
     610:	003e6e69 	eorseq	r6, lr, r9, ror #28
     614:	00000000 	andeq	r0, r0, r0
     618:	05001b05 	streq	r1, [r0, #-2821]	; 0xfffff4fb
     61c:	00843002 	addeq	r3, r4, r2
     620:	01260300 			; <UNDEFINED> instruction: 0x01260300
     624:	05011d05 	streq	r1, [r1, #-3333]	; 0xfffff2fb
     628:	0501062d 	streq	r0, [r1, #-1581]	; 0xfffff9d3
     62c:	054a2e3a 	strbeq	r2, [sl, #-3642]	; 0xfffff1c6
     630:	05510633 	ldrbeq	r0, [r1, #-1587]	; 0xfffff9cd
     634:	06051302 	streq	r1, [r5], -r2, lsl #6
     638:	02050106 	andeq	r0, r5, #-2147483647	; 0x80000001
     63c:	03053006 	movweq	r3, #20486	; 0x5006
     640:	02040200 	andeq	r0, r4, #0, 4
     644:	0008052f 	andeq	r0, r8, pc, lsr #10
     648:	06020402 	streq	r0, [r2], -r2, lsl #8
     64c:	00150501 	andseq	r0, r5, r1, lsl #10
     650:	06020402 	streq	r0, [r2], -r2, lsl #8
     654:	00180549 	andseq	r0, r8, r9, asr #10
     658:	06020402 	streq	r0, [r2], -r2, lsl #8
     65c:	00080501 	andeq	r0, r8, r1, lsl #10
     660:	06010402 	streq	r0, [r1], -r2, lsl #8
     664:	0002052e 	andeq	r0, r2, lr, lsr #10
     668:	06010402 	streq	r0, [r1], -r2, lsl #8
     66c:	054c0601 	strbeq	r0, [ip, #-1537]	; 0xfffff9ff
     670:	05010605 	streq	r0, [r1, #-1541]	; 0xfffff9fb
     674:	054b0602 	strbeq	r0, [fp, #-1538]	; 0xfffff9fe
     678:	05130601 	ldreq	r0, [r3, #-1537]	; 0xfffff9ff
     67c:	0531063e 	ldreq	r0, [r1, #-1598]!	; 0xfffff9c2
     680:	0e051402 	cdpeq	4, 0, cr1, cr5, cr2, {0}
     684:	06050106 	streq	r0, [r5], -r6, lsl #2
     688:	0602052e 	streq	r0, [r2], -lr, lsr #10
     68c:	0604052f 	streq	r0, [r4], -pc, lsr #10
     690:	06030501 	streq	r0, [r3], -r1, lsl #10
     694:	0611052f 	ldreq	r0, [r1], -pc, lsr #10
     698:	2e090501 	cfsh32cs	mvfx0, mvfx9, #1
     69c:	30060205 	andcc	r0, r6, r5, lsl #4
     6a0:	06070515 			; <UNDEFINED> instruction: 0x06070515
     6a4:	2e020501 	cfsh32cs	mvfx0, mvfx2, #1
     6a8:	0003052e 	andeq	r0, r3, lr, lsr #10
     6ac:	06030402 	streq	r0, [r3], -r2, lsl #8
     6b0:	000c052f 	andeq	r0, ip, pc, lsr #10
     6b4:	06030402 	streq	r0, [r3], -r2, lsl #8
     6b8:	000a0501 	andeq	r0, sl, r1, lsl #10
     6bc:	2e030402 	cdpcs	4, 0, cr0, cr3, cr2, {0}
     6c0:	02001705 	andeq	r1, r0, #1310720	; 0x140000
     6c4:	2d060304 	stccs	3, cr0, [r6, #-16]
     6c8:	02000b05 	andeq	r0, r0, #5120	; 0x1400
     6cc:	05010104 	streq	r0, [r1, #-260]	; 0xfffffefc
     6d0:	04020002 	streq	r0, [r2], #-2
     6d4:	06010601 	streq	r0, [r1], -r1, lsl #12
     6d8:	0609054c 	streq	r0, [r9], -ip, asr #10
     6dc:	02052e01 	andeq	r2, r5, #1, 28
     6e0:	01053006 	tsteq	r5, r6
     6e4:	49051306 	stmdbmi	r5, {r1, r2, r8, r9, ip}
     6e8:	01063106 	tsteq	r6, r6, lsl #2
     6ec:	a0060205 	andge	r0, r6, r5, lsl #4
     6f0:	01060405 	tsteq	r6, r5, lsl #8
     6f4:	2f060305 	svccs	0x00060305
     6f8:	01060905 	tsteq	r6, r5, lsl #18
     6fc:	30060205 	andcc	r0, r6, r5, lsl #4
     700:	060b0513 			; <UNDEFINED> instruction: 0x060b0513
     704:	06020501 	streq	r0, [r2], -r1, lsl #10
     708:	052e0630 	streq	r0, [lr, #-1584]!	; 0xfffff9d0
     70c:	24020604 	strcs	r0, [r2], #-1540	; 0xfffff9fc
     710:	0f051315 	svceq	0x00051315
     714:	052e0106 	streq	r0, [lr, #-262]!	; 0xfffffefa
     718:	05054a06 	streq	r4, [r5, #-2566]	; 0xfffff5fa
     71c:	05134b06 	ldreq	r4, [r3, #-2822]	; 0xfffff4fa
     720:	05010609 	streq	r0, [r1, #-1545]	; 0xfffff9f7
     724:	052f0605 	streq	r0, [pc, #-1541]!	; 127 <__code_start__-0x7ed9>
     728:	0510060b 	ldreq	r0, [r0, #-1547]	; 0xfffff9f5
     72c:	0402000d 	streq	r0, [r2], #-13
     730:	04052c01 	streq	r2, [r5], #-3073	; 0xfffff3ff
     734:	01040200 	mrseq	r0, R12_usr
     738:	05053406 	streq	r3, [r5, #-1030]	; 0xfffffbfa
     73c:	01040200 	mrseq	r0, R12_usr
     740:	001b0513 	andseq	r0, fp, r3, lsl r5
     744:	06010402 	streq	r0, [r1], -r2, lsl #8
     748:	00070501 	andeq	r0, r7, r1, lsl #10
     74c:	d6010402 	strle	r0, [r1], -r2, lsl #8
     750:	02001805 	andeq	r1, r0, #327680	; 0x50000
     754:	052e0104 	streq	r0, [lr, #-260]!	; 0xfffffefc
     758:	0402000a 	streq	r0, [r2], #-10
     75c:	0b054a01 	bleq	152f68 <__bss_end__+0x149b10>
     760:	01040200 	mrseq	r0, R12_usr
     764:	0e052f06 	cdpeq	15, 0, cr2, cr5, cr6, {0}
     768:	01040200 	mrseq	r0, R12_usr
     76c:	04052e06 	streq	r2, [r5], #-3590	; 0xfffff1fa
     770:	01040200 	mrseq	r0, R12_usr
     774:	054b062e 	strbeq	r0, [fp, #-1582]	; 0xfffff9d2
     778:	05010606 	streq	r0, [r1, #-1542]	; 0xfffff9fa
     77c:	052f0605 	streq	r0, [pc, #-1541]!	; 17f <__code_start__-0x7e81>
     780:	0501060a 	streq	r0, [r1, #-1546]	; 0xfffff9f6
     784:	052e4a07 	streq	r4, [lr, #-2567]!	; 0xfffff5f9
     788:	2e76030d 	cdpcs	3, 7, cr0, cr6, cr13, {0}
     78c:	0f02054a 	svceq	0x0002054a
     790:	02000d05 	andeq	r0, r0, #320	; 0x140
     794:	03060104 	movweq	r0, #24836	; 0x6104
     798:	11052e12 	tstne	r5, r2, lsl lr
     79c:	01040200 	mrseq	r0, R12_usr
     7a0:	002d0513 	eoreq	r0, sp, r3, lsl r5
     7a4:	06010402 	streq	r0, [r1], -r2, lsl #8
     7a8:	002a0501 	eoreq	r0, sl, r1, lsl #10
     7ac:	2e010402 	cdpcs	4, 0, cr0, cr1, cr2, {0}
     7b0:	02001605 	andeq	r1, r0, #5242880	; 0x500000
     7b4:	054a0104 	strbeq	r0, [sl, #-260]	; 0xfffffefc
     7b8:	04020014 	streq	r0, [r2], #-20	; 0xffffffec
     7bc:	054b0601 	strbeq	r0, [fp, #-1537]	; 0xfffff9ff
     7c0:	0402000d 	streq	r0, [r2], #-13
     7c4:	00010601 	andeq	r0, r1, r1, lsl #12
     7c8:	4a010402 	bmi	417d8 <__bss_end__+0x38380>
     7cc:	12052f06 	andne	r2, r5, #6, 30
     7d0:	054a0106 	strbeq	r0, [sl, #-262]	; 0xfffffefa
     7d4:	052f060d 	streq	r0, [pc, #-1549]!	; 1cf <__code_start__-0x7e31>
     7d8:	05010612 	streq	r0, [r1, #-1554]	; 0xfffff9ee
     7dc:	054b0619 	strbeq	r0, [fp, #-1561]	; 0xfffff9e7
     7e0:	04020004 	streq	r0, [r2], #-4
     7e4:	01110302 	tsteq	r1, r2, lsl #6
     7e8:	02040200 	andeq	r0, r4, #0, 4
     7ec:	00020501 	andeq	r0, r2, r1, lsl #10
     7f0:	15020402 	strne	r0, [r2, #-1026]	; 0xfffffbfe
     7f4:	02000905 	andeq	r0, r0, #81920	; 0x14000
     7f8:	01060204 	tsteq	r6, r4, lsl #4
     7fc:	02040200 	andeq	r0, r4, #0, 4
     800:	0001054a 	andeq	r0, r1, sl, asr #10
     804:	9f020402 	svcls	0x00020402
     808:	03060405 	movweq	r0, #25605	; 0x6405
     80c:	09054a6e 	stmdbeq	r5, {r1, r2, r3, r5, r6, r9, fp, lr}
     810:	04050106 	streq	r0, [r5], #-262	; 0xfffffefa
     814:	06052f06 	streq	r2, [r5], -r6, lsl #30
     818:	04051106 	streq	r1, [r5], #-262	; 0xfffffefa
     81c:	0302052f 	movweq	r0, #9519	; 0x252f
     820:	19052e65 	stmdbne	r5, {r0, r2, r5, r6, r9, sl, fp, sp}
     824:	01040200 	mrseq	r0, R12_usr
     828:	2e220306 	cdpcs	3, 2, cr0, cr2, cr6, {0}
     82c:	02001a05 	andeq	r1, r0, #20480	; 0x5000
     830:	05130104 	ldreq	r0, [r3, #-260]	; 0xfffffefc
     834:	04020028 	streq	r0, [r2], #-40	; 0xffffffd8
     838:	05010601 	streq	r0, [r1, #-1537]	; 0xfffff9ff
     83c:	04020025 	streq	r0, [r2], #-37	; 0xffffffdb
     840:	1f052e01 	svcne	0x00052e01
     844:	01040200 	mrseq	r0, R12_usr
     848:	000b054a 	andeq	r0, fp, sl, asr #10
     84c:	06010402 	streq	r0, [r1], -r2, lsl #8
     850:	0004054b 	andeq	r0, r4, fp, asr #10
     854:	06010402 	streq	r0, [r1], -r2, lsl #8
     858:	04020001 	streq	r0, [r2], #-1
     85c:	02004a01 	andeq	r4, r0, #4096	; 0x1000
     860:	4e060104 	adfmis	f0, f6, f4
     864:	01040200 	mrseq	r0, R12_usr
     868:	04020001 	streq	r0, [r2], #-1
     86c:	02000101 	andeq	r0, r0, #1073741824	; 0x40000000
     870:	00010104 	andeq	r0, r1, r4, lsl #2
     874:	06010402 	streq	r0, [r1], -r2, lsl #8
     878:	0402002e 	streq	r0, [r2], #-46	; 0xffffffd2
     87c:	02006601 	andeq	r6, r0, #1048576	; 0x100000
     880:	002e0104 	eoreq	r0, lr, r4, lsl #2
     884:	06010402 	streq	r0, [r1], -r2, lsl #8
     888:	0348054a 	movteq	r0, #34122	; 0x854a
     88c:	20087fa6 	andcs	r7, r8, r6, lsr #31
     890:	01130505 	tsteq	r3, r5, lsl #10
     894:	02002e06 	andeq	r2, r0, #6, 28	; 0x60
     898:	2e060204 	cdpcs	2, 0, cr0, cr6, cr4, {0}
     89c:	02040200 	andeq	r0, r4, #0, 4
     8a0:	04020001 	streq	r0, [r2], #-1
     8a4:	11051302 	tstne	r5, r2, lsl #6
     8a8:	02040200 	andeq	r0, r4, #0, 4
     8ac:	05050106 	streq	r0, [r5, #-262]	; 0xfffffefa
     8b0:	02040200 	andeq	r0, r4, #0, 4
     8b4:	07054b06 	streq	r4, [r5, -r6, lsl #22]
     8b8:	02040200 	andeq	r0, r4, #0, 4
     8bc:	09050106 	stmdbeq	r5, {r1, r2, r8}
     8c0:	0e054b06 	vmlaeq.f64	d4, d5, d6
     8c4:	48050106 	stmdami	r5, {r1, r2, r8}
     8c8:	01040200 	mrseq	r0, R12_usr
     8cc:	00050562 	andeq	r0, r5, r2, ror #10
     8d0:	06010402 	streq	r0, [r1], -r2, lsl #8
     8d4:	0402004b 	streq	r0, [r2], #-75	; 0xffffffb5
     8d8:	02000101 	andeq	r0, r0, #1073741824	; 0x40000000
     8dc:	9e060104 	adflss	f0, f6, f4
     8e0:	01040200 	mrseq	r0, R12_usr
     8e4:	0402002e 	streq	r0, [r2], #-46	; 0xffffffd2
     8e8:	052e0601 	streq	r0, [lr, #-1537]!	; 0xfffff9ff
     8ec:	00e10340 	rsceq	r0, r1, r0, asr #6
     8f0:	050106d6 	streq	r0, [r1, #-1750]	; 0xfffff92a
     8f4:	059f0602 	ldreq	r0, [pc, #1538]	; efe <__code_start__-0x7102>
     8f8:	0501061e 	streq	r0, [r1, #-1566]	; 0xfffff9e2
     8fc:	05052e12 	streq	r2, [r5, #-3602]	; 0xfffff1ee
     900:	02052f06 	andeq	r2, r5, #6, 30
     904:	06090514 			; <UNDEFINED> instruction: 0x06090514
     908:	06050501 	streq	r0, [r5], -r1, lsl #10
     90c:	1302054b 	movwne	r0, #9547	; 0x254b
     910:	0d060805 	stceq	8, cr0, [r6, #-20]	; 0xffffffec
     914:	05330205 	ldreq	r0, [r3, #-517]!	; 0xfffffdfb
     918:	054e0608 	strbeq	r0, [lr, #-1544]	; 0xfffff9f8
     91c:	0501060e 	streq	r0, [r1, #-1550]	; 0xfffff9f2
     920:	04052e0a 	streq	r2, [r5], #-3594	; 0xfffff1f6
     924:	09054b06 	stmdbeq	r5, {r1, r2, r8, r9, fp, lr}
     928:	04050106 	streq	r0, [r5], #-262	; 0xfffffefa
     92c:	07052f06 	streq	r2, [r5, -r6, lsl #30]
     930:	08050106 	stmdaeq	r5, {r1, r2, r8}
     934:	2e7a0306 	cdpcs	3, 7, cr0, cr10, cr6, {0}
     938:	2e060205 	cdpcs	2, 0, cr0, cr6, cr5, {0}
     93c:	02000d05 	andeq	r0, r0, #320	; 0x140
     940:	054a0104 	strbeq	r0, [sl, #-260]	; 0xfffffefc
     944:	054b0603 	strbeq	r0, [fp, #-1539]	; 0xfffff9fd
     948:	05010605 	streq	r0, [r1, #-1541]	; 0xfffff9fb
     94c:	054b0604 	strbeq	r0, [fp, #-1540]	; 0xfffff9fc
     950:	0501060f 	streq	r0, [r1, #-1551]	; 0xfffff9f1
     954:	052e2e09 	streq	r2, [lr, #-3593]!	; 0xfffff1f7
     958:	05340604 	ldreq	r0, [r4, #-1540]!	; 0xfffff9fc
     95c:	05010607 	streq	r0, [r1, #-1543]	; 0xfffff9f9
     960:	13300604 	teqne	r0, #4, 12	; 0x400000
     964:	060d0514 			; <UNDEFINED> instruction: 0x060d0514
     968:	30090510 	andcc	r0, r9, r0, lsl r5
     96c:	2f060505 	svccs	0x00060505
     970:	01061205 	tsteq	r6, r5, lsl #4
     974:	052e1605 	streq	r1, [lr, #-1541]!	; 0xfffff9fb
     978:	05052e0b 	streq	r2, [r5, #-3595]	; 0xfffff1f5
     97c:	08052f06 	stmdaeq	r5, {r1, r2, r8, r9, sl, fp, sp}
     980:	09050106 	stmdbeq	r5, {r1, r2, r8}
     984:	12052c06 	andne	r2, r5, #1536	; 0x600
     988:	0a050106 	beq	140da8 <__bss_end__+0x137950>
     98c:	4a09052e 	bmi	241e4c <__bss_end__+0x2389f4>
     990:	4e060405 	cdpmi	4, 0, cr0, cr6, cr5, {0}
     994:	15014a01 	strne	r4, [r1, #-2561]	; 0xfffff5ff
     998:	01040200 	mrseq	r0, R12_usr
     99c:	000f3602 	andeq	r3, pc, r2, lsl #12
     9a0:	01010402 	tsteq	r1, r2, lsl #8
     9a4:	01040200 	mrseq	r0, R12_usr
     9a8:	341105d6 	ldrcc	r0, [r1], #-1494	; 0xfffffa2a
     9ac:	02000113 	andeq	r0, r0, #-1073741820	; 0xc0000004
     9b0:	ba060204 	blt	1811c8 <__bss_end__+0x177d70>
     9b4:	03040200 	movweq	r0, #16896	; 0x4200
     9b8:	0200ba06 	andeq	fp, r0, #24576	; 0x6000
     9bc:	00010304 	andeq	r0, r1, r4, lsl #6
     9c0:	14030402 	strne	r0, [r3], #-1026	; 0xfffffbfe
     9c4:	02001505 	andeq	r1, r0, #20971520	; 0x1400000
     9c8:	01060304 	tsteq	r6, r4, lsl #6
     9cc:	02001105 	andeq	r1, r0, #1073741825	; 0x40000001
     9d0:	2f060304 	svccs	0x00060304
     9d4:	02001a05 	andeq	r1, r0, #20480	; 0x5000
     9d8:	01060304 	tsteq	r6, r4, lsl #6
     9dc:	02001105 	andeq	r1, r0, #1073741825	; 0x40000001
     9e0:	d7060304 	strle	r0, [r6, -r4, lsl #6]
     9e4:	03040200 	movweq	r0, #16896	; 0x4200
     9e8:	04020013 	streq	r0, [r2], #-19	; 0xffffffed
     9ec:	14051703 	strne	r1, [r5], #-1795	; 0xfffff8fd
     9f0:	03040200 	movweq	r0, #16896	; 0x4200
     9f4:	13050106 	movwne	r0, #20742	; 0x5106
     9f8:	03040200 	movweq	r0, #16896	; 0x4200
     9fc:	06180582 	ldreq	r0, [r8], -r2, lsl #11
     a00:	061b054e 	ldreq	r0, [fp], -lr, asr #10
     a04:	821a0501 	andshi	r0, sl, #4194304	; 0x400000
     a08:	4b060905 	blmi	182e24 <__bss_end__+0x1799cc>
     a0c:	01060d05 	tsteq	r6, r5, lsl #26
     a10:	0609052e 	streq	r0, [r9], -lr, lsr #10
     a14:	05ba06f3 	ldreq	r0, [sl, #1779]!	; 0x6f3
     a18:	05300615 	ldreq	r0, [r0, #-1557]!	; 0xfffff9eb
     a1c:	05010618 	streq	r0, [r1, #-1560]	; 0xfffff9e8
     a20:	19056617 	stmdbne	r5, {r0, r1, r2, r4, r9, sl, sp, lr}
     a24:	15054b06 	strne	r4, [r5, #-2822]	; 0xfffff4fa
     a28:	666f0306 	strbtvs	r0, [pc], -r6, lsl #6
     a2c:	48061105 	stmdami	r6, {r0, r2, r8, ip}
     a30:	0905d601 	stmdbeq	r5, {r0, r9, sl, ip, lr, pc}
     a34:	052e0b03 	streq	r0, [lr, #-2819]!	; 0xfffff4fd
     a38:	2e01060d 	cfmadd32cs	mvax0, mvfx0, mvfx1, mvfx13
     a3c:	f3060905 	vmls.i8	d0, d6, d5
     a40:	1505ba06 	strne	fp, [r5, #-2566]	; 0xfffff5fa
     a44:	03062f06 	movweq	r2, #28422	; 0x6f06
     a48:	19056675 	stmdbne	r5, {r0, r2, r4, r5, r6, r9, sl, sp, lr}
     a4c:	4a130306 	bmi	4c166c <__bss_end__+0x4b8214>
     a50:	03061505 	movweq	r1, #25861	; 0x6505
     a54:	0306666d 	movweq	r6, #26221	; 0x666d
     a58:	ba014a15 	blt	532b4 <__bss_end__+0x49e5c>
     a5c:	05052e06 	streq	r2, [r5, #-3590]	; 0xfffff1fa
     a60:	9e011a06 	vmlals.f32	s2, s2, s12
     a64:	010e032e 	tsteq	lr, lr, lsr #6
     a68:	01060905 	tsteq	r6, r5, lsl #18
     a6c:	08060505 	stmdaeq	r6, {r0, r2, r8, sl}
     a70:	03040575 	movweq	r0, #17781	; 0x4575
     a74:	07050118 	smladeq	r5, r8, r1, r0
     a78:	04050106 	streq	r0, [r5], #-262	; 0xfffffefa
     a7c:	05053106 	streq	r3, [r5, #-262]	; 0xfffffefa
     a80:	052e6703 	streq	r6, [lr, #-1795]!	; 0xfffff8fd
     a84:	0501061c 	streq	r0, [r1, #-1564]	; 0xfffff9e4
     a88:	05058209 	streq	r8, [r5, #-521]	; 0xfffffdf7
     a8c:	0531f306 	ldreq	pc, [r1, #-774]!	; 0xfffffcfa
     a90:	0501061c 	streq	r0, [r1, #-1564]	; 0xfffff9e4
     a94:	05058209 	streq	r8, [r5, #-521]	; 0xfffffdf7
     a98:	0530f306 	ldreq	pc, [r0, #-774]!	; 0xfffffcfa
     a9c:	0501061b 	streq	r0, [r1, #-1563]	; 0xfffff9e5
     aa0:	05058209 	streq	r8, [r5, #-521]	; 0xfffffdf7
     aa4:	0530f306 	ldreq	pc, [r0, #-774]!	; 0xfffffcfa
     aa8:	05010607 	streq	r0, [r1, #-1543]	; 0xfffff9f9
     aac:	30830605 	addcc	r0, r3, r5, lsl #12
     ab0:	01060905 	tsteq	r6, r5, lsl #18
     ab4:	08060505 	stmdaeq	r6, {r0, r2, r8, sl}
     ab8:	30110575 	andscc	r0, r1, r5, ror r5
     abc:	01062205 	tsteq	r6, r5, lsl #4
     ac0:	4b060505 	blmi	181edc <__bss_end__+0x178a84>
     ac4:	05831105 	streq	r1, [r3, #261]	; 0x105
     ac8:	9e018305 	cdpls	3, 0, cr8, cr1, cr5, {0}
     acc:	060e0535 			; <UNDEFINED> instruction: 0x060e0535
     ad0:	2e0a0501 	cfsh32cs	mvfx0, mvfx10, #1
     ad4:	04052d06 	streq	r2, [r5], #-3334	; 0xfffff2fa
     ad8:	13050106 	movwne	r0, #20742	; 0x5106
     adc:	01040200 	mrseq	r0, R12_usr
     ae0:	0010054a 	andseq	r0, r0, sl, asr #10
     ae4:	2e010402 	cdpcs	4, 0, cr0, cr1, cr2, {0}
     ae8:	01040200 	mrseq	r0, R12_usr
     aec:	06020566 	streq	r0, [r2], -r6, ror #10
     af0:	06070516 			; <UNDEFINED> instruction: 0x06070516
     af4:	06020501 	streq	r0, [r2], -r1, lsl #10
     af8:	0601054b 	streq	r0, [r1], -fp, asr #10
     afc:	1a026613 	bne	9a350 <__bss_end__+0x90ef8>
     b00:	7a010100 	bvc	40f08 <__bss_end__+0x37ab0>
     b04:	03000000 	movweq	r0, #0
     b08:	00005f00 	andeq	r5, r0, r0, lsl #30
     b0c:	fb010200 	blx	41316 <__bss_end__+0x37ebe>
     b10:	01000d0e 	tsteq	r0, lr, lsl #26
     b14:	00010101 	andeq	r0, r1, r1, lsl #2
     b18:	00010000 	andeq	r0, r1, r0
     b1c:	2f2e0100 	svccs	0x002e0100
     b20:	66617473 			; <UNDEFINED> instruction: 0x66617473
     b24:	72732d66 	rsbsvc	r2, r3, #6528	; 0x1980
     b28:	6f2f0063 	svcvs	0x002f0063
     b2c:	312f7470 			; <UNDEFINED> instruction: 0x312f7470
     b30:	2f653034 	svccs	0x00653034
     b34:	34317363 	ldrtcc	r7, [r1], #-867	; 0xfffffc9d
     b38:	322d6530 	eorcc	r6, sp, #48, 10	; 0xc000000
     b3c:	6e697732 	mcrvs	7, 3, r7, cr9, cr2, {1}
     b40:	62696c2f 	rsbvs	r6, r9, #12032	; 0x2f00
     b44:	692f6970 	stmdbvs	pc!, {r4, r5, r6, r8, fp, sp, lr}	; <UNPREDICTABLE>
     b48:	756c636e 	strbvc	r6, [ip, #-878]!	; 0xfffffc92
     b4c:	00006564 	andeq	r6, r0, r4, ror #10
     b50:	61656c63 	cmnvs	r5, r3, ror #24
     b54:	65722d6e 	ldrbvs	r2, [r2, #-3438]!	; 0xfffff292
     b58:	746f6f62 	strbtvc	r6, [pc], #-3938	; b60 <__code_start__-0x74a0>
     b5c:	0100632e 	tsteq	r0, lr, lsr #6
     b60:	70720000 	rsbsvc	r0, r2, r0
     b64:	00682e69 	rsbeq	r2, r8, r9, ror #28
     b68:	00000002 	andeq	r0, r0, r2
     b6c:	05001905 	streq	r1, [r0, #-2309]	; 0xfffff6fb
     b70:	008b5802 	addeq	r5, fp, r2, lsl #16
     b74:	05051500 	streq	r1, [r5, #-1280]	; 0xfffffb00
     b78:	4b2f832f 	blmi	be183c <__bss_end__+0xbd83e4>
     b7c:	01000602 	tsteq	r0, r2, lsl #12
     b80:	00009601 	andeq	r9, r0, r1, lsl #12
     b84:	59000300 	stmdbpl	r0, {r8, r9}
     b88:	02000000 	andeq	r0, r0, #0
     b8c:	0d0efb01 	vstreq	d15, [lr, #-4]
     b90:	01010100 	mrseq	r0, (UNDEF: 17)
     b94:	00000001 	andeq	r0, r0, r1
     b98:	01000001 	tsteq	r0, r1
     b9c:	74732f2e 	ldrbtvc	r2, [r3], #-3886	; 0xfffff0d2
     ba0:	2d666661 	stclcs	6, cr6, [r6, #-388]!	; 0xfffffe7c
     ba4:	00637273 	rsbeq	r7, r3, r3, ror r2
     ba8:	74706f2f 	ldrbtvc	r6, [r0], #-3887	; 0xfffff0d1
     bac:	3034312f 	eorscc	r3, r4, pc, lsr #2
     bb0:	73632f65 	cmnvc	r3, #404	; 0x194
     bb4:	65303431 	ldrvs	r3, [r0, #-1073]!	; 0xfffffbcf
     bb8:	7732322d 	ldrvc	r3, [r2, -sp, lsr #4]!
     bbc:	6c2f6e69 	stcvs	14, cr6, [pc], #-420	; a20 <__code_start__-0x75e0>
     bc0:	69706269 	ldmdbvs	r0!, {r0, r3, r5, r6, r9, sp, lr}^
     bc4:	636e692f 	cmnvs	lr, #770048	; 0xbc000
     bc8:	6564756c 	strbvs	r7, [r4, #-1388]!	; 0xfffffa94
     bcc:	73630000 	cmnvc	r3, #0
     bd0:	74726174 	ldrbtvc	r6, [r2], #-372	; 0xfffffe8c
     bd4:	0100632e 	tsteq	r0, lr, lsr #6
     bd8:	70720000 	rsbsvc	r0, r2, r0
     bdc:	00682e69 	rsbeq	r2, r8, r9, ror #28
     be0:	00000002 	andeq	r0, r0, r2
     be4:	05001005 	streq	r1, [r0, #-5]
     be8:	008b8402 	addeq	r8, fp, r2, lsl #8
     bec:	05051500 	streq	r1, [r5, #-1280]	; 0xfffffb00
     bf0:	1302052f 	movwne	r0, #9519	; 0x252f
     bf4:	30140505 	andscc	r0, r4, r5, lsl #10
     bf8:	0a051413 	beq	145c4c <__bss_end__+0x13c7f4>
     bfc:	05310f06 	ldreq	r0, [r1, #-3846]!	; 0xfffff0fa
     c00:	052f0609 	streq	r0, [pc, #-1545]!	; 5ff <__code_start__-0x7a01>
     c04:	05010610 	streq	r0, [r1, #-1552]	; 0xfffff9f0
     c08:	0549060a 	strbeq	r0, [r9, #-1546]	; 0xfffff9f6
     c0c:	01326905 	teqeq	r2, r5, lsl #18
     c10:	05144a01 	ldreq	r4, [r4, #-2561]	; 0xfffff5ff
     c14:	06022f02 	streq	r2, [r2], -r2, lsl #30
     c18:	4a010100 	bmi	41020 <__bss_end__+0x37bc8>
     c1c:	03000000 	movweq	r0, #0
     c20:	00003200 	andeq	r3, r0, r0, lsl #4
     c24:	fb010200 	blx	4142e <__bss_end__+0x37fd6>
     c28:	01000d0e 	tsteq	r0, lr, lsl #26
     c2c:	00010101 	andeq	r0, r1, r1, lsl #2
     c30:	00010000 	andeq	r0, r1, r0
     c34:	2f2e0100 	svccs	0x002e0100
     c38:	66617473 			; <UNDEFINED> instruction: 0x66617473
     c3c:	72732d66 	rsbsvc	r2, r3, #6528	; 0x1980
     c40:	63000063 	movwvs	r0, #99	; 0x63
     c44:	6f747375 	svcvs	0x00747375
     c48:	6f6c2d6d 	svcvs	0x006c2d6d
     c4c:	72656461 	rsbvc	r6, r5, #1627389952	; 0x61000000
     c50:	0100632e 	tsteq	r0, lr, lsr #6
     c54:	05000000 	streq	r0, [r0, #-0]
     c58:	0205001a 	andeq	r0, r5, #26
     c5c:	00008bc4 	andeq	r8, r0, r4, asr #23
     c60:	14010515 	strne	r0, [r1], #-1301	; 0xfffffaeb
     c64:	01000202 	tsteq	r0, r2, lsl #4
     c68:	0000c801 	andeq	ip, r0, r1, lsl #16
     c6c:	59000300 	stmdbpl	r0, {r8, r9}
     c70:	02000000 	andeq	r0, r0, #0
     c74:	0d0efb01 	vstreq	d15, [lr, #-4]
     c78:	01010100 	mrseq	r0, (UNDEF: 17)
     c7c:	00000001 	andeq	r0, r0, r1
     c80:	01000001 	tsteq	r0, r1
     c84:	74732f2e 	ldrbtvc	r2, [r3], #-3886	; 0xfffff0d2
     c88:	2d666661 	stclcs	6, cr6, [r6, #-388]!	; 0xfffffe7c
     c8c:	00637273 	rsbeq	r7, r3, r3, ror r2
     c90:	74706f2f 	ldrbtvc	r6, [r0], #-3887	; 0xfffff0d1
     c94:	3034312f 	eorscc	r3, r4, pc, lsr #2
     c98:	73632f65 	cmnvc	r3, #404	; 0x194
     c9c:	65303431 	ldrvs	r3, [r0, #-1073]!	; 0xfffffbcf
     ca0:	7732322d 	ldrvc	r3, [r2, -sp, lsr #4]!
     ca4:	6c2f6e69 	stcvs	14, cr6, [pc], #-420	; b08 <__code_start__-0x74f8>
     ca8:	69706269 	ldmdbvs	r0!, {r0, r3, r5, r6, r9, sp, lr}^
     cac:	636e692f 	cmnvs	lr, #770048	; 0xbc000
     cb0:	6564756c 	strbvs	r7, [r4, #-1388]!	; 0xfffffa94
     cb4:	65720000 	ldrbvs	r0, [r2, #-0]!
     cb8:	746f6f62 	strbtvc	r6, [pc], #-3938	; cc0 <__code_start__-0x7340>
     cbc:	0100632e 	tsteq	r0, lr, lsr #6
     cc0:	70720000 	rsbsvc	r0, r2, r0
     cc4:	00682e69 	rsbeq	r2, r8, r9, ror #28
     cc8:	00000002 	andeq	r0, r0, r2
     ccc:	05001905 	streq	r1, [r0, #-2309]	; 0xfffff6fb
     cd0:	008bc802 	addeq	ip, fp, r2, lsl #16
     cd4:	010d0300 	mrseq	r0, SP_mon
     cd8:	13130505 	tstne	r3, #20971520	; 0x1400000
     cdc:	06130531 			; <UNDEFINED> instruction: 0x06130531
     ce0:	2f010501 	svccs	0x00010501
     ce4:	85061b05 	strhi	r1, [r6, #-2821]	; 0xfffff4fb
     ce8:	14130505 	ldrne	r0, [r3], #-1285	; 0xfffffafb
     cec:	052f0905 	streq	r0, [pc, #-2309]!	; 3ef <__code_start__-0x7c11>
     cf0:	05010616 	streq	r0, [r1, #-1558]	; 0xfffff9ea
     cf4:	05052e0e 	streq	r2, [r5, #-3598]	; 0xfffff1f2
     cf8:	01052f06 	tsteq	r5, r6, lsl #30
     cfc:	17052f06 	strne	r2, [r5, -r6, lsl #30]
     d00:	05053006 	streq	r3, [r5, #-6]
     d04:	0608052f 	streq	r0, [r8], -pc, lsr #10
     d08:	2e070501 	cfsh32cs	mvfx0, mvfx7, #1
     d0c:	50060505 	andpl	r0, r6, r5, lsl #10
     d10:	134d2f30 	movtne	r2, #57136	; 0xdf30
     d14:	67151313 			; <UNDEFINED> instruction: 0x67151313
     d18:	01040200 	mrseq	r0, R12_usr
     d1c:	000d0567 	andeq	r0, sp, r7, ror #10
     d20:	01010402 	tsteq	r1, r2, lsl #8
     d24:	02000a05 	andeq	r0, r0, #20480	; 0x5000
     d28:	05010104 	streq	r0, [r1, #-260]	; 0xfffffefc
     d2c:	2e6d0309 	cdpcs	3, 6, cr0, cr13, cr9, {0}
     d30:	01000c02 	tsteq	r0, r2, lsl #24
     d34:	0000cf01 	andeq	ip, r0, r1, lsl #30
     d38:	58000300 	stmdapl	r0, {r8, r9}
     d3c:	02000000 	andeq	r0, r0, #0
     d40:	0d0efb01 	vstreq	d15, [lr, #-4]
     d44:	01010100 	mrseq	r0, (UNDEF: 17)
     d48:	00000001 	andeq	r0, r0, r1
     d4c:	01000001 	tsteq	r0, r1
     d50:	74732f2e 	ldrbtvc	r2, [r3], #-3886	; 0xfffff0d2
     d54:	2d666661 	stclcs	6, cr6, [r6, #-388]!	; 0xfffffe7c
     d58:	00637273 	rsbeq	r7, r3, r3, ror r2
     d5c:	74706f2f 	ldrbtvc	r6, [r0], #-3887	; 0xfffff0d1
     d60:	3034312f 	eorscc	r3, r4, pc, lsr #2
     d64:	73632f65 	cmnvc	r3, #404	; 0x194
     d68:	65303431 	ldrvs	r3, [r0, #-1073]!	; 0xfffffbcf
     d6c:	7732322d 	ldrvc	r3, [r2, -sp, lsr #4]!
     d70:	6c2f6e69 	stcvs	14, cr6, [pc], #-420	; bd4 <__code_start__-0x742c>
     d74:	69706269 	ldmdbvs	r0!, {r0, r3, r5, r6, r9, sp, lr}^
     d78:	636e692f 	cmnvs	lr, #770048	; 0xbc000
     d7c:	6564756c 	strbvs	r7, [r4, #-1388]!	; 0xfffffa94
     d80:	69740000 	ldmdbvs	r4!, {}^	; <UNPREDICTABLE>
     d84:	2e72656d 	cdpcs	5, 7, cr6, cr2, cr13, {3}
     d88:	00010063 	andeq	r0, r1, r3, rrx
     d8c:	69707200 	ldmdbvs	r0!, {r9, ip, sp, lr}^
     d90:	0200682e 	andeq	r6, r0, #3014656	; 0x2e0000
     d94:	05000000 	streq	r0, [r0, #-0]
     d98:	02050023 	andeq	r0, r5, #35	; 0x23
     d9c:	00008c48 	andeq	r8, r0, r8, asr #24
     da0:	2f050515 	svccs	0x00050515
     da4:	01060c05 	tsteq	r6, r5, lsl #24
     da8:	054b0105 	strbeq	r0, [fp, #-261]	; 0xfffffefb
     dac:	054d061f 	strbeq	r0, [sp, #-1567]	; 0xfffff9e1
     db0:	052f3105 	streq	r3, [pc, #-261]!	; cb3 <__code_start__-0x734d>
     db4:	05010612 	streq	r0, [r1, #-1554]	; 0xfffff9ee
     db8:	2f4b0605 	svccs	0x004b0605
     dbc:	13060105 	movwne	r0, #24837	; 0x6105
     dc0:	4c061c05 	stcmi	12, cr1, [r6], {5}
     dc4:	05050106 	streq	r0, [r5, #-262]	; 0xfffffefa
     dc8:	13054b06 	movwne	r4, #23302	; 0x5b06
     dcc:	052e0106 	streq	r0, [lr, #-262]!	; 0xfffffefa
     dd0:	052f0605 	streq	r0, [pc, #-1541]!	; 7d3 <__code_start__-0x782d>
     dd4:	17051309 	strne	r1, [r5, -r9, lsl #6]
     dd8:	09050106 	stmdbeq	r5, {r1, r2, r8}
     ddc:	11052f06 	tstne	r5, r6, lsl #30
     de0:	0c050106 	stfeqs	f0, [r5], {6}
     de4:	061c052e 	ldreq	r0, [ip], -lr, lsr #10
     de8:	0501066b 	streq	r0, [r1, #-1643]	; 0xfffff995
     dec:	062f0605 	strteq	r0, [pc], -r5, lsl #12
     df0:	4b01054a 	blmi	42320 <__bss_end__+0x38ec8>
     df4:	2f061e05 	svccs	0x00061e05
     df8:	05050106 	streq	r0, [r5, #-262]	; 0xfffffefa
     dfc:	4a062f06 	bmi	18ca1c <__bss_end__+0x1835c4>
     e00:	024b0105 	subeq	r0, fp, #1073741825	; 0x40000001
     e04:	01010002 	tsteq	r1, r2
     e08:	0000016c 	andeq	r0, r0, ip, ror #2
     e0c:	00b90003 	adcseq	r0, r9, r3
     e10:	01020000 	mrseq	r0, (UNDEF: 2)
     e14:	000d0efb 	strdeq	r0, [sp], -fp
     e18:	01010101 	tsteq	r1, r1, lsl #2
     e1c:	01000000 	mrseq	r0, (UNDEF: 0)
     e20:	2e010000 	cdpcs	0, 0, cr0, cr1, cr0, {0}
     e24:	6372732f 	cmnvs	r2, #-1140850688	; 0xbc000000
     e28:	706f2f00 	rsbvc	r2, pc, r0, lsl #30
     e2c:	34312f74 	ldrtcc	r2, [r1], #-3956	; 0xfffff08c
     e30:	672f6530 			; <UNDEFINED> instruction: 0x672f6530
     e34:	612d6363 			; <UNDEFINED> instruction: 0x612d6363
     e38:	6e2d6d72 	mcrvs	13, 1, r6, cr13, cr2, {3}
     e3c:	2d656e6f 	stclcs	14, cr6, [r5, #-444]!	; 0xfffffe44
     e40:	69626165 	stmdbvs	r2!, {r0, r2, r5, r6, r8, sp, lr}^
     e44:	2e30312d 	rsfcssp	f3, f0, #5.0
     e48:	30322d33 	eorscc	r2, r2, r3, lsr sp
     e4c:	312e3132 			; <UNDEFINED> instruction: 0x312e3132
     e50:	696c2f30 	stmdbvs	ip!, {r4, r5, r8, r9, sl, fp, sp}^
     e54:	63672f62 	cmnvs	r7, #392	; 0x188
     e58:	72612f63 	rsbvc	r2, r1, #396	; 0x18c
     e5c:	6f6e2d6d 	svcvs	0x006e2d6d
     e60:	652d656e 	strvs	r6, [sp, #-1390]!	; 0xfffffa92
     e64:	2f696261 	svccs	0x00696261
     e68:	332e3031 			; <UNDEFINED> instruction: 0x332e3031
     e6c:	692f312e 	stmdbvs	pc!, {r1, r2, r3, r5, r8, ip, sp}	; <UNPREDICTABLE>
     e70:	756c636e 	strbvc	r6, [ip, #-878]!	; 0xfffffc92
     e74:	2f006564 	svccs	0x00006564
     e78:	2f74706f 	svccs	0x0074706f
     e7c:	65303431 	ldrvs	r3, [r0, #-1073]!	; 0xfffffbcf
     e80:	3173632f 	cmncc	r3, pc, lsr #6
     e84:	2d653034 	stclcs	0, cr3, [r5, #-208]!	; 0xffffff30
     e88:	69773232 	ldmdbvs	r7!, {r1, r4, r5, r9, ip, sp}^
     e8c:	696c2f6e 	stmdbvs	ip!, {r1, r2, r3, r5, r6, r8, r9, sl, fp, sp}^
     e90:	2f697062 	svccs	0x00697062
     e94:	6c636e69 	stclvs	14, cr6, [r3], #-420	; 0xfffffe5c
     e98:	00656475 	rsbeq	r6, r5, r5, ror r4
     e9c:	69706700 	ldmdbvs	r0!, {r8, r9, sl, sp, lr}^
     ea0:	00632e6f 	rsbeq	r2, r3, pc, ror #28
     ea4:	73000001 	movwvc	r0, #1
     ea8:	6e696474 	mcrvs	4, 3, r6, cr9, cr4, {3}
     eac:	63672d74 	cmnvs	r7, #116, 26	; 0x1d00
     eb0:	00682e63 	rsbeq	r2, r8, r3, ror #28
     eb4:	67000002 	strvs	r0, [r0, -r2]
     eb8:	2e6f6970 			; <UNDEFINED> instruction: 0x2e6f6970
     ebc:	00030068 	andeq	r0, r3, r8, rrx
     ec0:	69707200 	ldmdbvs	r0!, {r9, ip, sp, lr}^
     ec4:	0300682e 	movweq	r6, #2094	; 0x82e
     ec8:	05000000 	streq	r0, [r0, #-0]
     ecc:	02050036 	andeq	r0, r5, #54	; 0x36
     ed0:	00008ccc 	andeq	r8, r0, ip, asr #25
     ed4:	0101a403 	tsteq	r1, r3, lsl #8
     ed8:	05050106 	streq	r0, [r5, #-262]	; 0xfffffefa
     edc:	28056706 	stmdacs	r5, {r1, r2, r8, r9, sl, sp, lr}
     ee0:	22050106 	andcs	r0, r5, #-2147483647	; 0x80000001
     ee4:	4a0e0566 	bmi	382484 <__bss_end__+0x37902c>
     ee8:	2f060505 	svccs	0x00060505
     eec:	01061805 	tsteq	r6, r5, lsl #16
     ef0:	0605052e 	streq	r0, [r5], -lr, lsr #10
     ef4:	061f052f 	ldreq	r0, [pc], -pc, lsr #10
     ef8:	4a0e0501 	bmi	382304 <__bss_end__+0x378eac>
     efc:	2f060505 	svccs	0x00060505
     f00:	01061d05 	tsteq	r6, r5, lsl #26
     f04:	4a4a0505 	bmi	1282320 <__bss_end__+0x1278ec8>
     f08:	052f0105 	streq	r0, [pc, #-261]!	; e0b <__code_start__-0x71f5>
     f0c:	0a030624 	beq	c27a4 <__bss_end__+0xb934c>
     f10:	0501064a 	streq	r0, [r1, #-1610]	; 0xfffff9b6
     f14:	052f0605 	streq	r0, [pc, #-1541]!	; 917 <__code_start__-0x76e9>
     f18:	054b0601 	strbeq	r0, [fp, #-1537]	; 0xfffff9ff
     f1c:	06310620 	ldrteq	r0, [r1], -r0, lsr #12
     f20:	06050501 	streq	r0, [r5], -r1, lsl #10
     f24:	0566062f 	strbeq	r0, [r6, #-1583]!	; 0xfffff9d1
     f28:	21052f01 	tstcs	r5, r1, lsl #30
     f2c:	01064d06 	tsteq	r6, r6, lsl #26
     f30:	2f060505 	svccs	0x00060505
     f34:	01056606 	tsteq	r5, r6, lsl #12
     f38:	062b052f 	strteq	r0, [fp], -pc, lsr #10
     f3c:	0501064d 	streq	r0, [r1, #-1613]	; 0xfffff9b3
     f40:	052f0605 	streq	r0, [pc, #-1541]!	; 943 <__code_start__-0x76bd>
     f44:	05010607 	streq	r0, [r1, #-1543]	; 0xfffff9f9
     f48:	064b0608 	strbeq	r0, [fp], -r8, lsl #12
     f4c:	0530062e 	ldreq	r0, [r0, #-1582]!	; 0xfffff9d2
     f50:	052f0601 	streq	r0, [pc, #-1537]!	; 957 <__code_start__-0x76a9>
     f54:	06350623 	ldrteq	r0, [r5], -r3, lsr #12
     f58:	06050501 	streq	r0, [r5], -r1, lsl #10
     f5c:	0601052f 	streq	r0, [r1], -pc, lsr #10
     f60:	061d054b 	ldreq	r0, [sp], -fp, asr #10
     f64:	05010631 	streq	r0, [r1, #-1585]	; 0xfffff9cf
     f68:	054d0605 	strbeq	r0, [sp, #-1541]	; 0xfffff9fb
     f6c:	2e01060c 	cfmadd32cs	mvax0, mvfx0, mvfx1, mvfx12
     f70:	022f0105 	eoreq	r0, pc, #1073741825	; 0x40000001
     f74:	01010008 	tsteq	r1, r8
     f78:	00000093 	muleq	r0, r3, r0
     f7c:	00550003 	subseq	r0, r5, r3
     f80:	01020000 	mrseq	r0, (UNDEF: 2)
     f84:	000d0efb 	strdeq	r0, [sp], -fp
     f88:	01010101 	tsteq	r1, r1, lsl #2
     f8c:	01000000 	mrseq	r0, (UNDEF: 0)
     f90:	2e010000 	cdpcs	0, 0, cr0, cr1, cr0, {0}
     f94:	62696c2f 	rsbvs	r6, r9, #12032	; 0x2f00
     f98:	6f2f0063 	svcvs	0x002f0063
     f9c:	312f7470 			; <UNDEFINED> instruction: 0x312f7470
     fa0:	2f653034 	svccs	0x00653034
     fa4:	34317363 	ldrtcc	r7, [r1], #-867	; 0xfffffc9d
     fa8:	322d6530 	eorcc	r6, sp, #48, 10	; 0xc000000
     fac:	6e697732 	mcrvs	7, 3, r7, cr9, cr2, {1}
     fb0:	62696c2f 	rsbvs	r6, r9, #12032	; 0x2f00
     fb4:	692f6970 	stmdbvs	pc!, {r4, r5, r6, r8, fp, sp, lr}	; <UNPREDICTABLE>
     fb8:	756c636e 	strbvc	r6, [ip, #-878]!	; 0xfffffc92
     fbc:	00006564 	andeq	r6, r0, r4, ror #10
     fc0:	63747570 	cmnvs	r4, #112, 10	; 0x1c000000
     fc4:	2e726168 	rpwcssz	f6, f2, #0.0
     fc8:	00010063 	andeq	r0, r1, r3, rrx
     fcc:	69707200 	ldmdbvs	r0!, {r9, ip, sp, lr}^
     fd0:	0200682e 	andeq	r6, r0, #3014656	; 0x2e0000
     fd4:	05000000 	streq	r0, [r0, #-0]
     fd8:	02050024 	andeq	r0, r5, #36	; 0x24
     fdc:	00008db4 			; <UNDEFINED> instruction: 0x00008db4
     fe0:	05010614 	streq	r0, [r1, #-1556]	; 0xfffff9ec
     fe4:	054a0626 	strbeq	r0, [sl, #-1574]	; 0xfffff9da
     fe8:	3e052e34 	mcrcc	14, 0, r2, cr5, cr4, {1}
     fec:	1b050106 	blne	14140c <__bss_end__+0x137fb4>
     ff0:	05054f06 	streq	r4, [r5, #-3846]	; 0xfffff0fa
     ff4:	06110513 			; <UNDEFINED> instruction: 0x06110513
     ff8:	67010501 	strvs	r0, [r1, -r1, lsl #10]
     ffc:	67062305 	strvs	r2, [r6, -r5, lsl #6]
    1000:	05130505 	ldreq	r0, [r3, #-1285]	; 0xfffffafb
    1004:	05010611 	streq	r0, [r1, #-1553]	; 0xfffff9ef
    1008:	04024b01 	streq	r4, [r2], #-2817	; 0xfffff4ff
    100c:	b1010100 	mrslt	r0, (UNDEF: 17)
    1010:	03000000 	movweq	r0, #0
    1014:	00002600 	andeq	r2, r0, r0, lsl #12
    1018:	fb010200 	blx	41822 <__bss_end__+0x383ca>
    101c:	01000d0e 	tsteq	r0, lr, lsl #26
    1020:	00010101 	andeq	r0, r1, r1, lsl #2
    1024:	00010000 	andeq	r0, r1, r0
    1028:	2f2e0100 	svccs	0x002e0100
    102c:	6362696c 	cmnvs	r2, #108, 18	; 0x1b0000
    1030:	74730000 	ldrbtvc	r0, [r3], #-0
    1034:	74616372 	strbtvc	r6, [r1], #-882	; 0xfffffc8e
    1038:	0100632e 	tsteq	r0, lr, lsr #6
    103c:	05000000 	streq	r0, [r0, #-0]
    1040:	0205002c 	andeq	r0, r5, #44	; 0x2c
    1044:	00008df0 	strdeq	r8, [r0], -r0
    1048:	13050515 	movwne	r0, #21781	; 0x5515
    104c:	060b0513 			; <UNDEFINED> instruction: 0x060b0513
    1050:	00050511 	andeq	r0, r5, r1, lsl r5
    1054:	06010402 	streq	r0, [r1], -r2, lsl #8
    1058:	04020030 	streq	r0, [r2], #-48	; 0xffffffd0
    105c:	09051501 	stmdbeq	r5, {r0, r8, sl, ip}
    1060:	01040200 	mrseq	r0, R12_usr
    1064:	00100513 	andseq	r0, r0, r3, lsl r5
    1068:	06010402 	streq	r0, [r1], -r2, lsl #8
    106c:	000b052e 	andeq	r0, fp, lr, lsr #10
    1070:	2e010402 	cdpcs	4, 0, cr0, cr1, cr2, {0}
    1074:	01040200 	mrseq	r0, R12_usr
    1078:	05052f06 	streq	r2, [r5, #-3846]	; 0xfffff0fa
    107c:	01040200 	mrseq	r0, R12_usr
    1080:	4e060106 	adfmis	f0, f6, f6
    1084:	01060805 	tsteq	r6, r5, lsl #16
    1088:	02000505 	andeq	r0, r0, #20971520	; 0x1400000
    108c:	2f060104 	svccs	0x00060104
    1090:	02000905 	andeq	r0, r0, #81920	; 0x14000
    1094:	05130104 	ldreq	r0, [r3, #-260]	; 0xfffffefc
    1098:	0402000b 	streq	r0, [r2], #-11
    109c:	05010601 	streq	r0, [r1, #-1537]	; 0xfffff9ff
    10a0:	04020009 	streq	r0, [r2], #-9
    10a4:	054b0601 	strbeq	r0, [fp, #-1537]	; 0xfffff9ff
    10a8:	0402000f 	streq	r0, [r2], #-15
    10ac:	05010601 	streq	r0, [r1, #-1537]	; 0xfffff9ff
    10b0:	0402000d 	streq	r0, [r2], #-13
    10b4:	052f0601 	streq	r0, [pc, #-1537]!	; abb <__code_start__-0x7545>
    10b8:	04020005 	streq	r0, [r2], #-5
    10bc:	02010601 	andeq	r0, r1, #1048576	; 0x100000
    10c0:	01010006 	tsteq	r1, r6
    10c4:	0000006e 	andeq	r0, r0, lr, rrx
    10c8:	00260003 	eoreq	r0, r6, r3
    10cc:	01020000 	mrseq	r0, (UNDEF: 2)
    10d0:	000d0efb 	strdeq	r0, [sp], -fp
    10d4:	01010101 	tsteq	r1, r1, lsl #2
    10d8:	01000000 	mrseq	r0, (UNDEF: 0)
    10dc:	2e010000 	cdpcs	0, 0, cr0, cr1, cr0, {0}
    10e0:	62696c2f 	rsbvs	r6, r9, #12032	; 0x2f00
    10e4:	73000063 	movwvc	r0, #99	; 0x63
    10e8:	6d637274 	sfmvs	f7, 2, [r3, #-464]!	; 0xfffffe30
    10ec:	00632e70 	rsbeq	r2, r3, r0, ror lr
    10f0:	00000001 	andeq	r0, r0, r1
    10f4:	05002a05 	streq	r2, [r0, #-2565]	; 0xfffff5fb
    10f8:	008e2402 	addeq	r2, lr, r2, lsl #8
    10fc:	09051400 	stmdbeq	r5, {sl, ip}
    1100:	060f0513 			; <UNDEFINED> instruction: 0x060f0513
    1104:	06110501 	ldreq	r0, [r1], -r1, lsl #10
    1108:	0616052f 	ldreq	r0, [r6], -pc, lsr #10
    110c:	060f052e 	streq	r0, [pc], -lr, lsr #10
    1110:	0610052d 	ldreq	r0, [r0], -sp, lsr #10
    1114:	2e0f0501 	cfsh32cs	mvfx0, mvfx15, #1
    1118:	02001c05 	andeq	r1, r0, #1280	; 0x500
    111c:	054a0104 	strbeq	r0, [sl, #-260]	; 0xfffffefc
    1120:	04020013 	streq	r0, [r2], #-19	; 0xffffffed
    1124:	09052e01 	stmdbeq	r5, {r0, r9, sl, fp, sp}
    1128:	15054c06 	strne	r4, [r5, #-3078]	; 0xfffff3fa
    112c:	01050106 	tsteq	r5, r6, lsl #2
    1130:	0004022f 	andeq	r0, r4, pc, lsr #4
    1134:	00680101 	rsbeq	r0, r8, r1, lsl #2
    1138:	00030000 	andeq	r0, r3, r0
    113c:	00000026 	andeq	r0, r0, r6, lsr #32
    1140:	0efb0102 	cdpeq	1, 15, cr0, cr11, cr2, {0}
    1144:	0101000d 	tsteq	r1, sp
    1148:	00000101 	andeq	r0, r0, r1, lsl #2
    114c:	00000100 	andeq	r0, r0, r0, lsl #2
    1150:	6c2f2e01 	stcvs	14, cr2, [pc], #-4	; 1154 <__code_start__-0x6eac>
    1154:	00636269 	rsbeq	r6, r3, r9, ror #4
    1158:	72747300 	rsbsvc	r7, r4, #0, 6
    115c:	2e797063 	cdpcs	0, 7, cr7, cr9, cr3, {3}
    1160:	00010063 	andeq	r0, r1, r3, rrx
    1164:	2a050000 	bcs	14116c <__bss_end__+0x137d14>
    1168:	54020500 	strpl	r0, [r2], #-1280	; 0xfffffb00
    116c:	1400008e 	strne	r0, [r0], #-142	; 0xffffff72
    1170:	13130505 	tstne	r3, #20971520	; 0x1400000
    1174:	11061405 	tstne	r6, r5, lsl #8
    1178:	02002205 	andeq	r2, r0, #1342177280	; 0x50000000
    117c:	2f060104 	svccs	0x00060104
    1180:	02000b05 	andeq	r0, r0, #5120	; 0x1400
    1184:	05010104 	streq	r0, [r1, #-260]	; 0xfffffefc
    1188:	04020015 	streq	r0, [r2], #-21	; 0xffffffeb
    118c:	05010601 	streq	r0, [r1, #-1537]	; 0xfffff9ff
    1190:	04020013 	streq	r0, [r2], #-19	; 0xffffffed
    1194:	0b054a01 	bleq	1539a0 <__bss_end__+0x14a548>
    1198:	01040200 	mrseq	r0, R12_usr
    119c:	0006024a 	andeq	r0, r6, sl, asr #4
    11a0:	00bd0101 	adcseq	r0, sp, r1, lsl #2
    11a4:	00030000 	andeq	r0, r3, r0
    11a8:	00000081 	andeq	r0, r0, r1, lsl #1
    11ac:	0efb0102 	cdpeq	1, 15, cr0, cr11, cr2, {0}
    11b0:	0101000d 	tsteq	r1, sp
    11b4:	00000101 	andeq	r0, r0, r1, lsl #2
    11b8:	00000100 	andeq	r0, r0, r0, lsl #2
    11bc:	6c2f2e01 	stcvs	14, cr2, [pc], #-4	; 11c0 <__code_start__-0x6e40>
    11c0:	00636269 	rsbeq	r6, r3, r9, ror #4
    11c4:	74706f2f 	ldrbtvc	r6, [r0], #-3887	; 0xfffff0d1
    11c8:	3034312f 	eorscc	r3, r4, pc, lsr #2
    11cc:	63672f65 	cmnvs	r7, #404	; 0x194
    11d0:	72612d63 	rsbvc	r2, r1, #6336	; 0x18c0
    11d4:	6f6e2d6d 	svcvs	0x006e2d6d
    11d8:	652d656e 	strvs	r6, [sp, #-1390]!	; 0xfffffa92
    11dc:	2d696261 	sfmcs	f6, 2, [r9, #-388]!	; 0xfffffe7c
    11e0:	332e3031 			; <UNDEFINED> instruction: 0x332e3031
    11e4:	3230322d 	eorscc	r3, r0, #-805306366	; 0xd0000002
    11e8:	30312e31 	eorscc	r2, r1, r1, lsr lr
    11ec:	62696c2f 	rsbvs	r6, r9, #12032	; 0x2f00
    11f0:	6363672f 	cmnvs	r3, #12320768	; 0xbc0000
    11f4:	6d72612f 	ldfvse	f6, [r2, #-188]!	; 0xffffff44
    11f8:	6e6f6e2d 	cdpvs	14, 6, cr6, cr15, cr13, {1}
    11fc:	61652d65 	cmnvs	r5, r5, ror #26
    1200:	312f6962 			; <UNDEFINED> instruction: 0x312f6962
    1204:	2e332e30 	mrccs	14, 1, r2, cr3, cr0, {1}
    1208:	6e692f31 	mcrvs	15, 3, r2, cr9, cr1, {1}
    120c:	64756c63 	ldrbtvs	r6, [r5], #-3171	; 0xfffff39d
    1210:	73000065 	movwvc	r0, #101	; 0x65
    1214:	636e7274 	cmnvs	lr, #116, 4	; 0x40000007
    1218:	632e706d 			; <UNDEFINED> instruction: 0x632e706d
    121c:	00000100 	andeq	r0, r0, r0, lsl #2
    1220:	64647473 	strbtvs	r7, [r4], #-1139	; 0xfffffb8d
    1224:	682e6665 	stmdavs	lr!, {r0, r2, r5, r6, r9, sl, sp, lr}
    1228:	00000200 	andeq	r0, r0, r0, lsl #4
    122c:	00390500 	eorseq	r0, r9, r0, lsl #10
    1230:	8e740205 	cdphi	2, 7, cr0, cr4, cr5, {0}
    1234:	05150000 	ldreq	r0, [r5, #-0]
    1238:	05131305 	ldreq	r1, [r3, #-773]	; 0xfffffcfb
    123c:	0106010a 	tsteq	r6, sl, lsl #2
    1240:	0609054a 	streq	r0, [r9], -sl, asr #10
    1244:	060c052f 	streq	r0, [ip], -pc, lsr #10
    1248:	2e130501 	cfmul32cs	mvfx0, mvfx3, mvfx1
    124c:	052e0b05 	streq	r0, [lr, #-2821]!	; 0xfffff4fb
    1250:	054b060d 	strbeq	r0, [fp, #-1549]	; 0xfffff9f3
    1254:	2e01061b 	mcrcs	6, 0, r0, cr1, cr11, {0}
    1258:	05300c05 	ldreq	r0, [r0, #-3077]!	; 0xfffff3fb
    125c:	02022f01 	andeq	r2, r2, #1, 30
    1260:	53010100 	movwpl	r0, #4352	; 0x1100
    1264:	03000000 	movweq	r0, #0
    1268:	00003b00 	andeq	r3, r0, r0, lsl #22
    126c:	fb010200 	blx	41a76 <__bss_end__+0x3861e>
    1270:	01000d0e 	tsteq	r0, lr, lsl #26
    1274:	00010101 	andeq	r0, r1, r1, lsl #2
    1278:	00010000 	andeq	r0, r1, r0
    127c:	2f2e0100 	svccs	0x002e0100
    1280:	66617473 			; <UNDEFINED> instruction: 0x66617473
    1284:	72732d66 	rsbsvc	r2, r3, #6528	; 0x1980
    1288:	64000063 	strvs	r0, [r0], #-99	; 0xffffff9d
    128c:	75616665 	strbvc	r6, [r1, #-1637]!	; 0xfffff99b
    1290:	722d746c 	eorvc	r7, sp, #108, 8	; 0x6c000000
    1294:	6f6f6265 	svcvs	0x006f6265
    1298:	61632d74 	smcvs	13012	; 0x32d4
    129c:	756f6c6c 	strbvc	r6, [pc, #-3180]!	; 638 <__code_start__-0x79c8>
    12a0:	00632e74 	rsbeq	r2, r3, r4, ror lr
    12a4:	00000001 	andeq	r0, r0, r1
    12a8:	05001b05 	streq	r1, [r0, #-2821]	; 0xfffff4fb
    12ac:	008ea002 	addeq	sl, lr, r2
    12b0:	1c051400 	cfstrsne	mvf1, [r5], {-0}
    12b4:	00020201 	andeq	r0, r2, r1, lsl #4
    12b8:	Address 0x00000000000012b8 is out of bounds.


Disassembly of section .debug_str:

00000000 <.debug_str>:
   0:	726f6873 	rsbvc	r6, pc, #7536640	; 0x730000
   4:	6e752074 	mrcvs	0, 3, r2, cr5, cr4, {3}
   8:	6e676973 			; <UNDEFINED> instruction: 0x6e676973
   c:	69206465 	stmdbvs	r0!, {r0, r2, r5, r6, sl, sp, lr}
  10:	6e00746e 	cdpvs	4, 0, cr7, cr0, cr14, {3}
  14:	616d746f 	cmnvs	sp, pc, ror #8
  18:	75006e69 	strvc	r6, [r0, #-3689]	; 0xfffff197
  1c:	5f747261 	svcpl	0x00747261
  20:	74696e69 	strbtvc	r6, [r9], #-3689	; 0xfffff197
  24:	736e7500 	cmnvc	lr, #0, 10
  28:	656e6769 	strbvs	r6, [lr, #-1897]!	; 0xfffff897
  2c:	68632064 	stmdavs	r3!, {r2, r5, r6, sp}^
  30:	2f007261 	svccs	0x00007261
  34:	2f74706f 	svccs	0x0074706f
  38:	65303431 	ldrvs	r3, [r0, #-1073]!	; 0xfffffbcf
  3c:	3173632f 	cmncc	r3, pc, lsr #6
  40:	2d653034 	stclcs	0, cr3, [r5, #-208]!	; 0xffffff30
  44:	69773232 	ldmdbvs	r7!, {r1, r4, r5, r9, ip, sp}^
  48:	616c2f6e 	cmnvs	ip, lr, ror #30
  4c:	342f7362 	strtcc	r7, [pc], #-866	; 54 <__code_start__-0x7fac>
  50:	7261752d 	rsbvc	r7, r1, #188743680	; 0xb400000
  54:	61752f74 	cmnvs	r5, r4, ror pc
  58:	742d7472 	strtvc	r7, [sp], #-1138	; 0xfffffb8e
  5c:	73747365 	cmnvc	r4, #-1811939327	; 0x94000001
  60:	6e6f6c00 	cdpvs	12, 6, cr6, cr15, cr0, {0}
  64:	6f6c2067 	svcvs	0x006c2067
  68:	7520676e 	strvc	r6, [r0, #-1902]!	; 0xfffff892
  6c:	6769736e 	strbvs	r7, [r9, -lr, ror #6]!
  70:	2064656e 	rsbcs	r6, r4, lr, ror #10
  74:	00746e69 	rsbseq	r6, r4, r9, ror #28
  78:	20554e47 	subscs	r4, r5, r7, asr #28
  7c:	20393943 	eorscs	r3, r9, r3, asr #18
  80:	332e3031 			; <UNDEFINED> instruction: 0x332e3031
  84:	3220312e 	eorcc	r3, r0, #-2147483637	; 0x8000000b
  88:	30313230 	eorscc	r3, r1, r0, lsr r2
  8c:	20343238 	eorscs	r3, r4, r8, lsr r2
  90:	6c657228 	sfmvs	f7, 2, [r5], #-160	; 0xffffff60
  94:	65736165 	ldrbvs	r6, [r3, #-357]!	; 0xfffffe9b
  98:	6d2d2029 	stcvs	0, cr2, [sp, #-164]!	; 0xffffff5c
  9c:	3d757063 	ldclcc	0, cr7, [r5, #-396]!	; 0xfffffe74
  a0:	316d7261 	cmncc	sp, r1, ror #4
  a4:	6a363731 	bvs	d8dd70 <__bss_end__+0xd84918>
  a8:	732d667a 			; <UNDEFINED> instruction: 0x732d667a
  ac:	746d2d20 	strbtvc	r2, [sp], #-3360	; 0xfffff2e0
  b0:	3d656e75 	stclcc	14, cr6, [r5, #-468]!	; 0xfffffe2c
  b4:	316d7261 	cmncc	sp, r1, ror #4
  b8:	6a363731 	bvs	d8dd84 <__bss_end__+0xd8492c>
  bc:	732d667a 			; <UNDEFINED> instruction: 0x732d667a
  c0:	666d2d20 	strbtvs	r2, [sp], -r0, lsr #26
  c4:	74616f6c 	strbtvc	r6, [r1], #-3948	; 0xfffff094
  c8:	6962612d 	stmdbvs	r2!, {r0, r2, r3, r5, r8, sp, lr}^
  cc:	666f733d 			; <UNDEFINED> instruction: 0x666f733d
  d0:	6d2d2074 	stcvs	0, cr2, [sp, #-464]!	; 0xfffffe30
  d4:	206d7261 	rsbcs	r7, sp, r1, ror #4
  d8:	72616d2d 	rsbvc	r6, r1, #2880	; 0xb40
  dc:	613d6863 	teqvs	sp, r3, ror #16
  e0:	36766d72 			; <UNDEFINED> instruction: 0x36766d72
  e4:	2d207a6b 	vstmdbcs	r0!, {s14-s120}
  e8:	62646767 	rsbvs	r6, r4, #27000832	; 0x19c0000
  ec:	674f2d20 	strbvs	r2, [pc, -r0, lsr #26]
  f0:	74732d20 	ldrbtvc	r2, [r3], #-3360	; 0xfffff2e0
  f4:	6e673d64 	cdpvs	13, 6, cr3, cr7, cr4, {3}
  f8:	20393975 	eorscs	r3, r9, r5, ror r9
  fc:	7266662d 	rsbvc	r6, r6, #47185920	; 0x2d00000
 100:	74736565 	ldrbtvc	r6, [r3], #-1381	; 0xfffffa9b
 104:	69646e61 	stmdbvs	r4!, {r0, r5, r6, r9, sl, fp, sp, lr}^
 108:	2d20676e 	stccs	7, cr6, [r0, #-440]!	; 0xfffffe48
 10c:	696c6166 	stmdbvs	ip!, {r1, r2, r5, r6, r8, sp, lr}^
 110:	662d6e67 	strtvs	r6, [sp], -r7, ror #28
 114:	74636e75 	strbtvc	r6, [r3], #-3701	; 0xfffff18b
 118:	736e6f69 	cmnvc	lr, #420	; 0x1a4
 11c:	3100343d 	tstcc	r0, sp, lsr r4
 120:	6c6c6568 	cfstr64vs	mvdx6, [ip], #-416	; 0xfffffe60
 124:	6e692d6f 	cdpvs	13, 6, cr2, cr9, cr15, {3}
 128:	00632e66 	rsbeq	r2, r3, r6, ror #28
 12c:	676e6f6c 	strbvs	r6, [lr, -ip, ror #30]!
 130:	6e6f6c20 	cdpvs	12, 6, cr6, cr15, cr0, {1}
 134:	6e692067 	cdpvs	0, 6, cr2, cr9, cr7, {3}
 138:	68730074 	ldmdavs	r3!, {r2, r4, r5, r6}^
 13c:	2074726f 	rsbscs	r7, r4, pc, ror #4
 140:	00746e69 	rsbseq	r6, r4, r9, ror #28
 144:	74617473 	strbtvc	r7, [r1], #-1139	; 0xfffffb8d
 148:	7374725f 	cmnvc	r4, #-268435451	; 0xf0000005
 14c:	746e6300 	strbtvc	r6, [lr], #-768	; 0xfffffd00
 150:	78725f6c 	ldmdavc	r2!, {r2, r3, r5, r6, r8, r9, sl, fp, ip, lr}^
 154:	616e655f 	cmnvs	lr, pc, asr r5
 158:	00656c62 	rsbeq	r6, r5, r2, ror #24
 15c:	7261756d 	rsbvc	r7, r1, #457179136	; 0x1b400000
 160:	65725f74 	ldrbvs	r5, [r2, #-3956]!	; 0xfffff08c
 164:	74736967 	ldrbtvc	r6, [r3], #-2407	; 0xfffff699
 168:	00737265 	rsbseq	r7, r3, r5, ror #4
 16c:	74617473 	strbtvc	r7, [r1], #-1139	; 0xfffffb8d
 170:	5f78745f 	svcpl	0x0078745f
 174:	69617661 	stmdbvs	r1!, {r0, r5, r6, r9, sl, ip, sp, lr}^
 178:	6c62616c 	stfvse	f6, [r2], #-432	; 0xfffffe50
 17c:	74730065 	ldrbtvc	r0, [r3], #-101	; 0xffffff9b
 180:	745f7461 	ldrbvc	r7, [pc], #-1121	; 188 <__code_start__-0x7e78>
 184:	6f645f78 	svcvs	0x00645f78
 188:	6300656e 	movwvs	r6, #1390	; 0x56e
 18c:	5f6c746e 	svcpl	0x006c746e
 190:	655f7874 	ldrbvs	r7, [pc, #-2164]	; fffff924 <__bss_end__+0xffff64cc>
 194:	6c62616e 	stfvse	f6, [r2], #-440	; 0xfffffe48
 198:	74730065 	ldrbtvc	r0, [r3], #-101	; 0xffffff9b
 19c:	745f7461 	ldrbvc	r7, [pc], #-1121	; 1a4 <__code_start__-0x7e5c>
 1a0:	64695f78 	strbtvs	r5, [r9], #-3960	; 0xfffff088
 1a4:	6100656c 	tstvs	r0, ip, ror #10
 1a8:	6e657875 	mcrvs	8, 3, r7, cr5, cr5, {3}
 1ac:	61755f62 	cmnvs	r5, r2, ror #30
 1b0:	6c007472 	cfstrsvs	mvf7, [r0], {114}	; 0x72
 1b4:	725f7273 	subsvc	r7, pc, #805306375	; 0x30000007
 1b8:	766f5f78 	uqsub16vc	r5, pc, r8	; <UNPREDICTABLE>
 1bc:	75727265 	ldrbvc	r7, [r2, #-613]!	; 0xfffffd9b
 1c0:	636c006e 	cmnvs	ip, #110	; 0x6e
 1c4:	61645f72 	smcvs	17906	; 0x45f2
 1c8:	735f6174 	cmpvc	pc, #116, 2
 1cc:	00657a69 	rsbeq	r7, r5, r9, ror #20
 1d0:	7272736c 	rsbsvc	r7, r2, #108, 6	; 0xb0000001
 1d4:	47006765 	strmi	r6, [r0, -r5, ror #14]
 1d8:	5f4f4950 	svcpl	0x004f4950
 1dc:	434e5546 	movtmi	r5, #58694	; 0xe546
 1e0:	54554f5f 	ldrbpl	r4, [r5], #-3935	; 0xfffff0a1
 1e4:	00545550 	subseq	r5, r4, r0, asr r5
 1e8:	7272636c 	rsbsvc	r6, r2, #108, 6	; 0xb0000001
 1ec:	665f6765 	ldrbvs	r6, [pc], -r5, ror #14
 1f0:	646c6569 	strbtvs	r6, [ip], #-1385	; 0xfffffa97
 1f4:	74730073 	ldrbtvc	r0, [r3], #-115	; 0xffffff8d
 1f8:	725f7461 	subsvc	r7, pc, #1627389952	; 0x61000000
 1fc:	76615f78 	uqsub16vc	r5, r1, r8
 200:	616c6961 	cmnvs	ip, r1, ror #18
 204:	00656c62 	rsbeq	r6, r5, r2, ror #24
 208:	74617473 	strbtvc	r7, [r1], #-1139	; 0xfffffb8d
 20c:	756e755f 	strbvc	r7, [lr, #-1375]!	; 0xfffffaa1
 210:	00646573 	rsbeq	r6, r4, r3, ror r5
 214:	7272736c 	rsbsvc	r7, r2, #108, 6	; 0xb0000001
 218:	665f6765 	ldrbvs	r6, [pc], -r5, ror #14
 21c:	646c6569 	strbtvs	r6, [ip], #-1385	; 0xfffffa97
 220:	61750073 	cmnvs	r5, r3, ror r0
 224:	675f7472 			; <UNDEFINED> instruction: 0x675f7472
 228:	5f637465 	svcpl	0x00637465
 22c:	6e797361 	cdpvs	3, 7, cr7, cr9, cr1, {3}
 230:	50470063 	subpl	r0, r7, r3, rrx
 234:	465f4f49 	ldrbmi	r4, [pc], -r9, asr #30
 238:	5f434e55 	svcpl	0x00434e55
 23c:	30544c41 	subscc	r4, r4, r1, asr #24
 240:	49504700 	ldmdbmi	r0, {r8, r9, sl, lr}^
 244:	55465f4f 	strbpl	r5, [r6, #-3919]	; 0xfffff0b1
 248:	415f434e 	cmpmi	pc, lr, asr #6
 24c:	0031544c 	eorseq	r5, r1, ip, asr #8
 250:	4f495047 	svcmi	0x00495047
 254:	4e55465f 	mrcmi	6, 2, r4, cr5, cr15, {2}
 258:	4c415f43 	mcrrmi	15, 4, r5, r1, cr3
 25c:	47003254 	smlsdmi	r0, r4, r2, r3
 260:	5f4f4950 	svcpl	0x004f4950
 264:	434e5546 	movtmi	r5, #58694	; 0xe546
 268:	544c415f 	strbpl	r4, [ip], #-351	; 0xfffffea1
 26c:	50470033 	subpl	r0, r7, r3, lsr r0
 270:	465f4f49 	ldrbmi	r4, [pc], -r9, asr #30
 274:	5f434e55 	svcpl	0x00434e55
 278:	34544c41 	ldrbcc	r4, [r4], #-3137	; 0xfffff3bf
 27c:	49504700 	ldmdbmi	r0, {r8, r9, sl, lr}^
 280:	55465f4f 	strbpl	r5, [r6, #-3919]	; 0xfffff0b1
 284:	415f434e 	cmpmi	pc, lr, asr #6
 288:	0035544c 	eorseq	r5, r5, ip, asr #8
 28c:	74726175 	ldrbtvc	r6, [r2], #-373	; 0xfffffe8b
 290:	6e61635f 	mcrvs	3, 3, r6, cr1, cr15, {2}
 294:	7475705f 	ldrbtvc	r7, [r5], #-95	; 0xffffffa1
 298:	69750063 	ldmdbvs	r5!, {r0, r1, r5, r6}^
 29c:	5f38746e 	svcpl	0x0038746e
 2a0:	65690074 	strbvs	r0, [r9, #-116]!	; 0xffffff8c
 2a4:	67657272 			; <UNDEFINED> instruction: 0x67657272
 2a8:	72656900 	rsbvc	r6, r5, #0, 18
 2ac:	5f78745f 	svcpl	0x0078745f
 2b0:	65746e69 	ldrbvs	r6, [r4, #-3689]!	; 0xfffff197
 2b4:	70757272 	rsbsvc	r7, r5, r2, ror r2
 2b8:	61620074 	smcvs	8196	; 0x2004
 2bc:	725f6475 	subsvc	r6, pc, #1962934272	; 0x75000000
 2c0:	00657461 	rsbeq	r7, r5, r1, ror #8
 2c4:	65726f69 	ldrbvs	r6, [r2, #-3945]!	; 0xfffff097
 2c8:	00745f67 	rsbseq	r5, r4, r7, ror #30
 2cc:	5f726969 	svcpl	0x00726969
 2d0:	00706167 	rsbseq	r6, r0, r7, ror #2
 2d4:	74617473 	strbtvc	r7, [r1], #-1139	; 0xfffffb8d
 2d8:	7374635f 	cmnvc	r4, #2080374785	; 0x7c000001
 2dc:	78756100 	ldmdavc	r5!, {r8, sp, lr}^
 2e0:	5f626e65 	svcpl	0x00626e65
 2e4:	73756e75 	cmnvc	r5, #1872	; 0x750
 2e8:	63006465 	movwvs	r6, #1125	; 0x465
 2ec:	726c746e 	rsbvc	r7, ip, #1845493760	; 0x6e000000
 2f0:	73006765 	movwvc	r6, #1893	; 0x765
 2f4:	72746174 	rsbsvc	r6, r4, #116, 2
 2f8:	73006765 	movwvc	r6, #1893	; 0x765
 2fc:	5f746174 	svcpl	0x00746174
 300:	665f7874 			; <UNDEFINED> instruction: 0x665f7874
 304:	006c6c75 	rsbeq	r6, ip, r5, ror ip
 308:	74726175 	ldrbtvc	r6, [r2], #-373	; 0xfffffe8b
 30c:	7465675f 	strbtvc	r6, [r5], #-1887	; 0xfffff8a1
 310:	65690063 	strbvs	r0, [r9, #-99]!	; 0xffffff9d
 314:	6e755f72 	mrcvs	15, 3, r5, cr5, cr2, {3}
 318:	64657375 	strbtvs	r7, [r5], #-885	; 0xfffffc8b
 31c:	75616200 	strbvc	r6, [r1, #-512]!	; 0xfffffe00
 320:	65725f64 	ldrbvs	r5, [r2, #-3940]!	; 0xfffff09c
 324:	76726573 			; <UNDEFINED> instruction: 0x76726573
 328:	6c006465 	cfstrsvs	mvf6, [r0], {101}	; 0x65
 32c:	745f7273 	ldrbvc	r7, [pc], #-627	; 334 <__code_start__-0x7ccc>
 330:	61645f78 	smcvs	17912	; 0x45f8
 334:	725f6174 	subsvc	r6, pc, #116, 2
 338:	79646165 	stmdbvc	r4!, {r0, r2, r5, r6, r8, sp, lr}^
 33c:	78756100 	ldmdavc	r5!, {r8, sp, lr}^
 340:	5f626e65 	svcpl	0x00626e65
 344:	6c656966 			; <UNDEFINED> instruction: 0x6c656966
 348:	6c007364 	stcvs	3, cr7, [r0], {100}	; 0x64
 34c:	675f7273 			; <UNDEFINED> instruction: 0x675f7273
 350:	69007061 	stmdbvs	r0, {r0, r5, r6, ip, sp, lr}
 354:	725f7269 	subsvc	r7, pc, #-1879048186	; 0x90000006
 358:	69665f78 	stmdbvs	r6!, {r3, r4, r5, r6, r8, r9, sl, fp, ip, lr}^
 35c:	635f6f66 	cmpvs	pc, #408	; 0x198
 360:	7261656c 	rsbvc	r6, r1, #108, 10	; 0x1b000000
 364:	78756100 	ldmdavc	r5!, {r8, sp, lr}^
 368:	00717269 	rsbseq	r7, r1, r9, ror #4
 36c:	4f495047 	svcmi	0x00495047
 370:	4e55465f 	mrcmi	6, 2, r4, cr5, cr15, {2}
 374:	4e495f43 	cdpmi	15, 4, cr5, cr9, cr3, {2}
 378:	00545550 	subseq	r5, r4, r0, asr r5
 37c:	20554e47 	subscs	r4, r5, r7, asr #28
 380:	20393943 	eorscs	r3, r9, r3, asr #18
 384:	332e3031 			; <UNDEFINED> instruction: 0x332e3031
 388:	3220312e 	eorcc	r3, r0, #-2147483637	; 0x8000000b
 38c:	30313230 	eorscc	r3, r1, r0, lsr r2
 390:	20343238 	eorscs	r3, r4, r8, lsr r2
 394:	6c657228 	sfmvs	f7, 2, [r5], #-160	; 0xffffff60
 398:	65736165 	ldrbvs	r6, [r3, #-357]!	; 0xfffffe9b
 39c:	6d2d2029 	stcvs	0, cr2, [sp, #-164]!	; 0xffffff5c
 3a0:	3d757063 	ldclcc	0, cr7, [r5, #-396]!	; 0xfffffe74
 3a4:	316d7261 	cmncc	sp, r1, ror #4
 3a8:	6a363731 	bvs	d8e074 <__bss_end__+0xd84c1c>
 3ac:	732d667a 			; <UNDEFINED> instruction: 0x732d667a
 3b0:	746d2d20 	strbtvc	r2, [sp], #-3360	; 0xfffff2e0
 3b4:	3d656e75 	stclcc	14, cr6, [r5, #-468]!	; 0xfffffe2c
 3b8:	316d7261 	cmncc	sp, r1, ror #4
 3bc:	6a363731 	bvs	d8e088 <__bss_end__+0xd84c30>
 3c0:	732d667a 			; <UNDEFINED> instruction: 0x732d667a
 3c4:	666d2d20 	strbtvs	r2, [sp], -r0, lsr #26
 3c8:	74616f6c 	strbtvc	r6, [r1], #-3948	; 0xfffff094
 3cc:	6962612d 	stmdbvs	r2!, {r0, r2, r3, r5, r8, sp, lr}^
 3d0:	666f733d 			; <UNDEFINED> instruction: 0x666f733d
 3d4:	6d2d2074 	stcvs	0, cr2, [sp, #-464]!	; 0xfffffe30
 3d8:	206d7261 	rsbcs	r7, sp, r1, ror #4
 3dc:	72616d2d 	rsbvc	r6, r1, #2880	; 0xb40
 3e0:	613d6863 	teqvs	sp, r3, ror #16
 3e4:	36766d72 			; <UNDEFINED> instruction: 0x36766d72
 3e8:	2d207a6b 	vstmdbcs	r0!, {s14-s120}
 3ec:	62646767 	rsbvs	r6, r4, #27000832	; 0x19c0000
 3f0:	674f2d20 	strbvs	r2, [pc, -r0, lsr #26]
 3f4:	74732d20 	ldrbtvc	r2, [r3], #-3360	; 0xfffff2e0
 3f8:	6e673d64 	cdpvs	13, 6, cr3, cr7, cr4, {3}
 3fc:	20393975 	eorscs	r3, r9, r5, ror r9
 400:	7266662d 	rsbvc	r6, r6, #47185920	; 0x2d00000
 404:	74736565 	ldrbtvc	r6, [r3], #-1381	; 0xfffffa9b
 408:	69646e61 	stmdbvs	r4!, {r0, r5, r6, r9, sl, fp, sp, lr}^
 40c:	6100676e 	tstvs	r0, lr, ror #14
 410:	72697875 	rsbvc	r7, r9, #7667712	; 0x750000
 414:	69665f71 	stmdbvs	r6!, {r0, r4, r5, r6, r8, r9, sl, fp, ip, lr}^
 418:	73646c65 	cmnvc	r4, #25856	; 0x6500
 41c:	54555000 	ldrbpl	r5, [r5], #-0
 420:	69003233 	stmdbvs	r0, {r0, r1, r4, r5, r9, ip, sp}
 424:	745f7269 	ldrbvc	r7, [pc], #-617	; 42c <__code_start__-0x7bd4>
 428:	69665f78 	stmdbvs	r6!, {r3, r4, r5, r6, r8, r9, sl, fp, ip, lr}^
 42c:	635f6f66 	cmpvs	pc, #408	; 0x198
 430:	7261656c 	rsbvc	r6, r1, #108, 10	; 0x1b000000
 434:	72696900 	rsbvc	r6, r9, #0, 18
 438:	5f676572 	svcpl	0x00676572
 43c:	6c656966 			; <UNDEFINED> instruction: 0x6c656966
 440:	69007364 	stmdbvs	r0, {r2, r5, r6, r8, r9, ip, sp, lr}
 444:	61645f6f 	cmnvs	r4, pc, ror #30
 448:	6d006174 	stfvss	f6, [r0, #-464]	; 0xfffffe30
 44c:	65727263 	ldrbvs	r7, [r2, #-611]!	; 0xfffffd9d
 450:	6e755f67 	cdpvs	15, 7, cr5, cr5, cr7, {3}
 454:	64657375 	strbtvs	r7, [r5], #-885	; 0xfffffc8b
 458:	72617500 	rsbvc	r7, r1, #0, 10
 45c:	61685f74 	smcvs	34292	; 0x85f4
 460:	61645f73 	smcvs	17907	; 0x45f3
 464:	6d006174 	stfvss	f6, [r0, #-464]	; 0xfffffe30
 468:	65727273 	ldrbvs	r7, [r2, #-627]!	; 0xfffffd8d
 46c:	6e755f67 	cdpvs	15, 7, cr5, cr5, cr7, {3}
 470:	64657375 	strbtvs	r7, [r5], #-885	; 0xfffffc8b
 474:	72696900 	rsbvc	r6, r9, #0, 18
 478:	00676572 	rsbeq	r6, r7, r2, ror r5
 47c:	64756162 	ldrbtvs	r6, [r5], #-354	; 0xfffffe9e
 480:	00676572 	rsbeq	r6, r7, r2, ror r5
 484:	74617473 	strbtvc	r7, [r1], #-1139	; 0xfffffb8d
 488:	5f676572 	svcpl	0x00676572
 48c:	6c656966 			; <UNDEFINED> instruction: 0x6c656966
 490:	2e007364 	cdpcs	3, 0, cr7, cr0, cr4, {3}
 494:	6372732f 	cmnvs	r2, #-1140850688	; 0xbc000000
 498:	7261752f 	rsbvc	r7, r1, #197132288	; 0xbc00000
 49c:	00632e74 	rsbeq	r2, r3, r4, ror lr
 4a0:	5f72736c 	svcpl	0x0072736c
 4a4:	6f5f7874 	svcvs	0x005f7874
 4a8:	72726576 	rsbsvc	r6, r2, #494927872	; 0x1d800000
 4ac:	69006e75 	stmdbvs	r0, {r0, r2, r4, r5, r6, r9, sl, fp, sp, lr}
 4b0:	725f7265 	subsvc	r7, pc, #1342177286	; 0x50000006
 4b4:	6e695f78 	mcrvs	15, 3, r5, cr9, cr8, {3}
 4b8:	72726574 	rsbsvc	r6, r2, #116, 10	; 0x1d000000
 4bc:	00747075 	rsbseq	r7, r4, r5, ror r0
 4c0:	6f697067 	svcvs	0x00697067
 4c4:	7465735f 	strbtvc	r7, [r5], #-863	; 0xfffffca1
 4c8:	6e75665f 	mrcvs	6, 3, r6, cr5, cr15, {2}
 4cc:	6f697463 	svcvs	0x00697463
 4d0:	7473006e 	ldrbtvc	r0, [r3], #-110	; 0xffffff92
 4d4:	725f7461 	subsvc	r7, pc, #1627389952	; 0x61000000
 4d8:	64695f78 	strbtvs	r5, [r9], #-3960	; 0xfffff088
 4dc:	6d00656c 	cfstr32vs	mvfx6, [r0, #-432]	; 0xfffffe50
 4e0:	74726175 	ldrbtvc	r6, [r2], #-373	; 0xfffffe8b
 4e4:	6765725f 			; <UNDEFINED> instruction: 0x6765725f
 4e8:	65747369 	ldrbvs	r7, [r4, #-873]!	; 0xfffffc97
 4ec:	745f7372 	ldrbvc	r7, [pc], #-882	; 4f4 <__code_start__-0x7b0c>
 4f0:	78756100 	ldmdavc	r5!, {r8, sp, lr}^
 4f4:	5f717269 	svcpl	0x00717269
 4f8:	73756e75 	cmnvc	r5, #1872	; 0x750
 4fc:	63006465 	movwvs	r6, #1125	; 0x465
 500:	5f6c746e 	svcpl	0x006c746e
 504:	73756e75 	cmnvc	r5, #1872	; 0x750
 508:	75006465 	strvc	r6, [r0, #-1125]	; 0xfffffb9b
 50c:	5f747261 	svcpl	0x00747261
 510:	73756c66 	cmnvc	r5, #26112	; 0x6600
 514:	78745f68 	ldmdavc	r4!, {r3, r5, r6, r8, r9, sl, fp, ip, lr}^
 518:	72617500 	rsbvc	r7, r1, #0, 10
 51c:	61635f74 	smcvs	13812	; 0x35f4
 520:	65675f6e 	strbvs	r5, [r7, #-3950]!	; 0xfffff092
 524:	75006374 	strvc	r6, [r0, #-884]	; 0xfffffc8c
 528:	5f747261 	svcpl	0x00747261
 52c:	695f7874 	ldmdbvs	pc, {r2, r4, r5, r6, fp, ip, sp, lr}^	; <UNPREDICTABLE>
 530:	6d655f73 	stclvs	15, cr5, [r5, #-460]!	; 0xfffffe34
 534:	00797470 	rsbseq	r7, r9, r0, ror r4
 538:	7272636c 	rsbsvc	r6, r2, #108, 6	; 0xb0000001
 53c:	2f006765 	svccs	0x00006765
 540:	2f74706f 	svccs	0x0074706f
 544:	65303431 	ldrvs	r3, [r0, #-1073]!	; 0xfffffbcf
 548:	3173632f 	cmncc	r3, pc, lsr #6
 54c:	2d653034 	stclcs	0, cr3, [r5, #-208]!	; 0xffffff30
 550:	69773232 	ldmdbvs	r7!, {r1, r4, r5, r9, ip, sp}^
 554:	696c2f6e 	stmdbvs	ip!, {r1, r2, r3, r5, r6, r8, r9, sl, fp, sp}^
 558:	00697062 	rsbeq	r7, r9, r2, rrx
 55c:	5f726969 	svcpl	0x00726969
 560:	65736572 	ldrbvs	r6, [r3, #-1394]!	; 0xfffffa8e
 564:	64657672 	strbtvs	r7, [r5], #-1650	; 0xfffff98e
 568:	726f6900 	rsbvc	r6, pc, #0, 18
 56c:	61006765 	tstvs	r0, r5, ror #14
 570:	735f7875 	cmpvc	pc, #7667712	; 0x750000
 574:	74726174 	ldrbtvc	r6, [r2], #-372	; 0xfffffe8c
 578:	72637300 	rsbvc	r7, r3, #0, 6
 57c:	68637461 	stmdavs	r3!, {r0, r5, r6, sl, ip, sp, lr}^
 580:	5f676572 	svcpl	0x00676572
 584:	73756e75 	cmnvc	r5, #1872	; 0x750
 588:	61006465 	tstvs	r0, r5, ror #8
 58c:	6e657875 	mcrvs	8, 3, r7, cr5, cr5, {3}
 590:	61620062 	cmnvs	r2, r2, rrx
 594:	65726475 	ldrbvs	r6, [r2, #-1141]!	; 0xfffffb8b
 598:	69665f67 	stmdbvs	r6!, {r0, r1, r2, r5, r6, r8, r9, sl, fp, ip, lr}^
 59c:	73646c65 	cmnvc	r4, #25856	; 0x6500
 5a0:	5f6f6900 	svcpl	0x006f6900
 5a4:	65736572 	ldrbvs	r6, [r3, #-1394]!	; 0xfffffa8e
 5a8:	64657672 	strbtvs	r7, [r5], #-1650	; 0xfffff98e
 5ac:	746e6300 	strbtvc	r6, [lr], #-768	; 0xfffffd00
 5b0:	6765726c 	strbvs	r7, [r5, -ip, ror #4]!
 5b4:	6569665f 	strbvs	r6, [r9, #-1631]!	; 0xfffff9a1
 5b8:	0073646c 	rsbseq	r6, r3, ip, ror #8
 5bc:	74726175 	ldrbtvc	r6, [r2], #-373	; 0xfffffe8b
 5c0:	7475705f 	ldrbtvc	r7, [r5], #-95	; 0xffffffa1
 5c4:	74730063 	ldrbtvc	r0, [r3], #-99	; 0xffffff9d
 5c8:	745f7461 	ldrbvc	r7, [pc], #-1121	; 5d0 <__code_start__-0x7a30>
 5cc:	6d655f78 	stclvs	15, cr5, [r5, #-480]!	; 0xfffffe20
 5d0:	00797470 	rsbseq	r7, r9, r0, ror r4
 5d4:	74726175 	ldrbtvc	r6, [r2], #-373	; 0xfffffe8b
 5d8:	7369645f 	cmnvc	r9, #1593835520	; 0x5f000000
 5dc:	656c6261 	strbvs	r6, [ip, #-609]!	; 0xfffffd9f
 5e0:	72736c00 	rsbsvc	r6, r3, #0, 24
 5e4:	5f78725f 	svcpl	0x0078725f
 5e8:	61746164 	cmnvs	r4, r4, ror #2
 5ec:	6165725f 	cmnvs	r5, pc, asr r2
 5f0:	69007964 	stmdbvs	r0, {r2, r5, r6, r8, fp, ip, sp, lr}
 5f4:	65727265 	ldrbvs	r7, [r2, #-613]!	; 0xfffffd9b
 5f8:	69665f67 	stmdbvs	r6!, {r0, r1, r2, r5, r6, r8, r9, sl, fp, ip, lr}^
 5fc:	73646c65 	cmnvc	r4, #25856	; 0x6500
 600:	54454700 	strbpl	r4, [r5], #-1792	; 0xfffff900
 604:	6c003233 	sfmvs	f3, 4, [r0], {51}	; 0x33
 608:	725f7273 	subsvc	r7, pc, #805306375	; 0x30000007
 60c:	72657365 	rsbvc	r7, r5, #-1811939327	; 0x94000001
 610:	00646576 	rsbeq	r6, r4, r6, ror r5
 614:	74617473 	strbtvc	r7, [r1], #-1139	; 0xfffffb8d
 618:	5f676572 	svcpl	0x00676572
 61c:	6f690074 	svcvs	0x00690074
 620:	5f676572 	svcpl	0x00676572
 624:	6c656966 			; <UNDEFINED> instruction: 0x6c656966
 628:	6c007364 	stcvs	3, cr7, [r0], {100}	; 0x64
 62c:	725f7263 	subsvc	r7, pc, #805306374	; 0x30000006
 630:	72657365 	rsbvc	r7, r5, #-1811939327	; 0x94000001
 634:	00646576 	rsbeq	r6, r4, r6, ror r5
 638:	74617473 	strbtvc	r7, [r1], #-1139	; 0xfffffb8d
 63c:	5f78725f 	svcpl	0x0078725f
 640:	7265766f 	rsbvc	r7, r5, #116391936	; 0x6f00000
 644:	006e7572 	rsbeq	r7, lr, r2, ror r5
 648:	5f726969 	svcpl	0x00726969
 64c:	65746e69 	ldrbvs	r6, [r4, #-3689]!	; 0xfffff197
 650:	70757272 	rsbsvc	r7, r5, r2, ror r2
 654:	65705f74 	ldrbvs	r5, [r0, #-3956]!	; 0xfffff08c
 658:	6e69646e 	cdpvs	4, 6, cr6, cr9, cr14, {3}
 65c:	72610067 	rsbvc	r0, r1, #103	; 0x67
 660:	76007367 	strvc	r7, [r0], -r7, ror #6
 664:	72705f61 	rsbsvc	r5, r0, #388	; 0x184
 668:	6b746e69 	blvs	1d1c014 <__bss_end__+0x1d12bbc>
 66c:	675f5f00 	ldrbvs	r5, [pc, -r0, lsl #30]
 670:	5f63756e 	svcpl	0x0063756e
 674:	6c5f6176 	ldfvse	f6, [pc], {118}	; 0x76
 678:	00747369 	rsbseq	r7, r4, r9, ror #6
 67c:	70615f5f 	rsbvc	r5, r1, pc, asr pc
 680:	6c2f2e00 	stcvs	14, cr2, [pc], #-0	; 688 <__code_start__-0x7978>
 684:	2f636269 	svccs	0x00636269
 688:	6e697270 	mcrvs	2, 3, r7, cr9, cr0, {3}
 68c:	632e6b74 			; <UNDEFINED> instruction: 0x632e6b74
 690:	765f5f00 	ldrbvc	r5, [pc], -r0, lsl #30
 694:	696c5f61 	stmdbvs	ip!, {r0, r5, r6, r8, r9, sl, fp, ip, lr}^
 698:	69007473 	stmdbvs	r0, {r0, r1, r4, r5, r6, sl, ip, sp, lr}
 69c:	7265746e 	rsbvc	r7, r5, #1845493760	; 0x6e000000
 6a0:	5f6c616e 	svcpl	0x006c616e
 6a4:	6b747570 	blvs	1d1dc6c <__bss_end__+0x1d14814>
 6a8:	69707200 	ldmdbvs	r0!, {r9, ip, sp, lr}^
 6ac:	7475705f 	ldrbtvc	r7, [r5], #-95	; 0xffffffa1
 6b0:	72616863 	rsbvc	r6, r1, #6488064	; 0x630000
 6b4:	6c2f2e00 	stcvs	14, cr2, [pc], #-0	; 6bc <__code_start__-0x7944>
 6b8:	2f636269 	svccs	0x00636269
 6bc:	6b747570 	blvs	1d1dc84 <__bss_end__+0x1d1482c>
 6c0:	6900632e 	stmdbvs	r0, {r1, r2, r3, r5, r8, r9, sp, lr}
 6c4:	67696473 			; <UNDEFINED> instruction: 0x67696473
 6c8:	75007469 	strvc	r7, [r0, #-1129]	; 0xfffffb97
 6cc:	36746e69 	ldrbtcc	r6, [r4], -r9, ror #28
 6d0:	00745f34 	rsbseq	r5, r4, r4, lsr pc
 6d4:	696c2f2e 	stmdbvs	ip!, {r1, r2, r3, r5, r8, r9, sl, fp, sp}^
 6d8:	762f6362 	strtvc	r6, [pc], -r2, ror #6
 6dc:	72702d61 	rsbsvc	r2, r0, #6208	; 0x1840
 6e0:	6b746e69 	blvs	1d1c08c <__bss_end__+0x1d12c34>
 6e4:	7700632e 	strvc	r6, [r0, -lr, lsr #6]
 6e8:	68746469 	ldmdavs	r4!, {r0, r3, r5, r6, sl, sp, lr}^
 6ec:	465f5f00 	ldrbmi	r5, [pc], -r0, lsl #30
 6f0:	54434e55 	strbpl	r4, [r3], #-3669	; 0xfffff1ab
 6f4:	5f4e4f49 	svcpl	0x004e4f49
 6f8:	6c63005f 	stclvs	0, cr0, [r3], #-380	; 0xfffffe84
 6fc:	5f6e6165 	svcpl	0x006e6165
 700:	6f626572 	svcvs	0x00626572
 704:	7000746f 	andvc	r7, r0, pc, ror #8
 708:	5f637475 	svcpl	0x00637475
 70c:	75007066 	strvc	r7, [r0, #-102]	; 0xffffff9a
 710:	33746e69 	cmncc	r4, #1680	; 0x690
 714:	00745f32 	rsbseq	r5, r4, r2, lsr pc
 718:	5f697072 	svcpl	0x00697072
 71c:	5f746573 	svcpl	0x00746573
 720:	7074756f 	rsbsvc	r7, r4, pc, ror #10
 724:	66007475 			; <UNDEFINED> instruction: 0x66007475
 728:	735f746d 	cmpvc	pc, #1828716544	; 0x6d000000
 72c:	74726174 	ldrbtvc	r6, [r2], #-372	; 0xfffffe8c
 730:	72747300 	rsbsvc	r7, r4, #0, 6
 734:	00746163 	rsbseq	r6, r4, r3, ror #2
 738:	63727473 	cmnvs	r2, #1929379840	; 0x73000000
 73c:	6e007970 			; <UNDEFINED> instruction: 0x6e007970
 740:	705f6765 	subsvc	r6, pc, r5, ror #14
 744:	696d6500 	stmdbvs	sp!, {r8, sl, sp, lr}^
 748:	75700074 	ldrbvc	r0, [r0, #-116]!	; 0xffffff8c
 74c:	665f7374 			; <UNDEFINED> instruction: 0x665f7374
 750:	65720070 	ldrbvs	r0, [r2, #-112]!	; 0xffffff90
 754:	73726576 	cmnvc	r2, #494927872	; 0x1d800000
 758:	74730065 	ldrbtvc	r0, [r3], #-101	; 0xffffff9b
 75c:	706d6372 	rsbvc	r6, sp, r2, ror r3
 760:	6d756e00 	ldclvs	14, cr6, [r5, #-0]
 764:	74730031 	ldrbtvc	r0, [r3], #-49	; 0xffffffcf
 768:	6d636e72 	stclvs	14, cr6, [r3, #-456]!	; 0xfffffe38
 76c:	61620070 	smcvs	8192	; 0x2000
 770:	73006573 	movwvc	r6, #1395	; 0x573
 774:	656e6769 	strbvs	r6, [lr, #-1897]!	; 0xfffff897
 778:	00705f64 	rsbseq	r5, r0, r4, ror #30
 77c:	5f697072 	svcpl	0x00697072
 780:	6f626572 	svcvs	0x00626572
 784:	6400746f 	strvs	r7, [r0], #-1135	; 0xfffffb91
 788:	79616c65 	stmdbvc	r1!, {r0, r2, r5, r6, sl, fp, sp, lr}^
 78c:	00736d5f 	rsbseq	r6, r3, pc, asr sp
 790:	74732f2e 	ldrbtvc	r2, [r3], #-3886	; 0xfffff0d2
 794:	2d666661 	stclcs	6, cr6, [r6, #-388]!	; 0xfffffe7c
 798:	2f637273 	svccs	0x00637273
 79c:	61656c63 	cmnvs	r5, r3, ror #24
 7a0:	65722d6e 	ldrbvs	r2, [r2, #-3438]!	; 0xfffff292
 7a4:	746f6f62 	strbtvc	r6, [pc], #-3938	; 7ac <__code_start__-0x7854>
 7a8:	5f00632e 	svcpl	0x0000632e
 7ac:	7373625f 	cmnvc	r3, #-268435451	; 0xf0000005
 7b0:	6174735f 	cmnvs	r4, pc, asr r3
 7b4:	5f5f7472 	svcpl	0x005f7472
 7b8:	73635f00 	cmnvc	r3, #0, 30
 7bc:	74726174 	ldrbtvc	r6, [r2], #-372	; 0xfffffe8c
 7c0:	73736200 	cmnvc	r3, #0, 4
 7c4:	646e655f 	strbtvs	r6, [lr], #-1375	; 0xfffffaa1
 7c8:	73756300 	cmnvc	r5, #0, 6
 7cc:	5f6d6f74 	svcpl	0x006d6f74
 7d0:	64616f6c 	strbtvs	r6, [r1], #-3948	; 0xfffff094
 7d4:	2e007265 	cdpcs	2, 0, cr7, cr0, cr5, {3}
 7d8:	6174732f 	cmnvs	r4, pc, lsr #6
 7dc:	732d6666 			; <UNDEFINED> instruction: 0x732d6666
 7e0:	632f6372 			; <UNDEFINED> instruction: 0x632f6372
 7e4:	72617473 	rsbvc	r7, r1, #1929379840	; 0x73000000
 7e8:	00632e74 	rsbeq	r2, r3, r4, ror lr
 7ec:	73625f5f 	cmnvc	r2, #380	; 0x17c
 7f0:	6e655f73 	mcrvs	15, 3, r5, cr5, cr3, {3}
 7f4:	005f5f64 	subseq	r5, pc, r4, ror #30
 7f8:	74732f2e 	ldrbtvc	r2, [r3], #-3886	; 0xfffff0d2
 7fc:	2d666661 	stclcs	6, cr6, [r6, #-388]!	; 0xfffffe7c
 800:	2f637273 	svccs	0x00637273
 804:	74737563 	ldrbtvc	r7, [r3], #-1379	; 0xfffffa9d
 808:	6c2d6d6f 	stcvs	13, cr6, [sp], #-444	; 0xfffffe44
 80c:	6564616f 	strbvs	r6, [r4, #-367]!	; 0xfffffe91
 810:	00632e72 	rsbeq	r2, r3, r2, ror lr
 814:	575f4d50 			; <UNDEFINED> instruction: 0x575f4d50
 818:	00474f44 	subeq	r4, r7, r4, asr #30
 81c:	6f626572 	svcvs	0x00626572
 820:	635f746f 	cmpvs	pc, #1862270976	; 0x6f000000
 824:	6f6c6c61 	svcvs	0x006c6c61
 828:	73007475 	movwvc	r7, #1141	; 0x475
 82c:	755f7465 	ldrbvc	r7, [pc, #-1125]	; 3cf <__code_start__-0x7c31>
 830:	5f726573 	svcpl	0x00726573
 834:	6576656c 	ldrbvs	r6, [r6, #-1388]!	; 0xfffffa94
 838:	2f2e006c 	svccs	0x002e006c
 83c:	66617473 			; <UNDEFINED> instruction: 0x66617473
 840:	72732d66 	rsbsvc	r2, r3, #6528	; 0x1980
 844:	65722f63 	ldrbvs	r2, [r2, #-3939]!	; 0xfffff09d
 848:	746f6f62 	strbtvc	r6, [pc], #-3938	; 850 <__code_start__-0x77b0>
 84c:	5000632e 	andpl	r6, r0, lr, lsr #6
 850:	41505f4d 	cmpmi	r0, sp, asr #30
 854:	4f575353 	svcmi	0x00575353
 858:	61004452 	tstvs	r0, r2, asr r4
 85c:	73755f74 	cmnvc	r5, #116, 30	; 0x1d0
 860:	6c5f7265 	lfmvs	f7, 2, [pc], {101}	; 0x65
 864:	6c657665 	stclvs	6, cr7, [r5], #-404	; 0xfffffe6c
 868:	5f4d5000 	svcpl	0x004d5000
 86c:	43545352 	cmpmi	r4, #1207959553	; 0x48000001
 870:	4352575f 	cmpmi	r2, #24903680	; 0x17c0000
 874:	465f4746 	ldrbmi	r4, [pc], -r6, asr #14
 878:	5f4c4c55 	svcpl	0x004c4c55
 87c:	45534552 	ldrbmi	r4, [r3, #-1362]	; 0xfffffaae
 880:	4d500054 	ldclmi	0, cr0, [r0, #-336]	; 0xfffffeb0
 884:	5453525f 	ldrbpl	r5, [r3], #-607	; 0xfffffda1
 888:	70630043 	rsbvc	r0, r3, r3, asr #32
 88c:	64007273 	strvs	r7, [r0], #-627	; 0xfffffd8d
 890:	625f7665 	subsvs	r7, pc, #105906176	; 0x6500000
 894:	69727261 	ldmdbvs	r2!, {r0, r5, r6, r9, ip, sp, lr}^
 898:	64007265 	strvs	r7, [r0], #-613	; 0xfffffd9b
 89c:	79616c65 	stmdbvc	r1!, {r0, r2, r5, r6, sl, fp, sp, lr}^
 8a0:	6365735f 	cmnvs	r5, #2080374785	; 0x7c000001
 8a4:	732f2e00 			; <UNDEFINED> instruction: 0x732f2e00
 8a8:	66666174 			; <UNDEFINED> instruction: 0x66666174
 8ac:	6372732d 	cmnvs	r2, #-1275068416	; 0xb4000000
 8b0:	6d69742f 	cfstrdvs	mvd7, [r9, #-188]!	; 0xffffff44
 8b4:	632e7265 			; <UNDEFINED> instruction: 0x632e7265
 8b8:	6d697400 	cfstrdvs	mvd7, [r9, #-0]
 8bc:	675f7265 	ldrbvs	r7, [pc, -r5, ror #4]
 8c0:	755f7465 	ldrbvc	r7, [pc, #-1125]	; 463 <__code_start__-0x7b9d>
 8c4:	00636573 	rsbeq	r6, r3, r3, ror r5
 8c8:	616c6564 	cmnvs	ip, r4, ror #10
 8cc:	73755f79 	cmnvc	r5, #484	; 0x1e4
 8d0:	6d697400 	cfstrdvs	mvd7, [r9, #-0]
 8d4:	675f7265 	ldrbvs	r7, [pc, -r5, ror #4]
 8d8:	755f7465 	ldrbvc	r7, [pc, #-1125]	; 47b <__code_start__-0x7b85>
 8dc:	5f636573 	svcpl	0x00636573
 8e0:	00776172 	rsbseq	r6, r7, r2, ror r1
 8e4:	6f697067 	svcvs	0x00697067
 8e8:	726c635f 	rsbvc	r6, ip, #2080374785	; 0x7c000001
 8ec:	68730030 	ldmdavs	r3!, {r4, r5}^
 8f0:	00746669 	rsbseq	r6, r4, r9, ror #12
 8f4:	6f697067 	svcvs	0x00697067
 8f8:	7465735f 	strbtvc	r7, [r5], #-863	; 0xfffffca1
 8fc:	70670030 	rsbvc	r0, r7, r0, lsr r0
 900:	775f6f69 	ldrbvc	r6, [pc, -r9, ror #30]
 904:	65746972 	ldrbvs	r6, [r4, #-2418]!	; 0xfffff68e
 908:	69706700 	ldmdbvs	r0!, {r8, r9, sl, sp, lr}^
 90c:	65725f6f 	ldrbvs	r5, [r2, #-3951]!	; 0xfffff091
 910:	2e006461 	cdpcs	4, 0, cr6, cr0, cr1, {3}
 914:	6372732f 	cmnvs	r2, #-1140850688	; 0xbc000000
 918:	6970672f 	ldmdbvs	r0!, {r0, r1, r2, r3, r5, r8, r9, sl, sp, lr}^
 91c:	00632e6f 	rsbeq	r2, r3, pc, ror #28
 920:	6f697067 	svcvs	0x00697067
 924:	7465735f 	strbtvc	r7, [r5], #-863	; 0xfffffca1
 928:	706e695f 	rsbvc	r6, lr, pc, asr r9
 92c:	67007475 	smlsdxvs	r0, r5, r4, r7
 930:	5f6f6970 	svcpl	0x006f6970
 934:	5f746573 	svcpl	0x00746573
 938:	0066666f 	rsbeq	r6, r6, pc, ror #12
 93c:	6f697067 	svcvs	0x00697067
 940:	7465735f 	strbtvc	r7, [r5], #-863	; 0xfffffca1
 944:	74756f5f 	ldrbtvc	r6, [r5], #-3935	; 0xfffff0a1
 948:	00747570 	rsbseq	r7, r4, r0, ror r5
 94c:	6f697067 	svcvs	0x00697067
 950:	6e75665f 	mrcvs	6, 3, r6, cr5, cr15, {2}
 954:	00745f63 	rsbseq	r5, r4, r3, ror #30
 958:	72646461 	rsbvc	r6, r4, #1627389952	; 0x61000000
 95c:	00737365 	rsbseq	r7, r3, r5, ror #6
 960:	6f697067 	svcvs	0x00697067
 964:	76656c5f 			; <UNDEFINED> instruction: 0x76656c5f
 968:	70670030 	rsbvc	r0, r7, r0, lsr r0
 96c:	735f6f69 	cmpvc	pc, #420	; 0x1a4
 970:	00306c65 	eorseq	r6, r0, r5, ror #24
 974:	72727563 	rsbsvc	r7, r2, #415236096	; 0x18c00000
 978:	00746e65 	rsbseq	r6, r4, r5, ror #28
 97c:	6f697067 	svcvs	0x00697067
 980:	7465735f 	strbtvc	r7, [r5], #-863	; 0xfffffca1
 984:	006e6f5f 	rsbeq	r6, lr, pc, asr pc
 988:	65746e69 	ldrbvs	r6, [r4, #-3689]!	; 0xfffff197
 98c:	6c616e72 	stclvs	14, cr6, [r1], #-456	; 0xfffffe38
 990:	7475705f 	ldrbtvc	r7, [r5], #-95	; 0xffffffa1
 994:	72616863 	rsbvc	r6, r1, #6488064	; 0x630000
 998:	69707200 	ldmdbvs	r0!, {r9, ip, sp, lr}^
 99c:	7465735f 	strbtvc	r7, [r5], #-863	; 0xfffffca1
 9a0:	7475705f 	ldrbtvc	r7, [r5], #-95	; 0xffffffa1
 9a4:	2f2e0063 	svccs	0x002e0063
 9a8:	6362696c 	cmnvs	r2, #108, 18	; 0x1b0000
 9ac:	7475702f 	ldrbtvc	r7, [r5], #-47	; 0xffffffd1
 9b0:	72616863 	rsbvc	r6, r1, #6488064	; 0x630000
 9b4:	7200632e 	andvc	r6, r0, #-1207959552	; 0xb8000000
 9b8:	725f6970 	subsvc	r6, pc, #112, 18	; 0x1c0000
 9bc:	74657365 	strbtvc	r7, [r5], #-869	; 0xfffffc9b
 9c0:	7475705f 	ldrbtvc	r7, [r5], #-95	; 0xffffffa1
 9c4:	65640063 	strbvs	r0, [r4, #-99]!	; 0xffffff9d
 9c8:	2e007473 	mcrcs	4, 0, r7, cr0, cr3, {3}
 9cc:	62696c2f 	rsbvs	r6, r9, #12032	; 0x2f00
 9d0:	74732f63 	ldrbtvc	r2, [r3], #-3939	; 0xfffff09d
 9d4:	74616372 	strbtvc	r6, [r1], #-882	; 0xfffffc8e
 9d8:	2e00632e 	cdpcs	3, 0, cr6, cr0, cr14, {1}
 9dc:	62696c2f 	rsbvs	r6, r9, #12032	; 0x2f00
 9e0:	74732f63 	ldrbtvc	r2, [r3], #-3939	; 0xfffff09d
 9e4:	706d6372 	rsbvc	r6, sp, r2, ror r3
 9e8:	2e00632e 	cdpcs	3, 0, cr6, cr0, cr14, {1}
 9ec:	62696c2f 	rsbvs	r6, r9, #12032	; 0x2f00
 9f0:	74732f63 	ldrbtvc	r2, [r3], #-3939	; 0xfffff09d
 9f4:	79706372 	ldmdbvc	r0!, {r1, r4, r5, r6, r8, r9, sp, lr}^
 9f8:	7300632e 	movwvc	r6, #814	; 0x32e
 9fc:	5f657a69 	svcpl	0x00657a69
 a00:	2f2e0074 	svccs	0x002e0074
 a04:	6362696c 	cmnvs	r2, #108, 18	; 0x1b0000
 a08:	7274732f 	rsbsvc	r7, r4, #-1140850688	; 0xbc000000
 a0c:	706d636e 	rsbvc	r6, sp, lr, ror #6
 a10:	2e00632e 	cdpcs	3, 0, cr6, cr0, cr14, {1}
 a14:	6174732f 	cmnvs	r4, pc, lsr #6
 a18:	732d6666 			; <UNDEFINED> instruction: 0x732d6666
 a1c:	642f6372 	strtvs	r6, [pc], #-882	; a24 <__code_start__-0x75dc>
 a20:	75616665 	strbvc	r6, [r1, #-1637]!	; 0xfffff99b
 a24:	722d746c 	eorvc	r7, sp, #108, 8	; 0x6c000000
 a28:	6f6f6265 	svcvs	0x006f6265
 a2c:	61632d74 	smcvs	13012	; 0x32d4
 a30:	756f6c6c 	strbvc	r6, [pc, #-3180]!	; fffffdcc <__bss_end__+0xffff6974>
 a34:	00632e74 	rsbeq	r2, r3, r4, ror lr

Disassembly of section .debug_frame:

00000000 <.debug_frame>:
   0:	0000000c 	andeq	r0, r0, ip
   4:	ffffffff 			; <UNDEFINED> instruction: 0xffffffff
   8:	7c020001 	stcvc	0, cr0, [r2], {1}
   c:	000d0c0e 	andeq	r0, sp, lr, lsl #24
  10:	00000014 	andeq	r0, r0, r4, lsl r0
  14:	00000000 	andeq	r0, r0, r0
  18:	00008038 	andeq	r8, r0, r8, lsr r0
  1c:	00000018 	andeq	r0, r0, r8, lsl r0
  20:	84080e42 	strhi	r0, [r8], #-3650	; 0xfffff1be
  24:	00018e02 	andeq	r8, r1, r2, lsl #28
  28:	0000000c 	andeq	r0, r0, ip
  2c:	ffffffff 			; <UNDEFINED> instruction: 0xffffffff
  30:	7c020001 	stcvc	0, cr0, [r2], {1}
  34:	000d0c0e 	andeq	r0, sp, lr, lsl #24
  38:	00000018 	andeq	r0, r0, r8, lsl r0
  3c:	00000028 	andeq	r0, r0, r8, lsr #32
  40:	00008050 	andeq	r8, r0, r0, asr r0
  44:	0000003c 	andeq	r0, r0, ip, lsr r0
  48:	8e040e42 	cdphi	14, 0, cr0, cr4, cr2, {2}
  4c:	100e4201 	andne	r4, lr, r1, lsl #4
  50:	00040e52 	andeq	r0, r4, r2, asr lr
  54:	00000018 	andeq	r0, r0, r8, lsl r0
  58:	00000028 	andeq	r0, r0, r8, lsr #32
  5c:	0000808c 	andeq	r8, r0, ip, lsl #1
  60:	00000198 	muleq	r0, r8, r1
  64:	84100e42 	ldrhi	r0, [r0], #-3650	; 0xfffff1be
  68:	86038504 	strhi	r8, [r3], -r4, lsl #10
  6c:	00018e02 	andeq	r8, r1, r2, lsl #28
  70:	00000014 	andeq	r0, r0, r4, lsl r0
  74:	00000028 	andeq	r0, r0, r8, lsr #32
  78:	00008224 	andeq	r8, r0, r4, lsr #4
  7c:	0000003c 	andeq	r0, r0, ip, lsr r0
  80:	84080e42 	strhi	r0, [r8], #-3650	; 0xfffff1be
  84:	00018e02 	andeq	r8, r1, r2, lsl #28
  88:	00000018 	andeq	r0, r0, r8, lsl r0
  8c:	00000028 	andeq	r0, r0, r8, lsr #32
  90:	00008260 	andeq	r8, r0, r0, ror #4
  94:	00000040 	andeq	r0, r0, r0, asr #32
  98:	8e040e42 	cdphi	14, 0, cr0, cr4, cr2, {2}
  9c:	100e4201 	andne	r4, lr, r1, lsl #4
  a0:	00040e54 	andeq	r0, r4, r4, asr lr
  a4:	00000014 	andeq	r0, r0, r4, lsl r0
  a8:	00000028 	andeq	r0, r0, r8, lsr #32
  ac:	000082a0 	andeq	r8, r0, r0, lsr #5
  b0:	00000040 	andeq	r0, r0, r0, asr #32
  b4:	84080e42 	strhi	r0, [r8], #-3650	; 0xfffff1be
  b8:	00018e02 	andeq	r8, r1, r2, lsl #28
  bc:	00000014 	andeq	r0, r0, r4, lsl r0
  c0:	00000028 	andeq	r0, r0, r8, lsr #32
  c4:	000082e0 	andeq	r8, r0, r0, ror #5
  c8:	0000000c 	andeq	r0, r0, ip
  cc:	84080e42 	strhi	r0, [r8], #-3650	; 0xfffff1be
  d0:	00018e02 	andeq	r8, r1, r2, lsl #28
  d4:	00000014 	andeq	r0, r0, r4, lsl r0
  d8:	00000028 	andeq	r0, r0, r8, lsr #32
  dc:	000082ec 	andeq	r8, r0, ip, ror #5
  e0:	00000020 	andeq	r0, r0, r0, lsr #32
  e4:	84080e42 	strhi	r0, [r8], #-3650	; 0xfffff1be
  e8:	00018e02 	andeq	r8, r1, r2, lsl #28
  ec:	00000018 	andeq	r0, r0, r8, lsl r0
  f0:	00000028 	andeq	r0, r0, r8, lsr #32
  f4:	0000830c 	andeq	r8, r0, ip, lsl #6
  f8:	0000003c 	andeq	r0, r0, ip, lsr r0
  fc:	8e040e42 	cdphi	14, 0, cr0, cr4, cr2, {2}
 100:	100e4201 	andne	r4, lr, r1, lsl #4
 104:	00040e52 	andeq	r0, r4, r2, asr lr
 108:	00000014 	andeq	r0, r0, r4, lsl r0
 10c:	00000028 	andeq	r0, r0, r8, lsr #32
 110:	00008348 	andeq	r8, r0, r8, asr #6
 114:	00000014 	andeq	r0, r0, r4, lsl r0
 118:	84080e42 	strhi	r0, [r8], #-3650	; 0xfffff1be
 11c:	00018e02 	andeq	r8, r1, r2, lsl #28
 120:	00000018 	andeq	r0, r0, r8, lsl r0
 124:	00000028 	andeq	r0, r0, r8, lsr #32
 128:	0000835c 	andeq	r8, r0, ip, asr r3
 12c:	00000048 	andeq	r0, r0, r8, asr #32
 130:	84100e42 	ldrhi	r0, [r0], #-3650	; 0xfffff1be
 134:	86038504 	strhi	r8, [r3], -r4, lsl #10
 138:	00018e02 	andeq	r8, r1, r2, lsl #28
 13c:	0000000c 	andeq	r0, r0, ip
 140:	ffffffff 			; <UNDEFINED> instruction: 0xffffffff
 144:	7c020001 	stcvc	0, cr0, [r2], {1}
 148:	000d0c0e 	andeq	r0, sp, lr, lsl #24
 14c:	00000034 	andeq	r0, r0, r4, lsr r0
 150:	0000013c 	andeq	r0, r0, ip, lsr r1
 154:	000083a4 	andeq	r8, r0, r4, lsr #7
 158:	00000058 	andeq	r0, r0, r8, asr r0
 15c:	80100e42 	andshi	r0, r0, r2, asr #28
 160:	82038104 	andhi	r8, r3, #4, 2
 164:	42018302 	andmi	r8, r1, #134217728	; 0x8000000
 168:	07841c0e 	streq	r1, [r4, lr, lsl #24]
 16c:	058e0685 	streq	r0, [lr, #1669]	; 0x685
 170:	5c280e42 	stcpl	14, cr0, [r8], #-264	; 0xfffffef8
 174:	ce421c0e 	cdpgt	12, 4, cr1, cr2, cr14, {0}
 178:	100ec4c5 	andne	ip, lr, r5, asr #9
 17c:	c1c2c342 	bicgt	ip, r2, r2, asr #6
 180:	00000ec0 	andeq	r0, r0, r0, asr #29
 184:	0000000c 	andeq	r0, r0, ip
 188:	ffffffff 			; <UNDEFINED> instruction: 0xffffffff
 18c:	7c020001 	stcvc	0, cr0, [r2], {1}
 190:	000d0c0e 	andeq	r0, sp, lr, lsl #24
 194:	00000014 	andeq	r0, r0, r4, lsl r0
 198:	00000184 	andeq	r0, r0, r4, lsl #3
 19c:	000083fc 	strdeq	r8, [r0], -ip
 1a0:	00000034 	andeq	r0, r0, r4, lsr r0
 1a4:	84080e42 	strhi	r0, [r8], #-3650	; 0xfffff1be
 1a8:	00018e02 	andeq	r8, r1, r2, lsl #28
 1ac:	0000000c 	andeq	r0, r0, ip
 1b0:	ffffffff 			; <UNDEFINED> instruction: 0xffffffff
 1b4:	7c020001 	stcvc	0, cr0, [r2], {1}
 1b8:	000d0c0e 	andeq	r0, sp, lr, lsl #24
 1bc:	0000000c 	andeq	r0, r0, ip
 1c0:	000001ac 	andeq	r0, r0, ip, lsr #3
 1c4:	00008430 	andeq	r8, r0, r0, lsr r4
 1c8:	00000014 	andeq	r0, r0, r4, lsl r0
 1cc:	0000000c 	andeq	r0, r0, ip
 1d0:	000001ac 	andeq	r0, r0, ip, lsr #3
 1d4:	00008444 	andeq	r8, r0, r4, asr #8
 1d8:	00000028 	andeq	r0, r0, r8, lsr #32
 1dc:	0000000c 	andeq	r0, r0, ip
 1e0:	000001ac 	andeq	r0, r0, ip, lsr #3
 1e4:	0000846c 	andeq	r8, r0, ip, ror #8
 1e8:	0000003c 	andeq	r0, r0, ip, lsr r0
 1ec:	00000024 	andeq	r0, r0, r4, lsr #32
 1f0:	000001ac 	andeq	r0, r0, ip, lsr #3
 1f4:	000084a8 	andeq	r8, r0, r8, lsr #9
 1f8:	000001b4 			; <UNDEFINED> instruction: 0x000001b4
 1fc:	84140e42 	ldrhi	r0, [r4], #-3650	; 0xfffff1be
 200:	86048505 	strhi	r8, [r4], -r5, lsl #10
 204:	8e028703 	cdphi	7, 0, cr8, cr2, cr3, {0}
 208:	600e4201 	andvs	r4, lr, r1, lsl #4
 20c:	0e0a9a02 	vmlaeq.f32	s18, s20, s4
 210:	000b4214 	andeq	r4, fp, r4, lsl r2
 214:	00000014 	andeq	r0, r0, r4, lsl r0
 218:	000001ac 	andeq	r0, r0, ip, lsr #3
 21c:	0000865c 	andeq	r8, r0, ip, asr r6
 220:	00000064 	andeq	r0, r0, r4, rrx
 224:	8e040e54 	mcrhi	14, 0, r0, cr4, cr4, {2}
 228:	100e4201 	andne	r4, lr, r1, lsl #4
 22c:	0000002c 	andeq	r0, r0, ip, lsr #32
 230:	000001ac 	andeq	r0, r0, ip, lsr #3
 234:	000086c0 	andeq	r8, r0, r0, asr #13
 238:	00000498 	muleq	r0, r8, r4
 23c:	84240e42 	strthi	r0, [r4], #-3650	; 0xfffff1be
 240:	86088509 	strhi	r8, [r8], -r9, lsl #10
 244:	88068707 	stmdahi	r6, {r0, r1, r2, r8, r9, sl, pc}
 248:	8a048905 	bhi	122664 <__bss_end__+0x11920c>
 24c:	8e028b03 	vmlahi.f64	d8, d2, d3
 250:	b80e4201 	stmdalt	lr, {r0, r9, lr}
 254:	022c0302 	eoreq	r0, ip, #134217728	; 0x8000000
 258:	0000240e 	andeq	r2, r0, lr, lsl #8
 25c:	0000000c 	andeq	r0, r0, ip
 260:	ffffffff 			; <UNDEFINED> instruction: 0xffffffff
 264:	7c020001 	stcvc	0, cr0, [r2], {1}
 268:	000d0c0e 	andeq	r0, sp, lr, lsl #24
 26c:	00000014 	andeq	r0, r0, r4, lsl r0
 270:	0000025c 	andeq	r0, r0, ip, asr r2
 274:	00008b58 	andeq	r8, r0, r8, asr fp
 278:	0000002c 	andeq	r0, r0, ip, lsr #32
 27c:	84080e42 	strhi	r0, [r8], #-3650	; 0xfffff1be
 280:	00018e02 	andeq	r8, r1, r2, lsl #28
 284:	0000000c 	andeq	r0, r0, ip
 288:	ffffffff 			; <UNDEFINED> instruction: 0xffffffff
 28c:	7c020001 	stcvc	0, cr0, [r2], {1}
 290:	000d0c0e 	andeq	r0, sp, lr, lsl #24
 294:	00000014 	andeq	r0, r0, r4, lsl r0
 298:	00000284 	andeq	r0, r0, r4, lsl #5
 29c:	00008b84 	andeq	r8, r0, r4, lsl #23
 2a0:	00000040 	andeq	r0, r0, r0, asr #32
 2a4:	84080e42 	strhi	r0, [r8], #-3650	; 0xfffff1be
 2a8:	00018e02 	andeq	r8, r1, r2, lsl #28
 2ac:	0000000c 	andeq	r0, r0, ip
 2b0:	ffffffff 			; <UNDEFINED> instruction: 0xffffffff
 2b4:	7c020001 	stcvc	0, cr0, [r2], {1}
 2b8:	000d0c0e 	andeq	r0, sp, lr, lsl #24
 2bc:	0000000c 	andeq	r0, r0, ip
 2c0:	000002ac 	andeq	r0, r0, ip, lsr #5
 2c4:	00008bc4 	andeq	r8, r0, r4, asr #23
 2c8:	00000004 	andeq	r0, r0, r4
 2cc:	0000000c 	andeq	r0, r0, ip
 2d0:	ffffffff 			; <UNDEFINED> instruction: 0xffffffff
 2d4:	7c020001 	stcvc	0, cr0, [r2], {1}
 2d8:	000d0c0e 	andeq	r0, sp, lr, lsl #24
 2dc:	0000000c 	andeq	r0, r0, ip
 2e0:	000002cc 	andeq	r0, r0, ip, asr #5
 2e4:	00008bc8 	andeq	r8, r0, r8, asr #23
 2e8:	00000018 	andeq	r0, r0, r8, lsl r0
 2ec:	0000000c 	andeq	r0, r0, ip
 2f0:	000002cc 	andeq	r0, r0, ip, asr #5
 2f4:	00008be0 	andeq	r8, r0, r0, ror #23
 2f8:	00000014 	andeq	r0, r0, r4, lsl r0
 2fc:	00000014 	andeq	r0, r0, r4, lsl r0
 300:	000002cc 	andeq	r0, r0, ip, asr #5
 304:	00008bf4 	strdeq	r8, [r0], -r4
 308:	00000054 	andeq	r0, r0, r4, asr r0
 30c:	84080e42 	strhi	r0, [r8], #-3650	; 0xfffff1be
 310:	00018e02 	andeq	r8, r1, r2, lsl #28
 314:	0000000c 	andeq	r0, r0, ip
 318:	ffffffff 			; <UNDEFINED> instruction: 0xffffffff
 31c:	7c020001 	stcvc	0, cr0, [r2], {1}
 320:	000d0c0e 	andeq	r0, sp, lr, lsl #24
 324:	00000014 	andeq	r0, r0, r4, lsl r0
 328:	00000314 	andeq	r0, r0, r4, lsl r3
 32c:	00008c48 	andeq	r8, r0, r8, asr #24
 330:	00000014 	andeq	r0, r0, r4, lsl r0
 334:	84080e42 	strhi	r0, [r8], #-3650	; 0xfffff1be
 338:	00018e02 	andeq	r8, r1, r2, lsl #28
 33c:	00000014 	andeq	r0, r0, r4, lsl r0
 340:	00000314 	andeq	r0, r0, r4, lsl r3
 344:	00008c5c 	andeq	r8, r0, ip, asr ip
 348:	0000001c 	andeq	r0, r0, ip, lsl r0
 34c:	84080e42 	strhi	r0, [r8], #-3650	; 0xfffff1be
 350:	00018e02 	andeq	r8, r1, r2, lsl #28
 354:	00000018 	andeq	r0, r0, r8, lsl r0
 358:	00000314 	andeq	r0, r0, r4, lsl r3
 35c:	00008c78 	andeq	r8, r0, r8, ror ip
 360:	00000024 	andeq	r0, r0, r4, lsr #32
 364:	84100e42 	ldrhi	r0, [r0], #-3650	; 0xfffff1be
 368:	86038504 	strhi	r8, [r3], -r4, lsl #10
 36c:	00018e02 	andeq	r8, r1, r2, lsl #28
 370:	00000014 	andeq	r0, r0, r4, lsl r0
 374:	00000314 	andeq	r0, r0, r4, lsl r3
 378:	00008c9c 	muleq	r0, ip, ip
 37c:	00000018 	andeq	r0, r0, r8, lsl r0
 380:	84080e42 	strhi	r0, [r8], #-3650	; 0xfffff1be
 384:	00018e02 	andeq	r8, r1, r2, lsl #28
 388:	00000014 	andeq	r0, r0, r4, lsl r0
 38c:	00000314 	andeq	r0, r0, r4, lsl r3
 390:	00008cb4 			; <UNDEFINED> instruction: 0x00008cb4
 394:	00000018 	andeq	r0, r0, r8, lsl r0
 398:	84080e42 	strhi	r0, [r8], #-3650	; 0xfffff1be
 39c:	00018e02 	andeq	r8, r1, r2, lsl #28
 3a0:	0000000c 	andeq	r0, r0, ip
 3a4:	ffffffff 			; <UNDEFINED> instruction: 0xffffffff
 3a8:	7c020001 	stcvc	0, cr0, [r2], {1}
 3ac:	000d0c0e 	andeq	r0, sp, lr, lsl #24
 3b0:	0000001c 	andeq	r0, r0, ip, lsl r0
 3b4:	000003a0 	andeq	r0, r0, r0, lsr #7
 3b8:	00008ccc 	andeq	r8, r0, ip, asr #25
 3bc:	00000054 	andeq	r0, r0, r4, asr r0
 3c0:	84180e42 	ldrhi	r0, [r8], #-3650	; 0xfffff1be
 3c4:	86058506 	strhi	r8, [r5], -r6, lsl #10
 3c8:	88038704 	stmdahi	r3, {r2, r8, r9, sl, pc}
 3cc:	00018e02 	andeq	r8, r1, r2, lsl #28
 3d0:	00000014 	andeq	r0, r0, r4, lsl r0
 3d4:	000003a0 	andeq	r0, r0, r0, lsr #7
 3d8:	00008d20 	andeq	r8, r0, r0, lsr #26
 3dc:	00000010 	andeq	r0, r0, r0, lsl r0
 3e0:	84080e42 	strhi	r0, [r8], #-3650	; 0xfffff1be
 3e4:	00018e02 	andeq	r8, r1, r2, lsl #28
 3e8:	00000014 	andeq	r0, r0, r4, lsl r0
 3ec:	000003a0 	andeq	r0, r0, r0, lsr #7
 3f0:	00008d30 	andeq	r8, r0, r0, lsr sp
 3f4:	0000001c 	andeq	r0, r0, ip, lsl r0
 3f8:	84080e42 	strhi	r0, [r8], #-3650	; 0xfffff1be
 3fc:	00018e02 	andeq	r8, r1, r2, lsl #28
 400:	00000014 	andeq	r0, r0, r4, lsl r0
 404:	000003a0 	andeq	r0, r0, r0, lsr #7
 408:	00008d4c 	andeq	r8, r0, ip, asr #26
 40c:	0000001c 	andeq	r0, r0, ip, lsl r0
 410:	84080e42 	strhi	r0, [r8], #-3650	; 0xfffff1be
 414:	00018e02 	andeq	r8, r1, r2, lsl #28
 418:	00000014 	andeq	r0, r0, r4, lsl r0
 41c:	000003a0 	andeq	r0, r0, r0, lsr #7
 420:	00008d68 	andeq	r8, r0, r8, ror #26
 424:	0000001c 	andeq	r0, r0, ip, lsl r0
 428:	84080e42 	strhi	r0, [r8], #-3650	; 0xfffff1be
 42c:	00018e02 	andeq	r8, r1, r2, lsl #28
 430:	00000014 	andeq	r0, r0, r4, lsl r0
 434:	000003a0 	andeq	r0, r0, r0, lsr #7
 438:	00008d84 	andeq	r8, r0, r4, lsl #27
 43c:	00000010 	andeq	r0, r0, r0, lsl r0
 440:	84080e42 	strhi	r0, [r8], #-3650	; 0xfffff1be
 444:	00018e02 	andeq	r8, r1, r2, lsl #28
 448:	00000014 	andeq	r0, r0, r4, lsl r0
 44c:	000003a0 	andeq	r0, r0, r0, lsr #7
 450:	00008d94 	muleq	r0, r4, sp
 454:	00000020 	andeq	r0, r0, r0, lsr #32
 458:	84080e42 	strhi	r0, [r8], #-3650	; 0xfffff1be
 45c:	00018e02 	andeq	r8, r1, r2, lsl #28
 460:	0000000c 	andeq	r0, r0, ip
 464:	ffffffff 			; <UNDEFINED> instruction: 0xffffffff
 468:	7c020001 	stcvc	0, cr0, [r2], {1}
 46c:	000d0c0e 	andeq	r0, sp, lr, lsl #24
 470:	00000014 	andeq	r0, r0, r4, lsl r0
 474:	00000460 	andeq	r0, r0, r0, ror #8
 478:	00008db4 			; <UNDEFINED> instruction: 0x00008db4
 47c:	00000014 	andeq	r0, r0, r4, lsl r0
 480:	84080e42 	strhi	r0, [r8], #-3650	; 0xfffff1be
 484:	00018e02 	andeq	r8, r1, r2, lsl #28
 488:	0000000c 	andeq	r0, r0, ip
 48c:	00000460 	andeq	r0, r0, r0, ror #8
 490:	00008dc8 	andeq	r8, r0, r8, asr #27
 494:	00000018 	andeq	r0, r0, r8, lsl r0
 498:	0000000c 	andeq	r0, r0, ip
 49c:	00000460 	andeq	r0, r0, r0, ror #8
 4a0:	00008de0 	andeq	r8, r0, r0, ror #27
 4a4:	00000010 	andeq	r0, r0, r0, lsl r0
 4a8:	0000000c 	andeq	r0, r0, ip
 4ac:	ffffffff 			; <UNDEFINED> instruction: 0xffffffff
 4b0:	7c020001 	stcvc	0, cr0, [r2], {1}
 4b4:	000d0c0e 	andeq	r0, sp, lr, lsl #24
 4b8:	0000000c 	andeq	r0, r0, ip
 4bc:	000004a8 	andeq	r0, r0, r8, lsr #9
 4c0:	00008df0 	strdeq	r8, [r0], -r0
 4c4:	00000034 	andeq	r0, r0, r4, lsr r0
 4c8:	0000000c 	andeq	r0, r0, ip
 4cc:	ffffffff 			; <UNDEFINED> instruction: 0xffffffff
 4d0:	7c020001 	stcvc	0, cr0, [r2], {1}
 4d4:	000d0c0e 	andeq	r0, sp, lr, lsl #24
 4d8:	0000000c 	andeq	r0, r0, ip
 4dc:	000004c8 	andeq	r0, r0, r8, asr #9
 4e0:	00008e24 	andeq	r8, r0, r4, lsr #28
 4e4:	00000030 	andeq	r0, r0, r0, lsr r0
 4e8:	0000000c 	andeq	r0, r0, ip
 4ec:	ffffffff 			; <UNDEFINED> instruction: 0xffffffff
 4f0:	7c020001 	stcvc	0, cr0, [r2], {1}
 4f4:	000d0c0e 	andeq	r0, sp, lr, lsl #24
 4f8:	0000000c 	andeq	r0, r0, ip
 4fc:	000004e8 	andeq	r0, r0, r8, ror #9
 500:	00008e54 	andeq	r8, r0, r4, asr lr
 504:	00000020 	andeq	r0, r0, r0, lsr #32
 508:	0000000c 	andeq	r0, r0, ip
 50c:	ffffffff 			; <UNDEFINED> instruction: 0xffffffff
 510:	7c020001 	stcvc	0, cr0, [r2], {1}
 514:	000d0c0e 	andeq	r0, sp, lr, lsl #24
 518:	0000000c 	andeq	r0, r0, ip
 51c:	00000508 	andeq	r0, r0, r8, lsl #10
 520:	00008e74 	andeq	r8, r0, r4, ror lr
 524:	0000002c 	andeq	r0, r0, ip, lsr #32
 528:	0000000c 	andeq	r0, r0, ip
 52c:	ffffffff 			; <UNDEFINED> instruction: 0xffffffff
 530:	7c020001 	stcvc	0, cr0, [r2], {1}
 534:	000d0c0e 	andeq	r0, sp, lr, lsl #24
 538:	0000000c 	andeq	r0, r0, ip
 53c:	00000528 	andeq	r0, r0, r8, lsr #10
 540:	00008ea0 	andeq	r8, r0, r0, lsr #29
 544:	00000004 	andeq	r0, r0, r4

Disassembly of section .debug_loc:

00000000 <.debug_loc>:
   0:	02dc0001 	sbcseq	r0, ip, #1
   4:	02f80000 	rscseq	r0, r8, #0
   8:	00030000 	andeq	r0, r3, r0
   c:	009f6c91 	umullseq	r6, pc, r1, ip	; <UNPREDICTABLE>
	...
  18:	50000101 	andpl	r0, r0, r1, lsl #2
  1c:	64000002 	strvs	r0, [r0], #-2
  20:	01000002 	tsteq	r0, r2
  24:	02645000 	rsbeq	r5, r4, #0
  28:	02900000 	addseq	r0, r0, #0
  2c:	00010000 	andeq	r0, r1, r0
  30:	00000054 	andeq	r0, r0, r4, asr r0
  34:	00000000 	andeq	r0, r0, r0
  38:	30000100 	andcc	r0, r0, r0, lsl #2
  3c:	50000002 	andpl	r0, r0, r2
  40:	03000002 	movweq	r0, #2
  44:	9f6c9100 	svcls	0x006c9100
	...
  50:	02000200 	andeq	r0, r0, #0, 4
  54:	02000000 	andeq	r0, r0, #0
  58:	00010000 	andeq	r0, r1, r0
  5c:	00000050 	andeq	r0, r0, r0, asr r0
  60:	00000000 	andeq	r0, r0, r0
  64:	00000100 	andeq	r0, r0, r0, lsl #2
  68:	10000002 	andne	r0, r0, r2
  6c:	06000002 	streq	r0, [r0], -r2
  70:	08abf200 	stmiaeq	fp!, {r9, ip, sp, lr, pc}
	...
  7c:	01000000 	mrseq	r0, (UNDEF: 0)
  80:	00002000 	andeq	r2, r0, r0
  84:	00003c00 	andeq	r3, r0, r0, lsl #24
  88:	91000300 	mrsls	r0, LR_irq
  8c:	00009f6c 	andeq	r9, r0, ip, ror #30
	...
  9c:	0000002c 	andeq	r0, r0, ip, lsr #32
  a0:	00000038 	andeq	r0, r0, r8, lsr r0
  a4:	38500001 	ldmdacc	r0, {r0}^
  a8:	48000000 	stmdami	r0, {}	; <UNPREDICTABLE>
  ac:	01000000 	mrseq	r0, (UNDEF: 0)
  b0:	00485400 	subeq	r5, r8, r0, lsl #8
  b4:	00580000 	subseq	r0, r8, r0
  b8:	00010000 	andeq	r0, r1, r0
  bc:	00000050 	andeq	r0, r0, r0, asr r0
	...
  cc:	00000c00 	andeq	r0, r0, r0, lsl #24
  d0:	50000100 	andpl	r0, r0, r0, lsl #2
  d4:	0000000c 	andeq	r0, r0, ip
  d8:	00000034 	andeq	r0, r0, r4, lsr r0
  dc:	00540001 	subseq	r0, r4, r1
	...
  ec:	00029000 	andeq	r9, r2, r0
  f0:	0002c000 	andeq	ip, r2, r0
  f4:	50000100 	andpl	r0, r0, r0, lsl #2
  f8:	000002c0 	andeq	r0, r0, r0, asr #5
  fc:	000006f4 	strdeq	r0, [r0], -r4
 100:	f4590001 			; <UNDEFINED> instruction: 0xf4590001
 104:	28000006 	stmdacs	r0, {r1, r2}
 108:	04000007 	streq	r0, [r0], #-7
 10c:	5001f300 	andpl	pc, r1, r0, lsl #6
 110:	0000009f 	muleq	r0, pc, r0	; <UNPREDICTABLE>
	...
 11c:	90000000 	andls	r0, r0, r0
 120:	a8000002 	stmdage	r0, {r1}
 124:	01000002 	tsteq	r0, r2
 128:	02a85100 	adceq	r5, r8, #0, 2
 12c:	02c00000 	sbceq	r0, r0, #0
 130:	00030000 	andeq	r0, r3, r0
 134:	c09f0171 	addsgt	r0, pc, r1, ror r1	; <UNPREDICTABLE>
 138:	28000002 	stmdacs	r0, {r1}
 13c:	04000007 	streq	r0, [r0], #-7
 140:	5101f300 	mrspl	pc, SP_irq	; <UNPREDICTABLE>
 144:	0000009f 	muleq	r0, pc, r0	; <UNPREDICTABLE>
	...
 158:	00029000 	andeq	r9, r2, r0
 15c:	0002c000 	andeq	ip, r2, r0
 160:	52000100 	andpl	r0, r0, #0, 2
 164:	000002c0 	andeq	r0, r0, r0, asr #5
 168:	000003f4 	strdeq	r0, [r0], -r4
 16c:	f4560001 			; <UNDEFINED> instruction: 0xf4560001
 170:	a8000003 	stmdage	r0, {r0, r1}
 174:	01000004 	tsteq	r0, r4
 178:	04a85b00 	strteq	r5, [r8], #2816	; 0xb00
 17c:	04c80000 	strbeq	r0, [r8], #0
 180:	00010000 	andeq	r0, r1, r0
 184:	0004c856 	andeq	ip, r4, r6, asr r8
 188:	00054c00 	andeq	r4, r5, r0, lsl #24
 18c:	5b000100 	blpl	594 <__code_start__-0x7a6c>
 190:	0000054c 	andeq	r0, r0, ip, asr #10
 194:	000006f4 	strdeq	r0, [r0], -r4
 198:	00560001 	subseq	r0, r6, r1
 19c:	00000000 	andeq	r0, r0, r0
 1a0:	01000000 	mrseq	r0, (UNDEF: 0)
 1a4:	01010000 	mrseq	r0, (UNDEF: 1)
	...
 1b0:	02020000 	andeq	r0, r2, #0
 1b4:	a4000000 	strge	r0, [r0], #-0
 1b8:	c0000002 	andgt	r0, r0, r2
 1bc:	01000002 	tsteq	r0, r2
 1c0:	02c05000 	sbceq	r5, r0, #0
 1c4:	02cc0000 	sbceq	r0, ip, #0
 1c8:	00010000 	andeq	r0, r1, r0
 1cc:	0002cc54 	andeq	ip, r2, r4, asr ip
 1d0:	0002d000 	andeq	sp, r2, r0
 1d4:	74000300 	strvc	r0, [r0], #-768	; 0xfffffd00
 1d8:	02d09f01 	sbcseq	r9, r0, #1, 30
 1dc:	02f40000 	rscseq	r0, r4, #0
 1e0:	00010000 	andeq	r0, r1, r0
 1e4:	0002f454 	andeq	pc, r2, r4, asr r4	; <UNPREDICTABLE>
 1e8:	0002f800 	andeq	pc, r2, r0, lsl #16
 1ec:	74000300 	strvc	r0, [r0], #-768	; 0xfffffd00
 1f0:	02f89f01 	rscseq	r9, r8, #1, 30
 1f4:	06c40000 	strbeq	r0, [r4], r0
 1f8:	00010000 	andeq	r0, r1, r0
 1fc:	0006c454 	andeq	ip, r6, r4, asr r4
 200:	0006c800 	andeq	ip, r6, r0, lsl #16
 204:	74000300 	strvc	r0, [r0], #-768	; 0xfffffd00
 208:	06c89f01 	strbeq	r9, [r8], r1, lsl #30
 20c:	06e00000 	strbteq	r0, [r0], r0
 210:	00010000 	andeq	r0, r1, r0
 214:	0006e054 	andeq	lr, r6, r4, asr r0
 218:	0006e800 	andeq	lr, r6, r0, lsl #16
 21c:	74000300 	strvc	r0, [r0], #-768	; 0xfffffd00
 220:	06e89f01 	strbteq	r9, [r8], r1, lsl #30
 224:	06f40000 	ldrbteq	r0, [r4], r0
 228:	00010000 	andeq	r0, r1, r0
 22c:	00000054 	andeq	r0, r0, r4, asr r0
	...
 238:	0002ac00 	andeq	sl, r2, r0, lsl #24
 23c:	0006f400 	andeq	pc, r6, r0, lsl #8
 240:	58000100 	stmdapl	r0, {r8}
 244:	000006f4 	strdeq	r0, [r0], -r4
 248:	00000728 	andeq	r0, r0, r8, lsr #14
 24c:	01f3000a 	mvnseq	r0, sl
 250:	5001f351 	andpl	pc, r1, r1, asr r3	; <UNPREDICTABLE>
 254:	9f1c3122 	svcls	0x001c3122
	...
 260:	00000001 	andeq	r0, r0, r1
 264:	04100000 	ldreq	r0, [r0], #-0
 268:	04640000 	strbteq	r0, [r4], #-0
 26c:	00010000 	andeq	r0, r1, r0
 270:	0004c857 	andeq	ip, r4, r7, asr r8
 274:	0004ec00 	andeq	lr, r4, r0, lsl #24
 278:	57000100 	strpl	r0, [r0, -r0, lsl #2]
 27c:	00000530 	andeq	r0, r0, r0, lsr r5
 280:	0000054c 	andeq	r0, r0, ip, asr #10
 284:	00570001 	subseq	r0, r7, r1
 288:	00000000 	andeq	r0, r0, r0
 28c:	01000000 	mrseq	r0, (UNDEF: 0)
 290:	b4000000 	strlt	r0, [r0], #-0
 294:	c0000002 	andgt	r0, r0, r2
 298:	01000002 	tsteq	r0, r2
 29c:	02c05200 	sbceq	r5, r0, #0, 4
 2a0:	07280000 	streq	r0, [r8, -r0]!
 2a4:	00030000 	andeq	r0, r3, r0
 2a8:	007dc891 			; <UNDEFINED> instruction: 0x007dc891
	...
 2bc:	00000101 	andeq	r0, r0, r1, lsl #2
	...
 2c8:	00046400 	andeq	r6, r4, r0, lsl #8
 2cc:	00047c00 	andeq	r7, r4, r0, lsl #24
 2d0:	50000100 	andpl	r0, r0, r0, lsl #2
 2d4:	0000047c 	andeq	r0, r0, ip, ror r4
 2d8:	000004a8 	andeq	r0, r0, r8, lsr #9
 2dc:	ec570001 	mrrc	0, 0, r0, r7, cr1
 2e0:	04000004 	streq	r0, [r0], #-4
 2e4:	01000005 	tsteq	r0, r5
 2e8:	05045000 	streq	r5, [r4, #-0]
 2ec:	05300000 	ldreq	r0, [r0, #-0]!
 2f0:	00010000 	andeq	r0, r1, r0
 2f4:	00059457 	andeq	r9, r5, r7, asr r4
 2f8:	00059400 	andeq	r9, r5, r0, lsl #8
 2fc:	50000100 	andpl	r0, r0, r0, lsl #2
 300:	00000594 	muleq	r0, r4, r5
 304:	0000059c 	muleq	r0, ip, r5
 308:	cc570001 	mrrcgt	0, 0, r0, r7, cr1
 30c:	d0000005 	andle	r0, r0, r5
 310:	01000005 	tsteq	r0, r5
 314:	06005000 	streq	r5, [r0], -r0
 318:	06040000 	streq	r0, [r4], -r0
 31c:	00010000 	andeq	r0, r1, r0
 320:	00063450 	andeq	r3, r6, r0, asr r4
 324:	00063800 	andeq	r3, r6, r0, lsl #16
 328:	50000100 	andpl	r0, r0, r0, lsl #2
 32c:	0000067c 	andeq	r0, r0, ip, ror r6
 330:	00000680 	andeq	r0, r0, r0, lsl #13
 334:	c0500001 	subsgt	r0, r0, r1
 338:	e0000006 	and	r0, r0, r6
 33c:	01000006 	tsteq	r0, r6
 340:	00005700 	andeq	r5, r0, r0, lsl #14
 344:	00000000 	andeq	r0, r0, r0
 348:	00020000 	andeq	r0, r2, r0
 34c:	00000000 	andeq	r0, r0, r0
 350:	00000300 	andeq	r0, r0, r0, lsl #6
 354:	00000308 	andeq	r0, r0, r8, lsl #6
 358:	9f300002 	svcls	0x00300002
 35c:	00000308 	andeq	r0, r0, r8, lsl #6
 360:	0000030c 	andeq	r0, r0, ip, lsl #6
 364:	14550001 	ldrbne	r0, [r5], #-1
 368:	e0000003 	and	r0, r0, r3
 36c:	01000006 	tsteq	r0, r6
 370:	00005500 	andeq	r5, r0, r0, lsl #10
 374:	00000000 	andeq	r0, r0, r0
 378:	00010000 	andeq	r0, r1, r0
	...
 384:	000003c0 	andeq	r0, r0, r0, asr #7
 388:	00000444 	andeq	r0, r0, r4, asr #8
 38c:	44560001 	ldrbmi	r0, [r6], #-1
 390:	a8000004 	stmdage	r0, {r2}
 394:	03000004 	movweq	r0, #4
 398:	9f7e7b00 	svcls	0x007e7b00
 39c:	000004a8 	andeq	r0, r0, r8, lsr #9
 3a0:	000004cc 	andeq	r0, r0, ip, asr #9
 3a4:	cc560001 	mrrcgt	0, 0, r0, r6, cr1
 3a8:	30000004 	andcc	r0, r0, r4
 3ac:	03000005 	movweq	r0, #5
 3b0:	9f7e7b00 	svcls	0x007e7b00
 3b4:	00000530 	andeq	r0, r0, r0, lsr r5
 3b8:	0000054c 	andeq	r0, r0, ip, asr #10
 3bc:	00560001 	subseq	r0, r6, r1
	...
 3cc:	00007800 	andeq	r7, r0, r0, lsl #16
 3d0:	00009c00 	andeq	r9, r0, r0, lsl #24
 3d4:	50000100 	andpl	r0, r0, r0, lsl #2
 3d8:	0000009c 	muleq	r0, ip, r0
 3dc:	00000104 	andeq	r0, r0, r4, lsl #2
 3e0:	02700003 	rsbseq	r0, r0, #3
 3e4:	0001049f 	muleq	r1, pc, r4	; <UNPREDICTABLE>
 3e8:	00022c00 	andeq	r2, r2, r0, lsl #24
 3ec:	f3000400 	vshl.u8	d0, d0, d0
 3f0:	009f5001 	addseq	r5, pc, r1
	...
 408:	78000000 	stmdavc	r0, {}	; <UNPREDICTABLE>
 40c:	e8000000 	stmda	r0, {}	; <UNPREDICTABLE>
 410:	01000000 	mrseq	r0, (UNDEF: 0)
 414:	00e85100 	rsceq	r5, r8, r0, lsl #2
 418:	015c0000 	cmpeq	ip, r0
 41c:	00010000 	andeq	r0, r1, r0
 420:	00015c55 	andeq	r5, r1, r5, asr ip
 424:	00016000 	andeq	r6, r1, r0
 428:	51000100 	mrspl	r0, (UNDEF: 16)
 42c:	00000160 	andeq	r0, r0, r0, ror #2
 430:	000001b8 			; <UNDEFINED> instruction: 0x000001b8
 434:	b8550001 	ldmdalt	r5, {r0}^
 438:	c8000001 	stmdagt	r0, {r0}
 43c:	01000001 	tsteq	r0, r1
 440:	01c85100 	biceq	r5, r8, r0, lsl #2
 444:	01ec0000 	mvneq	r0, r0
 448:	00010000 	andeq	r0, r1, r0
 44c:	0001ec55 	andeq	lr, r1, r5, asr ip
 450:	00020000 	andeq	r0, r2, r0
 454:	51000100 	mrspl	r0, (UNDEF: 16)
 458:	00000200 	andeq	r0, r0, r0, lsl #4
 45c:	0000022c 	andeq	r0, r0, ip, lsr #4
 460:	00550001 	subseq	r0, r5, r1
	...
 46c:	78000000 	stmdavc	r0, {}	; <UNPREDICTABLE>
 470:	8c000000 	stchi	0, cr0, [r0], {-0}
 474:	01000000 	mrseq	r0, (UNDEF: 0)
 478:	008c5200 	addeq	r5, ip, r0, lsl #4
 47c:	022c0000 	eoreq	r0, ip, #0
 480:	00010000 	andeq	r0, r1, r0
 484:	00000054 	andeq	r0, r0, r4, asr r0
	...
 490:	00010000 	andeq	r0, r1, r0
 494:	00000000 	andeq	r0, r0, r0
 498:	00007800 	andeq	r7, r0, r0, lsl #16
 49c:	0000fc00 	andeq	pc, r0, r0, lsl #24
 4a0:	53000100 	movwpl	r0, #256	; 0x100
 4a4:	00000154 	andeq	r0, r0, r4, asr r1
 4a8:	00000188 	andeq	r0, r0, r8, lsl #3
 4ac:	88530001 	ldmdahi	r3, {r0}^
 4b0:	94000001 	strls	r0, [r0], #-1
 4b4:	04000001 	streq	r0, [r0], #-1
 4b8:	5301f300 	movwpl	pc, #4864	; 0x1300	; <UNPREDICTABLE>
 4bc:	0001b89f 	muleq	r1, pc, r8	; <UNPREDICTABLE>
 4c0:	0001f000 	andeq	pc, r1, r0
 4c4:	53000100 	movwpl	r0, #256	; 0x100
 4c8:	000001f0 	strdeq	r0, [r0], -r0	; <UNPREDICTABLE>
 4cc:	00000207 	andeq	r0, r0, r7, lsl #4
 4d0:	075c0001 	ldrbeq	r0, [ip, -r1]
 4d4:	2c000002 	stccs	0, cr0, [r0], {2}
 4d8:	04000002 	streq	r0, [r0], #-2
 4dc:	5301f300 	movwpl	pc, #4864	; 0x1300	; <UNPREDICTABLE>
 4e0:	0000009f 	muleq	r0, pc, r0	; <UNPREDICTABLE>
	...
 4ec:	78000000 	stmdavc	r0, {}	; <UNPREDICTABLE>
 4f0:	94000000 	strls	r0, [r0], #-0
 4f4:	02000000 	andeq	r0, r0, #0
 4f8:	94009100 	strls	r9, [r0], #-256	; 0xffffff00
 4fc:	9b000000 	blls	504 <__code_start__-0x7afc>
 500:	01000001 	tsteq	r0, r1
 504:	01b85200 			; <UNDEFINED> instruction: 0x01b85200
 508:	01fc0000 	mvnseq	r0, r0
 50c:	00010000 	andeq	r0, r1, r0
 510:	00000052 	andeq	r0, r0, r2, asr r0
 514:	00000000 	andeq	r0, r0, r0
 518:	00000100 	andeq	r0, r0, r0, lsl #2
 51c:	00000101 	andeq	r0, r0, r1, lsl #2
 520:	00000000 	andeq	r0, r0, r0
 524:	01010000 	mrseq	r0, (UNDEF: 1)
 528:	00000101 	andeq	r0, r0, r1, lsl #2
 52c:	00000101 	andeq	r0, r0, r1, lsl #2
 530:	00000000 	andeq	r0, r0, r0
 534:	94000000 	strls	r0, [r0], #-0
 538:	04000000 	streq	r0, [r0], #-0
 53c:	04000001 	streq	r0, [r0], #-1
 540:	7fa09100 	svcvc	0x00a09100
 544:	0001049f 	muleq	r1, pc, r4	; <UNPREDICTABLE>
 548:	00014400 	andeq	r4, r1, r0, lsl #8
 54c:	50000100 	andpl	r0, r0, r0, lsl #2
 550:	00000144 	andeq	r0, r0, r4, asr #2
 554:	00000150 	andeq	r0, r0, r0, asr r1
 558:	02710003 	rsbseq	r0, r1, #3
 55c:	0001509f 	muleq	r1, pc, r0	; <UNPREDICTABLE>
 560:	00015400 	andeq	r5, r1, r0, lsl #8
 564:	50000100 	andpl	r0, r0, r0, lsl #2
 568:	00000154 	andeq	r0, r0, r4, asr r1
 56c:	00000160 	andeq	r0, r0, r0, ror #2
 570:	a0910004 	addsge	r0, r1, r4
 574:	01609f7f 	smceq	2559	; 0x9ff
 578:	01740000 	cmneq	r4, r0
 57c:	00010000 	andeq	r0, r1, r0
 580:	00017451 	andeq	r7, r1, r1, asr r4
 584:	00018000 	andeq	r8, r1, r0
 588:	71000300 	mrsvc	r0, LR_irq
 58c:	01809f7f 	orreq	r9, r0, pc, ror pc
 590:	018c0000 	orreq	r0, ip, r0
 594:	00030000 	andeq	r0, r3, r0
 598:	8c9f0171 	ldfhis	f0, [pc], {113}	; 0x71
 59c:	9b000001 	blls	5a8 <__code_start__-0x7a58>
 5a0:	01000001 	tsteq	r0, r1
 5a4:	01b85000 			; <UNDEFINED> instruction: 0x01b85000
 5a8:	01b80000 			; <UNDEFINED> instruction: 0x01b80000
 5ac:	00040000 	andeq	r0, r4, r0
 5b0:	9f7fa091 	svcls	0x007fa091
 5b4:	000001b8 			; <UNDEFINED> instruction: 0x000001b8
 5b8:	000001c4 	andeq	r0, r0, r4, asr #3
 5bc:	a1910004 	orrsge	r0, r1, r4
 5c0:	01c49f7f 	biceq	r9, r4, pc, ror pc
 5c4:	01c80000 	biceq	r0, r8, r0
 5c8:	00040000 	andeq	r0, r4, r0
 5cc:	9f7fa091 	svcls	0x007fa091
 5d0:	000001c8 	andeq	r0, r0, r8, asr #3
 5d4:	000001dc 	ldrdeq	r0, [r0], -ip
 5d8:	dc500001 	mrrcle	0, 0, r0, r0, cr1	; <UNPREDICTABLE>
 5dc:	ec000001 	stc	0, cr0, [r0], {1}
 5e0:	03000001 	movweq	r0, #1
 5e4:	9f7f7000 	svcls	0x007f7000
 5e8:	000001ec 	andeq	r0, r0, ip, ror #3
 5ec:	0000022c 	andeq	r0, r0, ip, lsr #4
 5f0:	a0910004 	addsge	r0, r1, r4
 5f4:	00009f7f 	andeq	r9, r0, pc, ror pc
	...
 600:	00010100 	andeq	r0, r1, r0, lsl #2
	...
 610:	00980000 	addseq	r0, r8, r0
 614:	00e40000 	rsceq	r0, r4, r0
 618:	00010000 	andeq	r0, r1, r0
 61c:	0000e45c 	andeq	lr, r0, ip, asr r4
 620:	0000fc00 	andeq	pc, r0, r0, lsl #24
 624:	53000100 	movwpl	r0, #256	; 0x100
 628:	000000fc 	strdeq	r0, [r0], -ip
 62c:	00000154 	andeq	r0, r0, r4, asr r1
 630:	545c0001 	ldrbpl	r0, [ip], #-1
 634:	60000001 	andvs	r0, r0, r1
 638:	01000001 	tsteq	r0, r1
 63c:	01605300 	cmneq	r0, r0, lsl #6
 640:	017c0000 	cmneq	ip, r0
 644:	00010000 	andeq	r0, r1, r0
 648:	0001b85c 	andeq	fp, r1, ip, asr r8
 64c:	0001c800 	andeq	ip, r1, r0, lsl #16
 650:	53000100 	movwpl	r0, #256	; 0x100
 654:	000001c8 	andeq	r0, r0, r8, asr #3
 658:	000001e4 	andeq	r0, r0, r4, ror #3
 65c:	ec5c0001 	mrrc	0, 0, r0, ip, cr1
 660:	f0000001 			; <UNDEFINED> instruction: 0xf0000001
 664:	01000001 	tsteq	r0, r1
 668:	01f05300 	mvnseq	r5, r0, lsl #6
 66c:	02070000 	andeq	r0, r7, #0
 670:	00010000 	andeq	r0, r1, r0
 674:	0002075c 	andeq	r0, r2, ip, asr r7
 678:	00022c00 	andeq	r2, r2, r0, lsl #24
 67c:	f3000400 	vshl.u8	d0, d0, d0
 680:	009f5301 	addseq	r5, pc, r1, lsl #6
 684:	00000000 	andeq	r0, r0, r0
 688:	01000000 	mrseq	r0, (UNDEF: 0)
 68c:	00000101 	andeq	r0, r0, r1, lsl #2
 690:	e4000000 	str	r0, [r0], #-0
 694:	f8000000 			; <UNDEFINED> instruction: 0xf8000000
 698:	02000000 	andeq	r0, r0, #0
 69c:	f89f3000 			; <UNDEFINED> instruction: 0xf89f3000
 6a0:	00000000 	andeq	r0, r0, r0
 6a4:	02000001 	andeq	r0, r0, #1
 6a8:	049f3100 	ldreq	r3, [pc], #256	; 6b0 <__code_start__-0x7950>
 6ac:	54000001 	strpl	r0, [r0], #-1
 6b0:	01000001 	tsteq	r0, r1
 6b4:	01545600 	cmpeq	r4, r0, lsl #12
 6b8:	015c0000 	cmpeq	ip, r0
 6bc:	00020000 	andeq	r0, r2, r0
 6c0:	00009f30 	andeq	r9, r0, r0, lsr pc
	...
 6cc:	00010100 	andeq	r0, r1, r0, lsl #2
 6d0:	00010100 	andeq	r0, r1, r0, lsl #2
 6d4:	0000003c 	andeq	r0, r0, ip, lsr r0
 6d8:	0000005c 	andeq	r0, r0, ip, asr r0
 6dc:	5c500001 	mrrcpl	0, 0, r0, r0, cr1	; <UNPREDICTABLE>
 6e0:	5c000000 	stcpl	0, cr0, [r0], {-0}
 6e4:	01000000 	mrseq	r0, (UNDEF: 0)
 6e8:	005c5200 	subseq	r5, ip, r0, lsl #4
 6ec:	00640000 	rsbeq	r0, r4, r0
 6f0:	00030000 	andeq	r0, r3, r0
 6f4:	649f0172 	ldrvs	r0, [pc], #370	; 6fc <__code_start__-0x7904>
 6f8:	6c000000 	stcvs	0, cr0, [r0], {-0}
 6fc:	01000000 	mrseq	r0, (UNDEF: 0)
 700:	006c5200 	rsbeq	r5, ip, r0, lsl #4
 704:	00780000 	rsbseq	r0, r8, r0
 708:	00030000 	andeq	r0, r3, r0
 70c:	009f0172 	addseq	r0, pc, r2, ror r1	; <UNPREDICTABLE>
	...
 718:	3c000000 	stccc	0, cr0, [r0], {-0}
 71c:	54000000 	strpl	r0, [r0], #-0
 720:	01000000 	mrseq	r0, (UNDEF: 0)
 724:	00545100 	subseq	r5, r4, r0, lsl #2
 728:	00780000 	rsbseq	r0, r8, r0
 72c:	00040000 	andeq	r0, r4, r0
 730:	9f5101f3 	svcls	0x005101f3
	...
 740:	00010100 	andeq	r0, r1, r0, lsl #2
 744:	0000003c 	andeq	r0, r0, ip, lsr r0
 748:	00000054 	andeq	r0, r0, r4, asr r0
 74c:	54520001 	ldrbpl	r0, [r2], #-1
 750:	60000000 	andvs	r0, r0, r0
 754:	01000000 	mrseq	r0, (UNDEF: 0)
 758:	00605100 	rsbeq	r5, r0, r0, lsl #2
 75c:	00640000 	rsbeq	r0, r4, r0
 760:	00030000 	andeq	r0, r3, r0
 764:	649f0171 	ldrvs	r0, [pc], #369	; 76c <__code_start__-0x7894>
 768:	78000000 	stmdavc	r0, {}	; <UNPREDICTABLE>
 76c:	01000000 	mrseq	r0, (UNDEF: 0)
 770:	00005100 	andeq	r5, r0, r0, lsl #2
	...
 77c:	003c0000 	eorseq	r0, ip, r0
 780:	00500000 	subseq	r0, r0, r0
 784:	00010000 	andeq	r0, r1, r0
 788:	00005053 	andeq	r5, r0, r3, asr r0
 78c:	00007000 	andeq	r7, r0, r0
 790:	53000100 	movwpl	r0, #256	; 0x100
	...
 7a4:	00440000 	subeq	r0, r4, r0
 7a8:	004c0000 	subeq	r0, ip, r0
 7ac:	00010000 	andeq	r0, r1, r0
 7b0:	00004c5c 	andeq	r4, r0, ip, asr ip
 7b4:	00005000 	andeq	r5, r0, r0
 7b8:	72000800 	andvc	r0, r0, #0, 16
 7bc:	1c007300 	stcne	3, cr7, [r0], {-0}
 7c0:	509f0123 	addspl	r0, pc, r3, lsr #2
 7c4:	58000000 	stmdapl	r0, {}	; <UNPREDICTABLE>
 7c8:	09000000 	stmdbeq	r0, {}	; <UNPREDICTABLE>
 7cc:	f3007200 	vhsub.u8	d7, d0, d0
 7d0:	231c5301 	tstcs	ip, #67108864	; 0x4000000
 7d4:	00589f01 	subseq	r9, r8, r1, lsl #30
 7d8:	005c0000 	subseq	r0, ip, r0
 7dc:	00090000 	andeq	r0, r9, r0
 7e0:	01f30071 	mvnseq	r0, r1, ror r0
 7e4:	02231c53 	eoreq	r1, r3, #21248	; 0x5300
 7e8:	00005c9f 	muleq	r0, pc, ip	; <UNPREDICTABLE>
 7ec:	00007800 	andeq	r7, r0, r0, lsl #16
 7f0:	f3000a00 	vpmax.u8	d0, d0, d0
 7f4:	01f35201 	mvnseq	r5, r1, lsl #4
 7f8:	01231c53 			; <UNDEFINED> instruction: 0x01231c53
 7fc:	0000009f 	muleq	r0, pc, r0	; <UNPREDICTABLE>
 800:	00000000 	andeq	r0, r0, r0
 804:	50000100 	andpl	r0, r0, r0, lsl #2
 808:	78000000 	stmdavc	r0, {}	; <UNPREDICTABLE>
 80c:	01000000 	mrseq	r0, (UNDEF: 0)
 810:	00005000 	andeq	r5, r0, r0
 814:	00000000 	andeq	r0, r0, r0
 818:	01000000 	mrseq	r0, (UNDEF: 0)
 81c:	00000001 	andeq	r0, r0, r1
 820:	00000014 	andeq	r0, r0, r4, lsl r0
 824:	0000001c 	andeq	r0, r0, ip, lsl r0
 828:	1c500001 	mrrcne	0, 0, r0, r0, cr1	; <UNPREDICTABLE>
 82c:	24000000 	strcs	r0, [r0], #-0
 830:	03000000 	movweq	r0, #0
 834:	9f017000 	svcls	0x00017000
 838:	00000024 	andeq	r0, r0, r4, lsr #32
 83c:	0000003c 	andeq	r0, r0, ip, lsr r0
 840:	00500001 	subseq	r0, r0, r1
	...
 84c:	14000000 	strne	r0, [r0], #-0
 850:	18000000 	stmdane	r0, {}	; <UNPREDICTABLE>
 854:	01000000 	mrseq	r0, (UNDEF: 0)
 858:	00185100 	andseq	r5, r8, r0, lsl #2
 85c:	003c0000 	eorseq	r0, ip, r0
 860:	00040000 	andeq	r0, r4, r0
 864:	9f5101f3 	svcls	0x005101f3
	...
 870:	00180000 	andseq	r0, r8, r0
 874:	003c0000 	eorseq	r0, ip, r0
 878:	00010000 	andeq	r0, r1, r0
 87c:	00000051 	andeq	r0, r0, r1, asr r0
	...
 88c:	04000000 	streq	r0, [r0], #-0
 890:	01000000 	mrseq	r0, (UNDEF: 0)
 894:	00045000 	andeq	r5, r4, r0
 898:	000c0000 	andeq	r0, ip, r0
 89c:	00030000 	andeq	r0, r3, r0
 8a0:	0c9f3070 	ldceq	0, cr3, [pc], {112}	; 0x70
 8a4:	14000000 	strne	r0, [r0], #-0
 8a8:	04000000 	streq	r0, [r0], #-0
 8ac:	5001f300 	andpl	pc, r1, r0, lsl #6
 8b0:	0000009f 	muleq	r0, pc, r0	; <UNPREDICTABLE>
	...
 8bc:	00022c00 	andeq	r2, r2, r0, lsl #24
 8c0:	00027000 	andeq	r7, r2, r0
 8c4:	50000100 	andpl	r0, r0, r0, lsl #2
 8c8:	00000270 	andeq	r0, r0, r0, ror r2
 8cc:	00000290 	muleq	r0, r0, r2
 8d0:	01f30004 	mvnseq	r0, r4
 8d4:	00009f50 	andeq	r9, r0, r0, asr pc
	...
 8e0:	022c0000 	eoreq	r0, ip, #0
 8e4:	026c0000 	rsbeq	r0, ip, #0
 8e8:	00010000 	andeq	r0, r1, r0
 8ec:	00026c51 	andeq	r6, r2, r1, asr ip
 8f0:	00029000 	andeq	r9, r2, r0
 8f4:	f3000400 	vshl.u8	d0, d0, d0
 8f8:	009f5101 	addseq	r5, pc, r1, lsl #2
	...
 904:	00000101 	andeq	r0, r0, r1, lsl #2
 908:	00001000 	andeq	r1, r0, r0
 90c:	00001000 	andeq	r1, r0, r0
 910:	53000100 	movwpl	r0, #256	; 0x100
 914:	00000010 	andeq	r0, r0, r0, lsl r0
 918:	00000018 	andeq	r0, r0, r8, lsl r0
 91c:	04730003 	ldrbteq	r0, [r3], #-3
 920:	0000189f 	muleq	r0, pc, r8	; <UNPREDICTABLE>
 924:	00002700 	andeq	r2, r0, r0, lsl #14
 928:	53000100 	movwpl	r0, #256	; 0x100
	...
 934:	8c140001 	ldchi	0, cr0, [r4], {1}
 938:	8c300000 	ldchi	0, cr0, [r0], #-0
 93c:	00060000 	andeq	r0, r6, r0
 940:	10001c0c 	andne	r1, r0, ip, lsl #24
 944:	00009f20 	andeq	r9, r0, r0, lsr #30
 948:	00000000 	andeq	r0, r0, r0
 94c:	00020000 	andeq	r0, r2, r0
 950:	00008c14 	andeq	r8, r0, r4, lsl ip
 954:	00008c30 	andeq	r8, r0, r0, lsr ip
 958:	240c0006 	strcs	r0, [ip], #-6
 95c:	9f201000 	svcls	0x00201000
	...
 968:	8c140003 	ldchi	0, cr0, [r4], {3}
 96c:	8c300000 	ldchi	0, cr0, [r0], #-0
 970:	00050000 	andeq	r0, r5, r0
 974:	2447b408 	strbcs	fp, [r7], #-1032	; 0xfffffbf8
 978:	0000009f 	muleq	r0, pc, r0	; <UNPREDICTABLE>
 97c:	00000000 	andeq	r0, r0, r0
 980:	14000400 	strne	r0, [r0], #-1024	; 0xfffffc00
 984:	3000008c 	andcc	r0, r0, ip, lsl #1
 988:	0300008c 	movweq	r0, #140	; 0x8c
 98c:	9f200800 	svcls	0x00200800
	...
 998:	00000002 	andeq	r0, r0, r2
 99c:	8be00000 	blhi	ff8009a4 <__bss_end__+0xff7f754c>
 9a0:	8be40000 	blhi	ff9009a8 <__bss_end__+0xff8f7550>
 9a4:	00020000 	andeq	r0, r2, r0
 9a8:	8be49f30 	blhi	ff928670 <__bss_end__+0xff91f218>
 9ac:	8be80000 	blhi	ffa009b4 <__bss_end__+0xff9f755c>
 9b0:	00010000 	andeq	r0, r1, r0
 9b4:	008bec53 	addeq	lr, fp, r3, asr ip
 9b8:	008bf400 	addeq	pc, fp, r0, lsl #8
 9bc:	53000100 	movwpl	r0, #256	; 0x100
	...
 9c8:	00000002 	andeq	r0, r0, r2
 9cc:	00008bc8 	andeq	r8, r0, r8, asr #23
 9d0:	00008bcc 	andeq	r8, r0, ip, asr #23
 9d4:	9f300002 	svcls	0x00300002
 9d8:	00008bcc 	andeq	r8, r0, ip, asr #23
 9dc:	00008bd0 	ldrdeq	r8, [r0], -r0
 9e0:	00500001 	subseq	r0, r0, r1
	...
 9ec:	6c000000 	stcvs	0, cr0, [r0], {-0}
 9f0:	78000000 	stmdavc	r0, {}	; <UNPREDICTABLE>
 9f4:	01000000 	mrseq	r0, (UNDEF: 0)
 9f8:	00785000 	rsbseq	r5, r8, r0
 9fc:	00840000 	addeq	r0, r4, r0
 a00:	00040000 	andeq	r0, r4, r0
 a04:	9f5001f3 	svcls	0x005001f3
	...
 a14:	00000054 	andeq	r0, r0, r4, asr r0
 a18:	00000060 	andeq	r0, r0, r0, rrx
 a1c:	60500001 	subsvs	r0, r0, r1
 a20:	6c000000 	stcvs	0, cr0, [r0], {-0}
 a24:	04000000 	streq	r0, [r0], #-0
 a28:	5001f300 	andpl	pc, r1, r0, lsl #6
 a2c:	0000009f 	muleq	r0, pc, r0	; <UNPREDICTABLE>
	...
 a38:	00003000 	andeq	r3, r0, r0
 a3c:	00003b00 	andeq	r3, r0, r0, lsl #22
 a40:	50000100 	andpl	r0, r0, r0, lsl #2
 a44:	0000003b 	andeq	r0, r0, fp, lsr r0
 a48:	00000054 	andeq	r0, r0, r4, asr r0
 a4c:	00550001 	subseq	r0, r5, r1
	...
 a58:	00004000 	andeq	r4, r0, r0
 a5c:	00005400 	andeq	r5, r0, r0, lsl #8
 a60:	54000100 	strpl	r0, [r0], #-256	; 0xffffff00
	...
 a6c:	00440000 	subeq	r0, r4, r0
 a70:	00480000 	subeq	r0, r8, r0
 a74:	00010000 	andeq	r0, r1, r0
 a78:	00000050 	andeq	r0, r0, r0, asr r0
	...
 a84:	00002400 	andeq	r2, r0, r0, lsl #8
 a88:	00002700 	andeq	r2, r0, r0, lsl #14
 a8c:	50000100 	andpl	r0, r0, r0, lsl #2
 a90:	00000027 	andeq	r0, r0, r7, lsr #32
 a94:	00000030 	andeq	r0, r0, r0, lsr r0
 a98:	00540001 	subseq	r0, r4, r1
	...
 aa4:	c8000000 	stmdagt	r0, {}	; <UNPREDICTABLE>
 aa8:	d4000000 	strle	r0, [r0], #-0
 aac:	01000000 	mrseq	r0, (UNDEF: 0)
 ab0:	00d45000 	sbcseq	r5, r4, r0
 ab4:	00e80000 	rsceq	r0, r8, r0
 ab8:	00010000 	andeq	r0, r1, r0
 abc:	00000054 	andeq	r0, r0, r4, asr r0
	...
 ac8:	0000b800 	andeq	fp, r0, r0, lsl #16
 acc:	0000c300 	andeq	ip, r0, r0, lsl #6
 ad0:	50000100 	andpl	r0, r0, r0, lsl #2
 ad4:	000000c3 	andeq	r0, r0, r3, asr #1
 ad8:	000000c8 	andeq	r0, r0, r8, asr #1
 adc:	01f30004 	mvnseq	r0, r4
 ae0:	00009f50 	andeq	r9, r0, r0, asr pc
	...
 af0:	009c0000 	addseq	r0, ip, r0
 af4:	00ab0000 	adceq	r0, fp, r0
 af8:	00010000 	andeq	r0, r1, r0
 afc:	0000ab50 	andeq	sl, r0, r0, asr fp
 b00:	0000b000 	andeq	fp, r0, r0
 b04:	f3000400 	vshl.u8	d0, d0, d0
 b08:	b09f5001 	addslt	r5, pc, r1
 b0c:	b3000000 	movwlt	r0, #0
 b10:	01000000 	mrseq	r0, (UNDEF: 0)
 b14:	00b35000 	adcseq	r5, r3, r0
 b18:	00b80000 	adcseq	r0, r8, r0
 b1c:	00040000 	andeq	r0, r4, r0
 b20:	9f5001f3 	svcls	0x005001f3
	...
 b34:	0000009c 	muleq	r0, ip, r0
 b38:	000000ab 	andeq	r0, r0, fp, lsr #1
 b3c:	ab510001 	blge	1440b48 <__bss_end__+0x14376f0>
 b40:	b0000000 	andlt	r0, r0, r0
 b44:	04000000 	streq	r0, [r0], #-0
 b48:	5101f300 	mrspl	pc, SP_irq	; <UNPREDICTABLE>
 b4c:	0000b09f 	muleq	r0, pc, r0	; <UNPREDICTABLE>
 b50:	0000b300 	andeq	fp, r0, r0, lsl #6
 b54:	51000100 	mrspl	r0, (UNDEF: 16)
 b58:	000000b3 	strheq	r0, [r0], -r3
 b5c:	000000b8 	strheq	r0, [r0], -r8
 b60:	01f30004 	mvnseq	r0, r4
 b64:	00009f51 	andeq	r9, r0, r1, asr pc
	...
 b70:	00800000 	addeq	r0, r0, r0
 b74:	00900000 	addseq	r0, r0, r0
 b78:	00010000 	andeq	r0, r1, r0
 b7c:	00009050 	andeq	r9, r0, r0, asr r0
 b80:	00009c00 	andeq	r9, r0, r0, lsl #24
 b84:	f3000400 	vshl.u8	d0, d0, d0
 b88:	009f5001 	addseq	r5, pc, r1
	...
 b94:	64000000 	strvs	r0, [r0], #-0
 b98:	74000000 	strvc	r0, [r0], #-0
 b9c:	01000000 	mrseq	r0, (UNDEF: 0)
 ba0:	00745000 	rsbseq	r5, r4, r0
 ba4:	00800000 	addeq	r0, r0, r0
 ba8:	00040000 	andeq	r0, r4, r0
 bac:	9f5001f3 	svcls	0x005001f3
	...
 bbc:	00000054 	andeq	r0, r0, r4, asr r0
 bc0:	0000005f 	andeq	r0, r0, pc, asr r0
 bc4:	5f500001 	svcpl	0x00500001
 bc8:	64000000 	strvs	r0, [r0], #-0
 bcc:	04000000 	streq	r0, [r0], #-0
 bd0:	5001f300 	andpl	pc, r1, r0, lsl #6
 bd4:	0000009f 	muleq	r0, pc, r0	; <UNPREDICTABLE>
	...
 be4:	00002800 	andeq	r2, r0, r0, lsl #16
 be8:	50000100 	andpl	r0, r0, r0, lsl #2
 bec:	00000028 	andeq	r0, r0, r8, lsr #32
 bf0:	00000054 	andeq	r0, r0, r4, asr r0
 bf4:	00540001 	subseq	r0, r4, r1
	...
 c04:	2b000000 	blcs	c0c <__code_start__-0x73f4>
 c08:	01000000 	mrseq	r0, (UNDEF: 0)
 c0c:	002b5100 	eoreq	r5, fp, r0, lsl #2
 c10:	00540000 	subseq	r0, r4, r0
 c14:	00040000 	andeq	r0, r4, r0
 c18:	9f5101f3 	svcls	0x005101f3
	...
 c24:	00240000 	eoreq	r0, r4, r0
 c28:	00540000 	subseq	r0, r4, r0
 c2c:	00010000 	andeq	r0, r1, r0
 c30:	00000057 	andeq	r0, r0, r7, asr r0
 c34:	00000000 	andeq	r0, r0, r0
 c38:	2c000000 	stccs	0, cr0, [r0], {-0}
 c3c:	48000000 	stmdami	r0, {}	; <UNPREDICTABLE>
 c40:	01000000 	mrseq	r0, (UNDEF: 0)
 c44:	00005000 	andeq	r5, r0, r0
	...
 c50:	00000038 	andeq	r0, r0, r8, lsr r0
 c54:	00000054 	andeq	r0, r0, r4, asr r0
 c58:	00550001 	subseq	r0, r5, r1
	...
 c68:	0b000000 	bleq	c70 <__code_start__-0x7390>
 c6c:	01000000 	mrseq	r0, (UNDEF: 0)
 c70:	000b5000 	andeq	r5, fp, r0
 c74:	00140000 	andseq	r0, r4, r0
 c78:	00010000 	andeq	r0, r1, r0
 c7c:	00000054 	andeq	r0, r0, r4, asr r0
	...
 c8c:	00001c00 	andeq	r1, r0, r0, lsl #24
 c90:	51000100 	mrspl	r0, (UNDEF: 16)
 c94:	0000001c 	andeq	r0, r0, ip, lsl r0
 c98:	00000034 	andeq	r0, r0, r4, lsr r0
 c9c:	01f30004 	mvnseq	r0, r4
 ca0:	00009f51 	andeq	r9, r0, r1, asr pc
 ca4:	00000000 	andeq	r0, r0, r0
 ca8:	00020000 	andeq	r0, r2, r0
 cac:	01000000 	mrseq	r0, (UNDEF: 0)
 cb0:	00000001 	andeq	r0, r0, r1
 cb4:	00000000 	andeq	r0, r0, r0
 cb8:	00000004 	andeq	r0, r0, r4
 cbc:	04500001 	ldrbeq	r0, [r0], #-1
 cc0:	1c000000 	stcne	0, cr0, [r0], {-0}
 cc4:	01000000 	mrseq	r0, (UNDEF: 0)
 cc8:	001c5200 	andseq	r5, ip, r0, lsl #4
 ccc:	00240000 	eoreq	r0, r4, r0
 cd0:	00010000 	andeq	r0, r1, r0
 cd4:	00002453 	andeq	r2, r0, r3, asr r4
 cd8:	00002800 	andeq	r2, r0, r0, lsl #16
 cdc:	73000300 	movwvc	r0, #768	; 0x300
 ce0:	00289f01 	eoreq	r9, r8, r1, lsl #30
 ce4:	00340000 	eorseq	r0, r4, r0
 ce8:	00010000 	andeq	r0, r1, r0
 cec:	00000053 	andeq	r0, r0, r3, asr r0
 cf0:	00000000 	andeq	r0, r0, r0
 cf4:	00000300 	andeq	r0, r0, r0, lsl #6
 cf8:	00000000 	andeq	r0, r0, r0
 cfc:	00002400 	andeq	r2, r0, r0, lsl #8
 d00:	51000100 	mrspl	r0, (UNDEF: 16)
 d04:	00000024 	andeq	r0, r0, r4, lsr #32
 d08:	00000034 	andeq	r0, r0, r4, lsr r0
 d0c:	7f710003 	svcvc	0x00710003
 d10:	0000009f 	muleq	r0, pc, r0	; <UNPREDICTABLE>
	...
 d1c:	00001000 	andeq	r1, r0, r0
 d20:	00001c00 	andeq	r1, r0, r0, lsl #24
 d24:	5c000100 	stfpls	f0, [r0], {-0}
 d28:	00000024 	andeq	r0, r0, r4, lsr #32
 d2c:	00000034 	andeq	r0, r0, r4, lsr r0
 d30:	00520001 	subseq	r0, r2, r1
	...
 d40:	08000000 	stmdaeq	r0, {}	; <UNPREDICTABLE>
 d44:	01000000 	mrseq	r0, (UNDEF: 0)
 d48:	00085000 	andeq	r5, r8, r0
 d4c:	00280000 	eoreq	r0, r8, r0
 d50:	00010000 	andeq	r0, r1, r0
 d54:	00000050 	andeq	r0, r0, r0, asr r0
	...
 d64:	00000c00 	andeq	r0, r0, r0, lsl #24
 d68:	51000100 	mrspl	r0, (UNDEF: 16)
 d6c:	0000000c 	andeq	r0, r0, ip
 d70:	00000030 	andeq	r0, r0, r0, lsr r0
 d74:	00510001 	subseq	r0, r1, r1
	...
 d88:	00000400 	andeq	r0, r0, r0, lsl #8
 d8c:	51000100 	mrspl	r0, (UNDEF: 16)
 d90:	00000004 	andeq	r0, r0, r4
 d94:	0000000c 	andeq	r0, r0, ip
 d98:	0c510001 	mrrceq	0, 0, r0, r1, cr1
 d9c:	20000000 	andcs	r0, r0, r0
 da0:	03000000 	movweq	r0, #0
 da4:	9f7f7100 	svcls	0x007f7100
	...
 db0:	00000002 	andeq	r0, r0, r2
 db4:	00000000 	andeq	r0, r0, r0
 db8:	00040000 	andeq	r0, r4, r0
 dbc:	00010000 	andeq	r0, r1, r0
 dc0:	00000450 	andeq	r0, r0, r0, asr r4
 dc4:	00001400 	andeq	r1, r0, r0, lsl #8
 dc8:	5c000100 	stfpls	f0, [r0], {-0}
 dcc:	00000014 	andeq	r0, r0, r4, lsl r0
 dd0:	00000020 	andeq	r0, r0, r0, lsr #32
 dd4:	7f7c0003 	svcvc	0x007c0003
 dd8:	0000009f 	muleq	r0, pc, r0	; <UNPREDICTABLE>
 ddc:	00000000 	andeq	r0, r0, r0
 de0:	03030000 	movweq	r0, #12288	; 0x3000
 de4:	008e7400 	addeq	r7, lr, r0, lsl #8
 de8:	008e7400 	addeq	r7, lr, r0, lsl #8
 dec:	50000100 	andpl	r0, r0, r0, lsl #2
 df0:	00008e74 	andeq	r8, r0, r4, ror lr
 df4:	00008ea0 	andeq	r8, r0, r0, lsr #29
 df8:	01f30004 	mvnseq	r0, r4
 dfc:	00009f50 	andeq	r9, r0, r0, asr pc
 e00:	00000000 	andeq	r0, r0, r0
 e04:	03000000 	movweq	r0, #0
 e08:	8e740003 	cdphi	0, 7, cr0, cr4, cr3, {0}
 e0c:	8e740000 	cdphi	0, 7, cr0, cr4, cr0, {0}
 e10:	00010000 	andeq	r0, r1, r0
 e14:	008e7451 	addeq	r7, lr, r1, asr r4
 e18:	008ea000 	addeq	sl, lr, r0
 e1c:	f3000400 	vshl.u8	d0, d0, d0
 e20:	009f5101 	addseq	r5, pc, r1, lsl #2
	...
 e2c:	00000303 	andeq	r0, r0, r3, lsl #6
 e30:	008e7400 	addeq	r7, lr, r0, lsl #8
 e34:	008e7400 	addeq	r7, lr, r0, lsl #8
 e38:	52000100 	andpl	r0, r0, #0, 2
 e3c:	00008e74 	andeq	r8, r0, r4, ror lr
 e40:	00008e7c 	andeq	r8, r0, ip, ror lr
 e44:	7c520001 	mrrcvc	0, 0, r0, r2, cr1
 e48:	a000008e 	andge	r0, r0, lr, lsl #1
 e4c:	0300008e 	movweq	r0, #142	; 0x8e
 e50:	9f017200 	svcls	0x00017200
	...
 e5c:	00010102 	andeq	r0, r1, r2, lsl #2
 e60:	00000000 	andeq	r0, r0, r0
 e64:	00008e74 	andeq	r8, r0, r4, ror lr
 e68:	00008e80 	andeq	r8, r0, r0, lsl #29
 e6c:	80500001 	subshi	r0, r0, r1
 e70:	8400008e 	strhi	r0, [r0], #-142	; 0xffffff72
 e74:	0300008e 	movweq	r0, #142	; 0x8e
 e78:	9f017000 	svcls	0x00017000
 e7c:	00008e84 	andeq	r8, r0, r4, lsl #29
 e80:	00008e94 	muleq	r0, r4, lr
 e84:	98500001 	ldmdals	r0, {r0}^
 e88:	9c00008e 	stcls	0, cr0, [r0], {142}	; 0x8e
 e8c:	0100008e 	smlabbeq	r0, lr, r0, r0
 e90:	00005000 	andeq	r5, r0, r0
 e94:	00000000 	andeq	r0, r0, r0
 e98:	00020000 	andeq	r0, r2, r0
 e9c:	00000000 	andeq	r0, r0, r0
 ea0:	00008e74 	andeq	r8, r0, r4, ror lr
 ea4:	00008e84 	andeq	r8, r0, r4, lsl #29
 ea8:	84510001 	ldrbhi	r0, [r1], #-1
 eac:	8800008e 	stmdahi	r0, {r1, r2, r3, r7}
 eb0:	0300008e 	movweq	r0, #142	; 0x8e
 eb4:	9f017100 	svcls	0x00017100
 eb8:	00008e88 	andeq	r8, r0, r8, lsl #29
 ebc:	00008ea0 	andeq	r8, r0, r0, lsr #29
 ec0:	00510001 	subseq	r0, r1, r1
 ec4:	00000000 	andeq	r0, r0, r0
 ec8:	Address 0x0000000000000ec8 is out of bounds.


Disassembly of section .debug_ranges:

00000000 <.debug_ranges>:
   0:	00008bc8 	andeq	r8, r0, r8, asr #23
   4:	00008c48 	andeq	r8, r0, r8, asr #24
	...
  10:	00008e74 	andeq	r8, r0, r4, ror lr
  14:	00008ea0 	andeq	r8, r0, r0, lsr #29
	...
