
2hello-once.elf:     file format elf32-littlearm


Disassembly of section .text:

00008000 <__code_start__>:
    8000:	e3a00013 	mov	r0, #19
    8004:	e3800080 	orr	r0, r0, #128	; 0x80
    8008:	e129f000 	msr	CPSR_fc, r0
    800c:	e3a01000 	mov	r1, #0
    8010:	ee071f95 	mcr	15, 0, r1, cr7, cr5, {4}
    8014:	e3a0d302 	mov	sp, #134217728	; 0x8000000
    8018:	e3a0b000 	mov	fp, #0
    801c:	eb0002d8 	bl	8b84 <_cstart>
    8020:	eb0002f3 	bl	8bf4 <rpi_reboot>

00008024 <PUT32>:
    8024:	e5801000 	str	r1, [r0]
    8028:	e12fff1e 	bx	lr

0000802c <GET32>:
    802c:	e5900000 	ldr	r0, [r0]
    8030:	e12fff1e 	bx	lr

00008034 <BRANCHTO>:
    8034:	e12fff10 	bx	r0

00008038 <notmain>:
    8038:	e92d4010 	push	{r4, lr}
    803c:	eb000012 	bl	808c <uart_init>
    8040:	e59f0004 	ldr	r0, [pc, #4]	; 804c <notmain+0x14>
    8044:	eb0000d6 	bl	83a4 <printk>
    8048:	eb0002c2 	bl	8b58 <clean_reboot>
    804c:	00008ec0 	andeq	r8, r0, r0, asr #29

00008050 <uart_can_getc>:
    8050:	e52de004 	push	{lr}		; (str lr, [sp, #-4]!)
    8054:	e24dd00c 	sub	sp, sp, #12
    8058:	e59f3020 	ldr	r3, [pc, #32]	; 8080 <uart_can_getc+0x30>
    805c:	e59f2020 	ldr	r2, [pc, #32]	; 8084 <uart_can_getc+0x34>
    8060:	e5832000 	str	r2, [r3]
    8064:	e59f001c 	ldr	r0, [pc, #28]	; 8088 <uart_can_getc+0x38>
    8068:	ebffffef 	bl	802c <GET32>
    806c:	e58d0004 	str	r0, [sp, #4]
    8070:	e5dd0004 	ldrb	r0, [sp, #4]
    8074:	e2000001 	and	r0, r0, #1
    8078:	e28dd00c 	add	sp, sp, #12
    807c:	e49df004 	pop	{pc}		; (ldr pc, [sp], #4)
    8080:	00009050 	andeq	r9, r0, r0, asr r0
    8084:	20215000 	eorcs	r5, r1, r0
    8088:	20215064 	eorcs	r5, r1, r4, rrx

0000808c <uart_init>:
    808c:	e92d4070 	push	{r4, r5, r6, lr}
    8090:	e59f4180 	ldr	r4, [pc, #384]	; 8218 <uart_init+0x18c>
    8094:	e59f3180 	ldr	r3, [pc, #384]	; 821c <uart_init+0x190>
    8098:	e5843000 	str	r3, [r4]
    809c:	e3a01002 	mov	r1, #2
    80a0:	e3a0000e 	mov	r0, #14
    80a4:	eb000308 	bl	8ccc <gpio_set_function>
    80a8:	e3a01002 	mov	r1, #2
    80ac:	e3a0000f 	mov	r0, #15
    80b0:	eb000305 	bl	8ccc <gpio_set_function>
    80b4:	e5945000 	ldr	r5, [r4]
    80b8:	e2850004 	add	r0, r5, #4
    80bc:	ebffffda 	bl	802c <GET32>
    80c0:	e5850004 	str	r0, [r5, #4]
    80c4:	e5943000 	ldr	r3, [r4]
    80c8:	e5d32004 	ldrb	r2, [r3, #4]
    80cc:	e3822001 	orr	r2, r2, #1
    80d0:	e1a00003 	mov	r0, r3
    80d4:	e5e02004 	strb	r2, [r0, #4]!
    80d8:	e5931004 	ldr	r1, [r3, #4]
    80dc:	ebffffd0 	bl	8024 <PUT32>
    80e0:	e5945000 	ldr	r5, [r4]
    80e4:	e2850060 	add	r0, r5, #96	; 0x60
    80e8:	ebffffcf 	bl	802c <GET32>
    80ec:	e5850060 	str	r0, [r5, #96]	; 0x60
    80f0:	e5943000 	ldr	r3, [r4]
    80f4:	e5d32060 	ldrb	r2, [r3, #96]	; 0x60
    80f8:	e3c22001 	bic	r2, r2, #1
    80fc:	e5c32060 	strb	r2, [r3, #96]	; 0x60
    8100:	e6ef2072 	uxtb	r2, r2
    8104:	e3c22002 	bic	r2, r2, #2
    8108:	e1a00003 	mov	r0, r3
    810c:	e5e02060 	strb	r2, [r0, #96]!	; 0x60
    8110:	e5931060 	ldr	r1, [r3, #96]	; 0x60
    8114:	ebffffc2 	bl	8024 <PUT32>
    8118:	e5945000 	ldr	r5, [r4]
    811c:	e2850044 	add	r0, r5, #68	; 0x44
    8120:	ebffffc1 	bl	802c <GET32>
    8124:	e5850044 	str	r0, [r5, #68]	; 0x44
    8128:	e5943000 	ldr	r3, [r4]
    812c:	e5d32044 	ldrb	r2, [r3, #68]	; 0x44
    8130:	e3c22002 	bic	r2, r2, #2
    8134:	e5c32044 	strb	r2, [r3, #68]	; 0x44
    8138:	e6ef2072 	uxtb	r2, r2
    813c:	e3c22001 	bic	r2, r2, #1
    8140:	e1a00003 	mov	r0, r3
    8144:	e5e02044 	strb	r2, [r0, #68]!	; 0x44
    8148:	e5931044 	ldr	r1, [r3, #68]	; 0x44
    814c:	ebffffb4 	bl	8024 <PUT32>
    8150:	e5945000 	ldr	r5, [r4]
    8154:	e2850048 	add	r0, r5, #72	; 0x48
    8158:	ebffffb3 	bl	802c <GET32>
    815c:	e5850048 	str	r0, [r5, #72]	; 0x48
    8160:	e5943000 	ldr	r3, [r4]
    8164:	e5d32048 	ldrb	r2, [r3, #72]	; 0x48
    8168:	e3822002 	orr	r2, r2, #2
    816c:	e5c32048 	strb	r2, [r3, #72]	; 0x48
    8170:	e6ef2072 	uxtb	r2, r2
    8174:	e3822004 	orr	r2, r2, #4
    8178:	e1a00003 	mov	r0, r3
    817c:	e5e02048 	strb	r2, [r0, #72]!	; 0x48
    8180:	e5931048 	ldr	r1, [r3, #72]	; 0x48
    8184:	ebffffa6 	bl	8024 <PUT32>
    8188:	e5945000 	ldr	r5, [r4]
    818c:	e2850068 	add	r0, r5, #104	; 0x68
    8190:	ebffffa5 	bl	802c <GET32>
    8194:	e5850068 	str	r0, [r5, #104]	; 0x68
    8198:	e5943000 	ldr	r3, [r4]
    819c:	e1a00003 	mov	r0, r3
    81a0:	e59f2078 	ldr	r2, [pc, #120]	; 8220 <uart_init+0x194>
    81a4:	e1e026b8 	strh	r2, [r0, #104]!	; 0x68
    81a8:	e5931068 	ldr	r1, [r3, #104]	; 0x68
    81ac:	ebffff9c 	bl	8024 <PUT32>
    81b0:	e5945000 	ldr	r5, [r4]
    81b4:	e285004c 	add	r0, r5, #76	; 0x4c
    81b8:	ebffff9b 	bl	802c <GET32>
    81bc:	e585004c 	str	r0, [r5, #76]	; 0x4c
    81c0:	e5943000 	ldr	r3, [r4]
    81c4:	e5d3204c 	ldrb	r2, [r3, #76]	; 0x4c
    81c8:	e3822001 	orr	r2, r2, #1
    81cc:	e1a00003 	mov	r0, r3
    81d0:	e5e0204c 	strb	r2, [r0, #76]!	; 0x4c
    81d4:	e593104c 	ldr	r1, [r3, #76]	; 0x4c
    81d8:	ebffff91 	bl	8024 <PUT32>
    81dc:	e5945000 	ldr	r5, [r4]
    81e0:	e2850060 	add	r0, r5, #96	; 0x60
    81e4:	ebffff90 	bl	802c <GET32>
    81e8:	e5850060 	str	r0, [r5, #96]	; 0x60
    81ec:	e5943000 	ldr	r3, [r4]
    81f0:	e5d32060 	ldrb	r2, [r3, #96]	; 0x60
    81f4:	e3822001 	orr	r2, r2, #1
    81f8:	e5c32060 	strb	r2, [r3, #96]	; 0x60
    81fc:	e6ef2072 	uxtb	r2, r2
    8200:	e3822002 	orr	r2, r2, #2
    8204:	e1a00003 	mov	r0, r3
    8208:	e5e02060 	strb	r2, [r0, #96]!	; 0x60
    820c:	e5931060 	ldr	r1, [r3, #96]	; 0x60
    8210:	ebffff83 	bl	8024 <PUT32>
    8214:	e8bd8070 	pop	{r4, r5, r6, pc}
    8218:	00009050 	andeq	r9, r0, r0, asr r0
    821c:	20215000 	eorcs	r5, r1, r0
    8220:	0000010e 	andeq	r0, r0, lr, lsl #2

00008224 <uart_getc>:
    8224:	e92d4010 	push	{r4, lr}
    8228:	e59f3028 	ldr	r3, [pc, #40]	; 8258 <uart_getc+0x34>
    822c:	e59f2028 	ldr	r2, [pc, #40]	; 825c <uart_getc+0x38>
    8230:	e5832000 	str	r2, [r3]
    8234:	ebffff85 	bl	8050 <uart_can_getc>
    8238:	e3500000 	cmp	r0, #0
    823c:	0afffffc 	beq	8234 <uart_getc+0x10>
    8240:	e59f3010 	ldr	r3, [pc, #16]	; 8258 <uart_getc+0x34>
    8244:	e5930000 	ldr	r0, [r3]
    8248:	e2800040 	add	r0, r0, #64	; 0x40
    824c:	ebffff76 	bl	802c <GET32>
    8250:	e6ef0070 	uxtb	r0, r0
    8254:	e8bd8010 	pop	{r4, pc}
    8258:	00009050 	andeq	r9, r0, r0, asr r0
    825c:	20215000 	eorcs	r5, r1, r0

00008260 <uart_can_putc>:
    8260:	e52de004 	push	{lr}		; (str lr, [sp, #-4]!)
    8264:	e24dd00c 	sub	sp, sp, #12
    8268:	e59f3024 	ldr	r3, [pc, #36]	; 8294 <uart_can_putc+0x34>
    826c:	e59f2024 	ldr	r2, [pc, #36]	; 8298 <uart_can_putc+0x38>
    8270:	e5832000 	str	r2, [r3]
    8274:	e59f0020 	ldr	r0, [pc, #32]	; 829c <uart_can_putc+0x3c>
    8278:	ebffff6b 	bl	802c <GET32>
    827c:	e58d0004 	str	r0, [sp, #4]
    8280:	e5dd0004 	ldrb	r0, [sp, #4]
    8284:	e1a000a0 	lsr	r0, r0, #1
    8288:	e2000001 	and	r0, r0, #1
    828c:	e28dd00c 	add	sp, sp, #12
    8290:	e49df004 	pop	{pc}		; (ldr pc, [sp], #4)
    8294:	00009050 	andeq	r9, r0, r0, asr r0
    8298:	20215000 	eorcs	r5, r1, r0
    829c:	20215064 	eorcs	r5, r1, r4, rrx

000082a0 <uart_putc>:
    82a0:	e92d4010 	push	{r4, lr}
    82a4:	e1a04000 	mov	r4, r0
    82a8:	e59f3028 	ldr	r3, [pc, #40]	; 82d8 <uart_putc+0x38>
    82ac:	e59f2028 	ldr	r2, [pc, #40]	; 82dc <uart_putc+0x3c>
    82b0:	e5832000 	str	r2, [r3]
    82b4:	ebffffe9 	bl	8260 <uart_can_putc>
    82b8:	e3500000 	cmp	r0, #0
    82bc:	0afffffc 	beq	82b4 <uart_putc+0x14>
    82c0:	e59f3010 	ldr	r3, [pc, #16]	; 82d8 <uart_putc+0x38>
    82c4:	e5930000 	ldr	r0, [r3]
    82c8:	e1a01004 	mov	r1, r4
    82cc:	e2800040 	add	r0, r0, #64	; 0x40
    82d0:	ebffff53 	bl	8024 <PUT32>
    82d4:	e8bd8010 	pop	{r4, pc}
    82d8:	00009050 	andeq	r9, r0, r0, asr r0
    82dc:	20215000 	eorcs	r5, r1, r0

000082e0 <uart_has_data>:
    82e0:	e92d4010 	push	{r4, lr}
    82e4:	ebffff59 	bl	8050 <uart_can_getc>
    82e8:	e8bd8010 	pop	{r4, pc}

000082ec <uart_getc_async>:
    82ec:	e92d4010 	push	{r4, lr}
    82f0:	ebfffffa 	bl	82e0 <uart_has_data>
    82f4:	e3500000 	cmp	r0, #0
    82f8:	0a000001 	beq	8304 <uart_getc_async+0x18>
    82fc:	ebffffc8 	bl	8224 <uart_getc>
    8300:	e8bd8010 	pop	{r4, pc}
    8304:	e3e00000 	mvn	r0, #0
    8308:	e8bd8010 	pop	{r4, pc}

0000830c <uart_tx_is_empty>:
    830c:	e52de004 	push	{lr}		; (str lr, [sp, #-4]!)
    8310:	e24dd00c 	sub	sp, sp, #12
    8314:	e59f3020 	ldr	r3, [pc, #32]	; 833c <uart_tx_is_empty+0x30>
    8318:	e59f2020 	ldr	r2, [pc, #32]	; 8340 <uart_tx_is_empty+0x34>
    831c:	e5832000 	str	r2, [r3]
    8320:	e59f001c 	ldr	r0, [pc, #28]	; 8344 <uart_tx_is_empty+0x38>
    8324:	ebffff40 	bl	802c <GET32>
    8328:	e58d0004 	str	r0, [sp, #4]
    832c:	e5dd0005 	ldrb	r0, [sp, #5]
    8330:	e2000001 	and	r0, r0, #1
    8334:	e28dd00c 	add	sp, sp, #12
    8338:	e49df004 	pop	{pc}		; (ldr pc, [sp], #4)
    833c:	00009050 	andeq	r9, r0, r0, asr r0
    8340:	20215000 	eorcs	r5, r1, r0
    8344:	20215064 	eorcs	r5, r1, r4, rrx

00008348 <uart_flush_tx>:
    8348:	e92d4010 	push	{r4, lr}
    834c:	ebffffee 	bl	830c <uart_tx_is_empty>
    8350:	e3500000 	cmp	r0, #0
    8354:	0afffffc 	beq	834c <uart_flush_tx+0x4>
    8358:	e8bd8010 	pop	{r4, pc}

0000835c <uart_disable>:
    835c:	e92d4070 	push	{r4, r5, r6, lr}
    8360:	e59f4038 	ldr	r4, [pc, #56]	; 83a0 <uart_disable+0x44>
    8364:	e5945000 	ldr	r5, [r4]
    8368:	e2850060 	add	r0, r5, #96	; 0x60
    836c:	ebffff2e 	bl	802c <GET32>
    8370:	e5850060 	str	r0, [r5, #96]	; 0x60
    8374:	e5943000 	ldr	r3, [r4]
    8378:	e5d32060 	ldrb	r2, [r3, #96]	; 0x60
    837c:	e3c22001 	bic	r2, r2, #1
    8380:	e5c32060 	strb	r2, [r3, #96]	; 0x60
    8384:	e6ef2072 	uxtb	r2, r2
    8388:	e3c22002 	bic	r2, r2, #2
    838c:	e1a00003 	mov	r0, r3
    8390:	e5e02060 	strb	r2, [r0, #96]!	; 0x60
    8394:	e5931060 	ldr	r1, [r3, #96]	; 0x60
    8398:	ebffff21 	bl	8024 <PUT32>
    839c:	e8bd8070 	pop	{r4, r5, r6, pc}
    83a0:	00009050 	andeq	r9, r0, r0, asr r0

000083a4 <printk>:
    83a4:	e92d000f 	push	{r0, r1, r2, r3}
    83a8:	e92d4030 	push	{r4, r5, lr}
    83ac:	e24dd00c 	sub	sp, sp, #12
    83b0:	e28d301c 	add	r3, sp, #28
    83b4:	e58d3004 	str	r3, [sp, #4]
    83b8:	e59f5034 	ldr	r5, [pc, #52]	; 83f4 <printk+0x50>
    83bc:	e59d2018 	ldr	r2, [sp, #24]
    83c0:	e3a01b01 	mov	r1, #1024	; 0x400
    83c4:	e1a00005 	mov	r0, r5
    83c8:	eb0000bc 	bl	86c0 <va_printk>
    83cc:	e1a04000 	mov	r4, r0
    83d0:	e59f3020 	ldr	r3, [pc, #32]	; 83f8 <printk+0x54>
    83d4:	e5933000 	ldr	r3, [r3]
    83d8:	e1a00005 	mov	r0, r5
    83dc:	e12fff33 	blx	r3
    83e0:	e1a00004 	mov	r0, r4
    83e4:	e28dd00c 	add	sp, sp, #12
    83e8:	e8bd4030 	pop	{r4, r5, lr}
    83ec:	e28dd010 	add	sp, sp, #16
    83f0:	e12fff1e 	bx	lr
    83f4:	00009054 	andeq	r9, r0, r4, asr r0
    83f8:	00009048 	andeq	r9, r0, r8, asr #32

000083fc <internal_putk>:
    83fc:	e92d4010 	push	{r4, lr}
    8400:	e1a04000 	mov	r4, r0
    8404:	ea000003 	b	8418 <internal_putk+0x1c>
    8408:	e59f301c 	ldr	r3, [pc, #28]	; 842c <internal_putk+0x30>
    840c:	e5933000 	ldr	r3, [r3]
    8410:	e12fff33 	blx	r3
    8414:	e2844001 	add	r4, r4, #1
    8418:	e5d40000 	ldrb	r0, [r4]
    841c:	e3500000 	cmp	r0, #0
    8420:	1afffff8 	bne	8408 <internal_putk+0xc>
    8424:	e3a00001 	mov	r0, #1
    8428:	e8bd8010 	pop	{r4, pc}
    842c:	0000904c 	andeq	r9, r0, ip, asr #32

00008430 <isdigit>:
    8430:	e2400030 	sub	r0, r0, #48	; 0x30
    8434:	e3500009 	cmp	r0, #9
    8438:	83a00000 	movhi	r0, #0
    843c:	93a00001 	movls	r0, #1
    8440:	e12fff1e 	bx	lr

00008444 <pad>:
    8444:	e0401001 	sub	r1, r0, r1
    8448:	ea000002 	b	8458 <pad+0x14>
    844c:	e3a03020 	mov	r3, #32
    8450:	e4c03001 	strb	r3, [r0], #1
    8454:	e2811001 	add	r1, r1, #1
    8458:	e1510002 	cmp	r1, r2
    845c:	bafffffa 	blt	844c <pad+0x8>
    8460:	e3a03000 	mov	r3, #0
    8464:	e5c03000 	strb	r3, [r0]
    8468:	e12fff1e 	bx	lr

0000846c <reverse>:
    846c:	e042c003 	sub	ip, r2, r3
    8470:	e28cc001 	add	ip, ip, #1
    8474:	e15c0001 	cmp	ip, r1
    8478:	c04cc001 	subgt	ip, ip, r1
    847c:	c083300c 	addgt	r3, r3, ip
    8480:	e2421001 	sub	r1, r2, #1
    8484:	e1a02000 	mov	r2, r0
    8488:	ea000001 	b	8494 <reverse+0x28>
    848c:	e451c001 	ldrb	ip, [r1], #-1
    8490:	e4c2c001 	strb	ip, [r2], #1
    8494:	e1510003 	cmp	r1, r3
    8498:	2afffffb 	bcs	848c <reverse+0x20>
    849c:	e3a03000 	mov	r3, #0
    84a0:	e5c23000 	strb	r3, [r2]
    84a4:	e12fff1e 	bx	lr

000084a8 <emit>:
    84a8:	e92d40f0 	push	{r4, r5, r6, r7, lr}
    84ac:	e24dd04c 	sub	sp, sp, #76	; 0x4c
    84b0:	e1a05001 	mov	r5, r1
    84b4:	e1a04002 	mov	r4, r2
    84b8:	e59d2060 	ldr	r2, [sp, #96]	; 0x60
    84bc:	e1520004 	cmp	r2, r4
    84c0:	c2442001 	subgt	r2, r4, #1
    84c4:	e1a0c003 	mov	ip, r3
    84c8:	e2400002 	sub	r0, r0, #2
    84cc:	e350000e 	cmp	r0, #14
    84d0:	979ff100 	ldrls	pc, [pc, r0, lsl #2]
    84d4:	ea000050 	b	861c <emit+0x174>
    84d8:	000085f4 	strdeq	r8, [r0], -r4
    84dc:	0000861c 	andeq	r8, r0, ip, lsl r6
    84e0:	0000861c 	andeq	r8, r0, ip, lsl r6
    84e4:	0000861c 	andeq	r8, r0, ip, lsl r6
    84e8:	0000861c 	andeq	r8, r0, ip, lsl r6
    84ec:	0000861c 	andeq	r8, r0, ip, lsl r6
    84f0:	000085e8 	andeq	r8, r0, r8, ror #11
    84f4:	0000861c 	andeq	r8, r0, ip, lsl r6
    84f8:	00008514 	andeq	r8, r0, r4, lsl r5
    84fc:	0000861c 	andeq	r8, r0, ip, lsl r6
    8500:	0000861c 	andeq	r8, r0, ip, lsl r6
    8504:	0000861c 	andeq	r8, r0, ip, lsl r6
    8508:	0000861c 	andeq	r8, r0, ip, lsl r6
    850c:	0000861c 	andeq	r8, r0, ip, lsl r6
    8510:	0000858c 	andeq	r8, r0, ip, lsl #11
    8514:	e59d1064 	ldr	r1, [sp, #100]	; 0x64
    8518:	e2511000 	subs	r1, r1, #0
    851c:	13a01001 	movne	r1, #1
    8520:	e0111fa3 	ands	r1, r1, r3, lsr #31
    8524:	0a000016 	beq	8584 <emit+0xdc>
    8528:	e263c000 	rsb	ip, r3, #0
    852c:	e3a06001 	mov	r6, #1
    8530:	e28d0008 	add	r0, sp, #8
    8534:	e59f3100 	ldr	r3, [pc, #256]	; 863c <emit+0x194>
    8538:	e0831c93 	umull	r1, r3, r3, ip
    853c:	e1a031a3 	lsr	r3, r3, #3
    8540:	e1a0e003 	mov	lr, r3
    8544:	e0833103 	add	r3, r3, r3, lsl #2
    8548:	e04c3083 	sub	r3, ip, r3, lsl #1
    854c:	e1a01000 	mov	r1, r0
    8550:	e2800001 	add	r0, r0, #1
    8554:	e59f70e4 	ldr	r7, [pc, #228]	; 8640 <emit+0x198>
    8558:	e7d73003 	ldrb	r3, [r7, r3]
    855c:	e5c13000 	strb	r3, [r1]
    8560:	e1a0300c 	mov	r3, ip
    8564:	e1a0c00e 	mov	ip, lr
    8568:	e3530009 	cmp	r3, #9
    856c:	8afffff0 	bhi	8534 <emit+0x8c>
    8570:	e3560000 	cmp	r6, #0
    8574:	13a0302d 	movne	r3, #45	; 0x2d
    8578:	15c03000 	strbne	r3, [r0]
    857c:	12810002 	addne	r0, r1, #2
    8580:	ea00000f 	b	85c4 <emit+0x11c>
    8584:	e3a06000 	mov	r6, #0
    8588:	eaffffe8 	b	8530 <emit+0x88>
    858c:	e28d1008 	add	r1, sp, #8
    8590:	e20c000f 	and	r0, ip, #15
    8594:	e59fe0a8 	ldr	lr, [pc, #168]	; 8644 <emit+0x19c>
    8598:	e7de0000 	ldrb	r0, [lr, r0]
    859c:	e5c10000 	strb	r0, [r1]
    85a0:	e2811001 	add	r1, r1, #1
    85a4:	e35c000f 	cmp	ip, #15
    85a8:	e1a0c22c 	lsr	ip, ip, #4
    85ac:	8afffff7 	bhi	8590 <emit+0xe8>
    85b0:	e1a00001 	mov	r0, r1
    85b4:	e3a03078 	mov	r3, #120	; 0x78
    85b8:	e4c03002 	strb	r3, [r0], #2
    85bc:	e3a03030 	mov	r3, #48	; 0x30
    85c0:	e5c13001 	strb	r3, [r1, #1]
    85c4:	e28d1008 	add	r1, sp, #8
    85c8:	ebffff9d 	bl	8444 <pad>
    85cc:	e1a02000 	mov	r2, r0
    85d0:	e28d3008 	add	r3, sp, #8
    85d4:	e1a01004 	mov	r1, r4
    85d8:	e1a00005 	mov	r0, r5
    85dc:	ebffffa2 	bl	846c <reverse>
    85e0:	e28dd04c 	add	sp, sp, #76	; 0x4c
    85e4:	e8bd80f0 	pop	{r4, r5, r6, r7, pc}
    85e8:	e5cd3008 	strb	r3, [sp, #8]
    85ec:	e28d0009 	add	r0, sp, #9
    85f0:	eafffff3 	b	85c4 <emit+0x11c>
    85f4:	e28d0008 	add	r0, sp, #8
    85f8:	e20c1001 	and	r1, ip, #1
    85fc:	e59fe044 	ldr	lr, [pc, #68]	; 8648 <emit+0x1a0>
    8600:	e7de1001 	ldrb	r1, [lr, r1]
    8604:	e5c01000 	strb	r1, [r0]
    8608:	e2800001 	add	r0, r0, #1
    860c:	e35c0001 	cmp	ip, #1
    8610:	e1a0c0ac 	lsr	ip, ip, #1
    8614:	8afffff7 	bhi	85f8 <emit+0x150>
    8618:	eaffffe9 	b	85c4 <emit+0x11c>
    861c:	e59f3028 	ldr	r3, [pc, #40]	; 864c <emit+0x1a4>
    8620:	e58d3000 	str	r3, [sp]
    8624:	e3a03079 	mov	r3, #121	; 0x79
    8628:	e59f2020 	ldr	r2, [pc, #32]	; 8650 <emit+0x1a8>
    862c:	e59f1020 	ldr	r1, [pc, #32]	; 8654 <emit+0x1ac>
    8630:	e59f0020 	ldr	r0, [pc, #32]	; 8658 <emit+0x1b0>
    8634:	ebffff5a 	bl	83a4 <printk>
    8638:	eb000146 	bl	8b58 <clean_reboot>
    863c:	cccccccd 	stclgt	12, cr12, [ip], {205}	; 0xcd
    8640:	00008efc 	strdeq	r8, [r0], -ip
    8644:	00008f08 	andeq	r8, r0, r8, lsl #30
    8648:	00008f1c 	andeq	r8, r0, ip, lsl pc
    864c:	00008ef8 	strdeq	r8, [r0], -r8	; <UNPREDICTABLE>
    8650:	00009018 	andeq	r9, r0, r8, lsl r0
    8654:	00008ed0 	ldrdeq	r8, [r0], -r0
    8658:	00008ee4 	andeq	r8, r0, r4, ror #29

0000865c <rpi_set_output>:
    865c:	e3500000 	cmp	r0, #0
    8660:	0a000006 	beq	8680 <rpi_set_output+0x24>
    8664:	e59f303c 	ldr	r3, [pc, #60]	; 86a8 <rpi_set_output+0x4c>
    8668:	e5830000 	str	r0, [r3]
    866c:	e3510000 	cmp	r1, #0
    8670:	012fff1e 	bxeq	lr
    8674:	e59f3030 	ldr	r3, [pc, #48]	; 86ac <rpi_set_output+0x50>
    8678:	e5831000 	str	r1, [r3]
    867c:	e12fff1e 	bx	lr
    8680:	e52de004 	push	{lr}		; (str lr, [sp, #-4]!)
    8684:	e24dd00c 	sub	sp, sp, #12
    8688:	e59f3020 	ldr	r3, [pc, #32]	; 86b0 <rpi_set_output+0x54>
    868c:	e58d3000 	str	r3, [sp]
    8690:	e3a03020 	mov	r3, #32
    8694:	e59f2018 	ldr	r2, [pc, #24]	; 86b4 <rpi_set_output+0x58>
    8698:	e59f1018 	ldr	r1, [pc, #24]	; 86b8 <rpi_set_output+0x5c>
    869c:	e59f0018 	ldr	r0, [pc, #24]	; 86bc <rpi_set_output+0x60>
    86a0:	ebffff3f 	bl	83a4 <printk>
    86a4:	eb00012b 	bl	8b58 <clean_reboot>
    86a8:	0000904c 	andeq	r9, r0, ip, asr #32
    86ac:	00009048 	andeq	r9, r0, r8, asr #32
    86b0:	00008f20 	andeq	r8, r0, r0, lsr #30
    86b4:	00009020 	andeq	r9, r0, r0, lsr #32
    86b8:	00008ed0 	ldrdeq	r8, [r0], -r0
    86bc:	00008ee4 	andeq	r8, r0, r4, ror #29

000086c0 <va_printk>:
    86c0:	e92d4ff0 	push	{r4, r5, r6, r7, r8, r9, sl, fp, lr}
    86c4:	e24ddf45 	sub	sp, sp, #276	; 0x114
    86c8:	e1a09000 	mov	r9, r0
    86cc:	e58d2008 	str	r2, [sp, #8]
    86d0:	e58d300c 	str	r3, [sp, #12]
    86d4:	e2411001 	sub	r1, r1, #1
    86d8:	e0808001 	add	r8, r0, r1
    86dc:	e3a03000 	mov	r3, #0
    86e0:	e5c03000 	strb	r3, [r0]
    86e4:	e1a04000 	mov	r4, r0
    86e8:	e1a06002 	mov	r6, r2
    86ec:	ea000004 	b	8704 <va_printk+0x44>
    86f0:	e5d62001 	ldrb	r2, [r6, #1]
    86f4:	e3520025 	cmp	r2, #37	; 0x25
    86f8:	1a00000b 	bne	872c <va_printk+0x6c>
    86fc:	e4c43001 	strb	r3, [r4], #1
    8700:	e2866002 	add	r6, r6, #2
    8704:	e5d63000 	ldrb	r3, [r6]
    8708:	e3530000 	cmp	r3, #0
    870c:	0a0000ff 	beq	8b10 <va_printk+0x450>
    8710:	e1540008 	cmp	r4, r8
    8714:	2a0000fd 	bcs	8b10 <va_printk+0x450>
    8718:	e3530025 	cmp	r3, #37	; 0x25
    871c:	0afffff3 	beq	86f0 <va_printk+0x30>
    8720:	e2866001 	add	r6, r6, #1
    8724:	e4c43001 	strb	r3, [r4], #1
    8728:	eafffff5 	b	8704 <va_printk+0x44>
    872c:	e2866001 	add	r6, r6, #1
    8730:	e3a05000 	mov	r5, #0
    8734:	ea000003 	b	8748 <va_printk+0x88>
    8738:	e0855105 	add	r5, r5, r5, lsl #2
    873c:	e0875085 	add	r5, r7, r5, lsl #1
    8740:	e2455030 	sub	r5, r5, #48	; 0x30
    8744:	e2866001 	add	r6, r6, #1
    8748:	e5d67000 	ldrb	r7, [r6]
    874c:	e1a00007 	mov	r0, r7
    8750:	ebffff36 	bl	8430 <isdigit>
    8754:	e3500000 	cmp	r0, #0
    8758:	1afffff6 	bne	8738 <va_printk+0x78>
    875c:	e355001f 	cmp	r5, #31
    8760:	8a00001a 	bhi	87d0 <va_printk+0x110>
    8764:	e2473062 	sub	r3, r7, #98	; 0x62
    8768:	e3530016 	cmp	r3, #22
    876c:	979ff103 	ldrls	pc, [pc, r3, lsl #2]
    8770:	ea0000ce 	b	8ab0 <va_printk+0x3f0>
    8774:	00008a34 	andeq	r8, r0, r4, lsr sl
    8778:	00008a7c 	andeq	r8, r0, ip, ror sl
    877c:	00008994 	muleq	r0, r4, r9
    8780:	00008ab0 			; <UNDEFINED> instruction: 0x00008ab0
    8784:	0000897c 	andeq	r8, r0, ip, ror r9
    8788:	00008ab0 			; <UNDEFINED> instruction: 0x00008ab0
    878c:	00008ab0 			; <UNDEFINED> instruction: 0x00008ab0
    8790:	00008ab0 			; <UNDEFINED> instruction: 0x00008ab0
    8794:	00008ab0 			; <UNDEFINED> instruction: 0x00008ab0
    8798:	00008ab0 			; <UNDEFINED> instruction: 0x00008ab0
    879c:	000087f0 	strdeq	r8, [r0], -r0
    87a0:	00008ab0 			; <UNDEFINED> instruction: 0x00008ab0
    87a4:	00008ab0 			; <UNDEFINED> instruction: 0x00008ab0
    87a8:	00008ab0 			; <UNDEFINED> instruction: 0x00008ab0
    87ac:	00008a00 	andeq	r8, r0, r0, lsl #20
    87b0:	00008ab0 			; <UNDEFINED> instruction: 0x00008ab0
    87b4:	00008ab0 			; <UNDEFINED> instruction: 0x00008ab0
    87b8:	00008a68 	andeq	r8, r0, r8, ror #20
    87bc:	00008ab0 			; <UNDEFINED> instruction: 0x00008ab0
    87c0:	000089cc 	andeq	r8, r0, ip, asr #19
    87c4:	00008ab0 			; <UNDEFINED> instruction: 0x00008ab0
    87c8:	00008ab0 			; <UNDEFINED> instruction: 0x00008ab0
    87cc:	00008a00 	andeq	r8, r0, r0, lsl #20
    87d0:	e59f334c 	ldr	r3, [pc, #844]	; 8b24 <va_printk+0x464>
    87d4:	e58d3000 	str	r3, [sp]
    87d8:	e3a03098 	mov	r3, #152	; 0x98
    87dc:	e59f2344 	ldr	r2, [pc, #836]	; 8b28 <va_printk+0x468>
    87e0:	e59f1344 	ldr	r1, [pc, #836]	; 8b2c <va_printk+0x46c>
    87e4:	e59f0344 	ldr	r0, [pc, #836]	; 8b30 <va_printk+0x470>
    87e8:	ebfffeed 	bl	83a4 <printk>
    87ec:	eb0000d9 	bl	8b58 <clean_reboot>
    87f0:	e3a02003 	mov	r2, #3
    87f4:	e59f1338 	ldr	r1, [pc, #824]	; 8b34 <va_printk+0x474>
    87f8:	e1a00006 	mov	r0, r6
    87fc:	eb00019c 	bl	8e74 <strncmp>
    8800:	e3500000 	cmp	r0, #0
    8804:	0a000005 	beq	8820 <va_printk+0x160>
    8808:	e3a02003 	mov	r2, #3
    880c:	e59f1324 	ldr	r1, [pc, #804]	; 8b38 <va_printk+0x478>
    8810:	e1a00006 	mov	r0, r6
    8814:	eb000196 	bl	8e74 <strncmp>
    8818:	e3500000 	cmp	r0, #0
    881c:	1a00002d 	bne	88d8 <va_printk+0x218>
    8820:	e286b002 	add	fp, r6, #2
    8824:	e59d300c 	ldr	r3, [sp, #12]
    8828:	e2833007 	add	r3, r3, #7
    882c:	e3c33007 	bic	r3, r3, #7
    8830:	e2832008 	add	r2, r3, #8
    8834:	e58d200c 	str	r2, [sp, #12]
    8838:	e593a000 	ldr	sl, [r3]
    883c:	e5937004 	ldr	r7, [r3, #4]
    8840:	e3a02003 	mov	r2, #3
    8844:	e59f12e8 	ldr	r1, [pc, #744]	; 8b34 <va_printk+0x474>
    8848:	e1a00006 	mov	r0, r6
    884c:	eb000188 	bl	8e74 <strncmp>
    8850:	e3500000 	cmp	r0, #0
    8854:	0a000027 	beq	88f8 <va_printk+0x238>
    8858:	e3a02003 	mov	r2, #3
    885c:	e59f12d4 	ldr	r1, [pc, #724]	; 8b38 <va_printk+0x478>
    8860:	e1a00006 	mov	r0, r6
    8864:	eb000182 	bl	8e74 <strncmp>
    8868:	e3500000 	cmp	r0, #0
    886c:	1a00003b 	bne	8960 <va_printk+0x2a0>
    8870:	e3a06000 	mov	r6, #0
    8874:	e58d6004 	str	r6, [sp, #4]
    8878:	e58d5000 	str	r5, [sp]
    887c:	e1a03007 	mov	r3, r7
    8880:	e3a02080 	mov	r2, #128	; 0x80
    8884:	e28d1010 	add	r1, sp, #16
    8888:	e3a0000a 	mov	r0, #10
    888c:	ebffff05 	bl	84a8 <emit>
    8890:	e1a07000 	mov	r7, r0
    8894:	e58d6004 	str	r6, [sp, #4]
    8898:	e58d5000 	str	r5, [sp]
    889c:	e1a0300a 	mov	r3, sl
    88a0:	e3a02080 	mov	r2, #128	; 0x80
    88a4:	e28d1090 	add	r1, sp, #144	; 0x90
    88a8:	e3a0000a 	mov	r0, #10
    88ac:	ebfffefd 	bl	84a8 <emit>
    88b0:	e59f1284 	ldr	r1, [pc, #644]	; 8b3c <va_printk+0x47c>
    88b4:	e28d0010 	add	r0, sp, #16
    88b8:	eb000159 	bl	8e24 <strcmp>
    88bc:	e1500006 	cmp	r0, r6
    88c0:	1a000021 	bne	894c <va_printk+0x28c>
    88c4:	e28d1090 	add	r1, sp, #144	; 0x90
    88c8:	e28d0010 	add	r0, sp, #16
    88cc:	eb000160 	bl	8e54 <strcpy>
    88d0:	e1a0600b 	mov	r6, fp
    88d4:	ea00003a 	b	89c4 <va_printk+0x304>
    88d8:	e59f3260 	ldr	r3, [pc, #608]	; 8b40 <va_printk+0x480>
    88dc:	e58d3000 	str	r3, [sp]
    88e0:	e3a0309f 	mov	r3, #159	; 0x9f
    88e4:	e59f223c 	ldr	r2, [pc, #572]	; 8b28 <va_printk+0x468>
    88e8:	e59f123c 	ldr	r1, [pc, #572]	; 8b2c <va_printk+0x46c>
    88ec:	e59f023c 	ldr	r0, [pc, #572]	; 8b30 <va_printk+0x470>
    88f0:	ebfffeab 	bl	83a4 <printk>
    88f4:	eb000097 	bl	8b58 <clean_reboot>
    88f8:	e3a06000 	mov	r6, #0
    88fc:	e58d6004 	str	r6, [sp, #4]
    8900:	e58d5000 	str	r5, [sp]
    8904:	e1a03007 	mov	r3, r7
    8908:	e3a02080 	mov	r2, #128	; 0x80
    890c:	e28d1010 	add	r1, sp, #16
    8910:	e3a00010 	mov	r0, #16
    8914:	ebfffee3 	bl	84a8 <emit>
    8918:	e1a07000 	mov	r7, r0
    891c:	e58d6004 	str	r6, [sp, #4]
    8920:	e58d5000 	str	r5, [sp]
    8924:	e1a0300a 	mov	r3, sl
    8928:	e3a02080 	mov	r2, #128	; 0x80
    892c:	e28d1090 	add	r1, sp, #144	; 0x90
    8930:	e3a00010 	mov	r0, #16
    8934:	ebfffedb 	bl	84a8 <emit>
    8938:	e28d1092 	add	r1, sp, #146	; 0x92
    893c:	e28d0010 	add	r0, sp, #16
    8940:	eb00012a 	bl	8df0 <strcat>
    8944:	e1a0600b 	mov	r6, fp
    8948:	ea00001d 	b	89c4 <va_printk+0x304>
    894c:	e28d1090 	add	r1, sp, #144	; 0x90
    8950:	e28d0010 	add	r0, sp, #16
    8954:	eb000125 	bl	8df0 <strcat>
    8958:	e1a0600b 	mov	r6, fp
    895c:	ea000018 	b	89c4 <va_printk+0x304>
    8960:	e58d6000 	str	r6, [sp]
    8964:	e3a030b6 	mov	r3, #182	; 0xb6
    8968:	e59f21b8 	ldr	r2, [pc, #440]	; 8b28 <va_printk+0x468>
    896c:	e59f11b8 	ldr	r1, [pc, #440]	; 8b2c <va_printk+0x46c>
    8970:	e59f01cc 	ldr	r0, [pc, #460]	; 8b44 <va_printk+0x484>
    8974:	ebfffe8a 	bl	83a4 <printk>
    8978:	eb000076 	bl	8b58 <clean_reboot>
    897c:	e3a030be 	mov	r3, #190	; 0xbe
    8980:	e59f21a0 	ldr	r2, [pc, #416]	; 8b28 <va_printk+0x468>
    8984:	e59f11a0 	ldr	r1, [pc, #416]	; 8b2c <va_printk+0x46c>
    8988:	e59f01b8 	ldr	r0, [pc, #440]	; 8b48 <va_printk+0x488>
    898c:	ebfffe84 	bl	83a4 <printk>
    8990:	eb000070 	bl	8b58 <clean_reboot>
    8994:	e59d300c 	ldr	r3, [sp, #12]
    8998:	e2832004 	add	r2, r3, #4
    899c:	e58d200c 	str	r2, [sp, #12]
    89a0:	e5933000 	ldr	r3, [r3]
    89a4:	e3a02001 	mov	r2, #1
    89a8:	e58d2004 	str	r2, [sp, #4]
    89ac:	e58d5000 	str	r5, [sp]
    89b0:	e3a02080 	mov	r2, #128	; 0x80
    89b4:	e28d1010 	add	r1, sp, #16
    89b8:	e3a0000a 	mov	r0, #10
    89bc:	ebfffeb9 	bl	84a8 <emit>
    89c0:	e1a07000 	mov	r7, r0
    89c4:	e2866001 	add	r6, r6, #1
    89c8:	ea00004a 	b	8af8 <va_printk+0x438>
    89cc:	e59d300c 	ldr	r3, [sp, #12]
    89d0:	e2832004 	add	r2, r3, #4
    89d4:	e58d200c 	str	r2, [sp, #12]
    89d8:	e5933000 	ldr	r3, [r3]
    89dc:	e3a02000 	mov	r2, #0
    89e0:	e58d2004 	str	r2, [sp, #4]
    89e4:	e58d5000 	str	r5, [sp]
    89e8:	e3a02080 	mov	r2, #128	; 0x80
    89ec:	e28d1010 	add	r1, sp, #16
    89f0:	e3a0000a 	mov	r0, #10
    89f4:	ebfffeab 	bl	84a8 <emit>
    89f8:	e1a07000 	mov	r7, r0
    89fc:	eafffff0 	b	89c4 <va_printk+0x304>
    8a00:	e59d300c 	ldr	r3, [sp, #12]
    8a04:	e2832004 	add	r2, r3, #4
    8a08:	e58d200c 	str	r2, [sp, #12]
    8a0c:	e5933000 	ldr	r3, [r3]
    8a10:	e3a02000 	mov	r2, #0
    8a14:	e58d2004 	str	r2, [sp, #4]
    8a18:	e58d5000 	str	r5, [sp]
    8a1c:	e3a02080 	mov	r2, #128	; 0x80
    8a20:	e28d1010 	add	r1, sp, #16
    8a24:	e3a00010 	mov	r0, #16
    8a28:	ebfffe9e 	bl	84a8 <emit>
    8a2c:	e1a07000 	mov	r7, r0
    8a30:	eaffffe3 	b	89c4 <va_printk+0x304>
    8a34:	e59d300c 	ldr	r3, [sp, #12]
    8a38:	e2832004 	add	r2, r3, #4
    8a3c:	e58d200c 	str	r2, [sp, #12]
    8a40:	e5933000 	ldr	r3, [r3]
    8a44:	e3a02000 	mov	r2, #0
    8a48:	e58d2004 	str	r2, [sp, #4]
    8a4c:	e58d5000 	str	r5, [sp]
    8a50:	e3a02080 	mov	r2, #128	; 0x80
    8a54:	e28d1010 	add	r1, sp, #16
    8a58:	e3a00002 	mov	r0, #2
    8a5c:	ebfffe91 	bl	84a8 <emit>
    8a60:	e1a07000 	mov	r7, r0
    8a64:	eaffffd6 	b	89c4 <va_printk+0x304>
    8a68:	e59d300c 	ldr	r3, [sp, #12]
    8a6c:	e2832004 	add	r2, r3, #4
    8a70:	e58d200c 	str	r2, [sp, #12]
    8a74:	e5937000 	ldr	r7, [r3]
    8a78:	eaffffd1 	b	89c4 <va_printk+0x304>
    8a7c:	e59d300c 	ldr	r3, [sp, #12]
    8a80:	e2832004 	add	r2, r3, #4
    8a84:	e58d200c 	str	r2, [sp, #12]
    8a88:	e5933000 	ldr	r3, [r3]
    8a8c:	e3a02000 	mov	r2, #0
    8a90:	e58d2004 	str	r2, [sp, #4]
    8a94:	e58d5000 	str	r5, [sp]
    8a98:	e3a02080 	mov	r2, #128	; 0x80
    8a9c:	e28d1010 	add	r1, sp, #16
    8aa0:	e3a00008 	mov	r0, #8
    8aa4:	ebfffe7f 	bl	84a8 <emit>
    8aa8:	e1a07000 	mov	r7, r0
    8aac:	eaffffc4 	b	89c4 <va_printk+0x304>
    8ab0:	e3a03000 	mov	r3, #0
    8ab4:	e5c63001 	strb	r3, [r6, #1]
    8ab8:	e1a02007 	mov	r2, r7
    8abc:	e1a01007 	mov	r1, r7
    8ac0:	e59f0084 	ldr	r0, [pc, #132]	; 8b4c <va_printk+0x48c>
    8ac4:	ebfffe36 	bl	83a4 <printk>
    8ac8:	e59f3080 	ldr	r3, [pc, #128]	; 8b50 <va_printk+0x490>
    8acc:	e5933000 	ldr	r3, [r3]
    8ad0:	e59d0008 	ldr	r0, [sp, #8]
    8ad4:	e12fff33 	blx	r3
    8ad8:	e3a030e2 	mov	r3, #226	; 0xe2
    8adc:	e59f2044 	ldr	r2, [pc, #68]	; 8b28 <va_printk+0x468>
    8ae0:	e59f1044 	ldr	r1, [pc, #68]	; 8b2c <va_printk+0x46c>
    8ae4:	e59f0068 	ldr	r0, [pc, #104]	; 8b54 <va_printk+0x494>
    8ae8:	ebfffe2d 	bl	83a4 <printk>
    8aec:	eb000019 	bl	8b58 <clean_reboot>
    8af0:	e2877001 	add	r7, r7, #1
    8af4:	e4c43001 	strb	r3, [r4], #1
    8af8:	e1540008 	cmp	r4, r8
    8afc:	2affff00 	bcs	8704 <va_printk+0x44>
    8b00:	e5d73000 	ldrb	r3, [r7]
    8b04:	e3530000 	cmp	r3, #0
    8b08:	1afffff8 	bne	8af0 <va_printk+0x430>
    8b0c:	eafffefc 	b	8704 <va_printk+0x44>
    8b10:	e3a03000 	mov	r3, #0
    8b14:	e4c43001 	strb	r3, [r4], #1
    8b18:	e0440009 	sub	r0, r4, r9
    8b1c:	e28ddf45 	add	sp, sp, #276	; 0x114
    8b20:	e8bd8ff0 	pop	{r4, r5, r6, r7, r8, r9, sl, fp, pc}
    8b24:	00008f28 	andeq	r8, r0, r8, lsr #30
    8b28:	00009030 	andeq	r9, r0, r0, lsr r0
    8b2c:	00008ed0 	ldrdeq	r8, [r0], -r0
    8b30:	00008ee4 	andeq	r8, r0, r4, ror #29
    8b34:	00008f34 	andeq	r8, r0, r4, lsr pc
    8b38:	00008f38 	andeq	r8, r0, r8, lsr pc
    8b3c:	00008ef8 	strdeq	r8, [r0], -r8	; <UNPREDICTABLE>
    8b40:	00008f3c 	andeq	r8, r0, ip, lsr pc
    8b44:	00008f78 	andeq	r8, r0, r8, ror pc
    8b48:	00008fa0 	andeq	r8, r0, r0, lsr #31
    8b4c:	00008fc8 	andeq	r8, r0, r8, asr #31
    8b50:	00009048 	andeq	r9, r0, r8, asr #32
    8b54:	00008ff8 	strdeq	r8, [r0], -r8	; <UNPREDICTABLE>

00008b58 <clean_reboot>:
    8b58:	e92d4010 	push	{r4, lr}
    8b5c:	e59f3018 	ldr	r3, [pc, #24]	; 8b7c <clean_reboot+0x24>
    8b60:	e5933000 	ldr	r3, [r3]
    8b64:	e59f0014 	ldr	r0, [pc, #20]	; 8b80 <clean_reboot+0x28>
    8b68:	e12fff33 	blx	r3
    8b6c:	ebfffdf5 	bl	8348 <uart_flush_tx>
    8b70:	e3a0000a 	mov	r0, #10
    8b74:	eb000048 	bl	8c9c <delay_ms>
    8b78:	eb00001d 	bl	8bf4 <rpi_reboot>
    8b7c:	00009048 	andeq	r9, r0, r8, asr #32
    8b80:	0000903c 	andeq	r9, r0, ip, lsr r0

00008b84 <_cstart>:
    8b84:	e92d4010 	push	{r4, lr}
    8b88:	eb00000d 	bl	8bc4 <custom_loader>
    8b8c:	e59f3028 	ldr	r3, [pc, #40]	; 8bbc <_cstart+0x38>
    8b90:	ea000001 	b	8b9c <_cstart+0x18>
    8b94:	e3a02000 	mov	r2, #0
    8b98:	e4832004 	str	r2, [r3], #4
    8b9c:	e59f201c 	ldr	r2, [pc, #28]	; 8bc0 <_cstart+0x3c>
    8ba0:	e1530002 	cmp	r3, r2
    8ba4:	3afffffa 	bcc	8b94 <_cstart+0x10>
    8ba8:	ebfffd37 	bl	808c <uart_init>
    8bac:	e3a03001 	mov	r3, #1
    8bb0:	ee0f3f1c 	mcr	15, 0, r3, cr15, cr12, {0}
    8bb4:	ebfffd1f 	bl	8038 <notmain>
    8bb8:	ebffffe6 	bl	8b58 <clean_reboot>
    8bbc:	00009050 	andeq	r9, r0, r0, asr r0
    8bc0:	00009458 	andeq	r9, r0, r8, asr r4

00008bc4 <custom_loader>:
    8bc4:	e12fff1e 	bx	lr

00008bc8 <at_user_level>:
    8bc8:	e10f0000 	mrs	r0, CPSR
    8bcc:	e200001f 	and	r0, r0, #31
    8bd0:	e3500010 	cmp	r0, #16
    8bd4:	13a00000 	movne	r0, #0
    8bd8:	03a00001 	moveq	r0, #1
    8bdc:	e12fff1e 	bx	lr

00008be0 <set_user_level>:
    8be0:	e10f3000 	mrs	r3, CPSR
    8be4:	e3c3301f 	bic	r3, r3, #31
    8be8:	e3833010 	orr	r3, r3, #16
    8bec:	e129f003 	msr	CPSR_fc, r3
    8bf0:	e12fff1e 	bx	lr

00008bf4 <rpi_reboot>:
    8bf4:	e92d4010 	push	{r4, lr}
    8bf8:	ebfffff2 	bl	8bc8 <at_user_level>
    8bfc:	e3500000 	cmp	r0, #0
    8c00:	1a00000a 	bne	8c30 <rpi_reboot+0x3c>
    8c04:	eb0000a5 	bl	8ea0 <reboot_callout>
    8c08:	ebfffdce 	bl	8348 <uart_flush_tx>
    8c0c:	e3a0000a 	mov	r0, #10
    8c10:	eb000021 	bl	8c9c <delay_ms>
    8c14:	e59f101c 	ldr	r1, [pc, #28]	; 8c38 <rpi_reboot+0x44>
    8c18:	e59f001c 	ldr	r0, [pc, #28]	; 8c3c <rpi_reboot+0x48>
    8c1c:	ebfffd00 	bl	8024 <PUT32>
    8c20:	e59f1018 	ldr	r1, [pc, #24]	; 8c40 <rpi_reboot+0x4c>
    8c24:	e59f0018 	ldr	r0, [pc, #24]	; 8c44 <rpi_reboot+0x50>
    8c28:	ebfffcfd 	bl	8024 <PUT32>
    8c2c:	eafffffe 	b	8c2c <rpi_reboot+0x38>
    8c30:	ebffffea 	bl	8be0 <set_user_level>
    8c34:	eafffff2 	b	8c04 <rpi_reboot+0x10>
    8c38:	5a000001 	bpl	8c44 <rpi_reboot+0x50>
    8c3c:	20100024 	andscs	r0, r0, r4, lsr #32
    8c40:	5a000020 	bpl	8cc8 <delay_sec+0x14>
    8c44:	2010001c 	andscs	r0, r0, ip, lsl r0

00008c48 <timer_get_usec_raw>:
    8c48:	e92d4010 	push	{r4, lr}
    8c4c:	e59f0004 	ldr	r0, [pc, #4]	; 8c58 <timer_get_usec_raw+0x10>
    8c50:	ebfffcf5 	bl	802c <GET32>
    8c54:	e8bd8010 	pop	{r4, pc}
    8c58:	20003004 	andcs	r3, r0, r4

00008c5c <timer_get_usec>:
    8c5c:	e92d4010 	push	{r4, lr}
    8c60:	eb00008f 	bl	8ea4 <dev_barrier>
    8c64:	ebfffff7 	bl	8c48 <timer_get_usec_raw>
    8c68:	e1a04000 	mov	r4, r0
    8c6c:	eb00008c 	bl	8ea4 <dev_barrier>
    8c70:	e1a00004 	mov	r0, r4
    8c74:	e8bd8010 	pop	{r4, pc}

00008c78 <delay_us>:
    8c78:	e92d4070 	push	{r4, r5, r6, lr}
    8c7c:	e1a05000 	mov	r5, r0
    8c80:	ebfffff5 	bl	8c5c <timer_get_usec>
    8c84:	e1a04000 	mov	r4, r0
    8c88:	ebfffff3 	bl	8c5c <timer_get_usec>
    8c8c:	e0400004 	sub	r0, r0, r4
    8c90:	e1500005 	cmp	r0, r5
    8c94:	3afffffb 	bcc	8c88 <delay_us+0x10>
    8c98:	e8bd8070 	pop	{r4, r5, r6, pc}

00008c9c <delay_ms>:
    8c9c:	e92d4010 	push	{r4, lr}
    8ca0:	e0603280 	rsb	r3, r0, r0, lsl #5
    8ca4:	e0800103 	add	r0, r0, r3, lsl #2
    8ca8:	e1a00180 	lsl	r0, r0, #3
    8cac:	ebfffff1 	bl	8c78 <delay_us>
    8cb0:	e8bd8010 	pop	{r4, pc}

00008cb4 <delay_sec>:
    8cb4:	e92d4010 	push	{r4, lr}
    8cb8:	e0603280 	rsb	r3, r0, r0, lsl #5
    8cbc:	e0800103 	add	r0, r0, r3, lsl #2
    8cc0:	e1a00180 	lsl	r0, r0, #3
    8cc4:	ebfffff4 	bl	8c9c <delay_ms>
    8cc8:	e8bd8010 	pop	{r4, pc}

00008ccc <gpio_set_function>:
    8ccc:	e92d41f0 	push	{r4, r5, r6, r7, r8, lr}
    8cd0:	e1a04000 	mov	r4, r0
    8cd4:	e1a06001 	mov	r6, r1
    8cd8:	e59f503c 	ldr	r5, [pc, #60]	; 8d1c <gpio_set_function+0x50>
    8cdc:	e0853095 	umull	r3, r5, r5, r0
    8ce0:	e1a051a5 	lsr	r5, r5, #3
    8ce4:	e2857302 	add	r7, r5, #134217728	; 0x8000000
    8ce8:	e2877702 	add	r7, r7, #524288	; 0x80000
    8cec:	e1a07107 	lsl	r7, r7, #2
    8cf0:	e1a00007 	mov	r0, r7
    8cf4:	ebfffccc 	bl	802c <GET32>
    8cf8:	e0855105 	add	r5, r5, r5, lsl #2
    8cfc:	e0445085 	sub	r5, r4, r5, lsl #1
    8d00:	e0855085 	add	r5, r5, r5, lsl #1
    8d04:	e3a01007 	mov	r1, #7
    8d08:	e1c01511 	bic	r1, r0, r1, lsl r5
    8d0c:	e1811516 	orr	r1, r1, r6, lsl r5
    8d10:	e1a00007 	mov	r0, r7
    8d14:	ebfffcc2 	bl	8024 <PUT32>
    8d18:	e8bd81f0 	pop	{r4, r5, r6, r7, r8, pc}
    8d1c:	cccccccd 	stclgt	12, cr12, [ip], {205}	; 0xcd

00008d20 <gpio_set_output>:
    8d20:	e92d4010 	push	{r4, lr}
    8d24:	e3a01001 	mov	r1, #1
    8d28:	ebffffe7 	bl	8ccc <gpio_set_function>
    8d2c:	e8bd8010 	pop	{r4, pc}

00008d30 <gpio_set_on>:
    8d30:	e92d4010 	push	{r4, lr}
    8d34:	e3a01001 	mov	r1, #1
    8d38:	e1a01011 	lsl	r1, r1, r0
    8d3c:	e59f0004 	ldr	r0, [pc, #4]	; 8d48 <gpio_set_on+0x18>
    8d40:	ebfffcb7 	bl	8024 <PUT32>
    8d44:	e8bd8010 	pop	{r4, pc}
    8d48:	2020001c 	eorcs	r0, r0, ip, lsl r0

00008d4c <gpio_set_off>:
    8d4c:	e92d4010 	push	{r4, lr}
    8d50:	e3a01001 	mov	r1, #1
    8d54:	e1a01011 	lsl	r1, r1, r0
    8d58:	e59f0004 	ldr	r0, [pc, #4]	; 8d64 <gpio_set_off+0x18>
    8d5c:	ebfffcb0 	bl	8024 <PUT32>
    8d60:	e8bd8010 	pop	{r4, pc}
    8d64:	20200028 	eorcs	r0, r0, r8, lsr #32

00008d68 <gpio_write>:
    8d68:	e92d4010 	push	{r4, lr}
    8d6c:	e3510000 	cmp	r1, #0
    8d70:	0a000001 	beq	8d7c <gpio_write+0x14>
    8d74:	ebffffed 	bl	8d30 <gpio_set_on>
    8d78:	e8bd8010 	pop	{r4, pc}
    8d7c:	ebfffff2 	bl	8d4c <gpio_set_off>
    8d80:	e8bd8010 	pop	{r4, pc}

00008d84 <gpio_set_input>:
    8d84:	e92d4010 	push	{r4, lr}
    8d88:	e3a01000 	mov	r1, #0
    8d8c:	ebffffce 	bl	8ccc <gpio_set_function>
    8d90:	e8bd8010 	pop	{r4, pc}

00008d94 <gpio_read>:
    8d94:	e92d4010 	push	{r4, lr}
    8d98:	e1a04000 	mov	r4, r0
    8d9c:	e59f000c 	ldr	r0, [pc, #12]	; 8db0 <gpio_read+0x1c>
    8da0:	ebfffca1 	bl	802c <GET32>
    8da4:	e3a03001 	mov	r3, #1
    8da8:	e0000413 	and	r0, r0, r3, lsl r4
    8dac:	e8bd8010 	pop	{r4, pc}
    8db0:	20200034 	eorcs	r0, r0, r4, lsr r0

00008db4 <internal_putchar>:
    8db4:	e92d4010 	push	{r4, lr}
    8db8:	e1a04000 	mov	r4, r0
    8dbc:	ebfffd37 	bl	82a0 <uart_putc>
    8dc0:	e1a00004 	mov	r0, r4
    8dc4:	e8bd8010 	pop	{r4, pc}

00008dc8 <rpi_reset_putc>:
    8dc8:	e59f3008 	ldr	r3, [pc, #8]	; 8dd8 <rpi_reset_putc+0x10>
    8dcc:	e59f2008 	ldr	r2, [pc, #8]	; 8ddc <rpi_reset_putc+0x14>
    8dd0:	e5832000 	str	r2, [r3]
    8dd4:	e12fff1e 	bx	lr
    8dd8:	0000904c 	andeq	r9, r0, ip, asr #32
    8ddc:	00008db4 			; <UNDEFINED> instruction: 0x00008db4

00008de0 <rpi_set_putc>:
    8de0:	e59f3004 	ldr	r3, [pc, #4]	; 8dec <rpi_set_putc+0xc>
    8de4:	e5830000 	str	r0, [r3]
    8de8:	e12fff1e 	bx	lr
    8dec:	0000904c 	andeq	r9, r0, ip, asr #32

00008df0 <strcat>:
    8df0:	e1a02000 	mov	r2, r0
    8df4:	e1a03002 	mov	r3, r2
    8df8:	e2822001 	add	r2, r2, #1
    8dfc:	e5d3c000 	ldrb	ip, [r3]
    8e00:	e35c0000 	cmp	ip, #0
    8e04:	1afffffa 	bne	8df4 <strcat+0x4>
    8e08:	e2433001 	sub	r3, r3, #1
    8e0c:	e5d12000 	ldrb	r2, [r1]
    8e10:	e2811001 	add	r1, r1, #1
    8e14:	e5e32001 	strb	r2, [r3, #1]!
    8e18:	e3520000 	cmp	r2, #0
    8e1c:	1afffffa 	bne	8e0c <strcat+0x1c>
    8e20:	e12fff1e 	bx	lr

00008e24 <strcmp>:
    8e24:	ea000001 	b	8e30 <strcmp+0xc>
    8e28:	e2800001 	add	r0, r0, #1
    8e2c:	e2811001 	add	r1, r1, #1
    8e30:	e5d03000 	ldrb	r3, [r0]
    8e34:	e3530000 	cmp	r3, #0
    8e38:	0a000002 	beq	8e48 <strcmp+0x24>
    8e3c:	e5d12000 	ldrb	r2, [r1]
    8e40:	e1530002 	cmp	r3, r2
    8e44:	0afffff7 	beq	8e28 <strcmp+0x4>
    8e48:	e5d10000 	ldrb	r0, [r1]
    8e4c:	e0430000 	sub	r0, r3, r0
    8e50:	e12fff1e 	bx	lr

00008e54 <strcpy>:
    8e54:	e1a0c000 	mov	ip, r0
    8e58:	e5d12000 	ldrb	r2, [r1]
    8e5c:	e2811001 	add	r1, r1, #1
    8e60:	e5cc2000 	strb	r2, [ip]
    8e64:	e28cc001 	add	ip, ip, #1
    8e68:	e3520000 	cmp	r2, #0
    8e6c:	1afffff9 	bne	8e58 <strcpy+0x4>
    8e70:	e12fff1e 	bx	lr

00008e74 <strncmp>:
    8e74:	e3520000 	cmp	r2, #0
    8e78:	e2422001 	sub	r2, r2, #1
    8e7c:	0a000005 	beq	8e98 <strncmp+0x24>
    8e80:	e4d03001 	ldrb	r3, [r0], #1
    8e84:	e4d1c001 	ldrb	ip, [r1], #1
    8e88:	e153000c 	cmp	r3, ip
    8e8c:	0afffff8 	beq	8e74 <strncmp>
    8e90:	e043000c 	sub	r0, r3, ip
    8e94:	e12fff1e 	bx	lr
    8e98:	e3a00000 	mov	r0, #0
    8e9c:	e12fff1e 	bx	lr

00008ea0 <reboot_callout>:
    8ea0:	e12fff1e 	bx	lr

00008ea4 <dev_barrier>:
    8ea4:	ea000002 	b	8eb4 <dsb>

00008ea8 <dmb>:
    8ea8:	e3a00000 	mov	r0, #0
    8eac:	ee070fba 	mcr	15, 0, r0, cr7, cr10, {5}
    8eb0:	e12fff1e 	bx	lr

00008eb4 <dsb>:
    8eb4:	ee070f9a 	mcr	15, 0, r0, cr7, cr10, {4}
    8eb8:	e12fff1e 	bx	lr

00008ebc <__code_end__>:
    8ebc:	00000000 	andeq	r0, r0, r0

Disassembly of section .rodata:

00008ec0 <__FUNCTION__.0-0x158>:
    8ec0:	6c6c6568 	cfstr64vs	mvdx6, [ip], #-416	; 0xfffffe60
    8ec4:	6f77206f 	svcvs	0x0077206f
    8ec8:	0a646c72 	beq	1924098 <__bss_end__+0x191ac40>
    8ecc:	00000000 	andeq	r0, r0, r0
    8ed0:	696c2f2e 	stmdbvs	ip!, {r1, r2, r3, r5, r8, r9, sl, fp, sp}^
    8ed4:	762f6362 	strtvc	r6, [pc], -r2, ror #6
    8ed8:	72702d61 	rsbsvc	r2, r0, #6208	; 0x1840
    8edc:	6b746e69 	blvs	1d24888 <__bss_end__+0x1d1b430>
    8ee0:	0000632e 	andeq	r6, r0, lr, lsr #6
    8ee4:	494e4150 	stmdbmi	lr, {r4, r6, r8, lr}^
    8ee8:	73253a43 			; <UNDEFINED> instruction: 0x73253a43
    8eec:	3a73253a 	bcc	1cd23dc <__bss_end__+0x1cc8f84>
    8ef0:	253a6425 	ldrcs	r6, [sl, #-1061]!	; 0xfffffbdb
    8ef4:	00000a73 	andeq	r0, r0, r3, ror sl
    8ef8:	00000030 	andeq	r0, r0, r0, lsr r0
    8efc:	33323130 	teqcc	r2, #48, 2
    8f00:	37363534 			; <UNDEFINED> instruction: 0x37363534
    8f04:	00003938 	andeq	r3, r0, r8, lsr r9
    8f08:	33323130 	teqcc	r2, #48, 2
    8f0c:	37363534 			; <UNDEFINED> instruction: 0x37363534
    8f10:	62613938 	rsbvs	r3, r1, #56, 18	; 0xe0000
    8f14:	66656463 	strbtvs	r6, [r5], -r3, ror #8
    8f18:	00000000 	andeq	r0, r0, r0
    8f1c:	00003130 	andeq	r3, r0, r0, lsr r1
    8f20:	63747570 	cmnvs	r4, #112, 10	; 0x1c000000
    8f24:	0070665f 	rsbseq	r6, r0, pc, asr r6
    8f28:	74646977 	strbtvc	r6, [r4], #-2423	; 0xfffff689
    8f2c:	203c2068 	eorscs	r2, ip, r8, rrx
    8f30:	00003233 	andeq	r3, r0, r3, lsr r2
    8f34:	00786c6c 	rsbseq	r6, r8, ip, ror #24
    8f38:	00646c6c 	rsbeq	r6, r4, ip, ror #24
    8f3c:	6e727473 	mrcvs	4, 3, r7, cr2, cr3, {3}
    8f40:	28706d63 	ldmdacs	r0!, {r0, r1, r5, r6, r8, sl, fp, sp, lr}^
    8f44:	202c7974 	eorcs	r7, ip, r4, ror r9
    8f48:	786c6c22 	stmdavc	ip!, {r1, r5, sl, fp, sp, lr}^
    8f4c:	33202c22 			; <UNDEFINED> instruction: 0x33202c22
    8f50:	3d3d2029 	ldccc	0, cr2, [sp, #-164]!	; 0xffffff5c
    8f54:	7c203020 	stcvc	0, cr3, [r0], #-128	; 0xffffff80
    8f58:	7473207c 	ldrbtvc	r2, [r3], #-124	; 0xffffff84
    8f5c:	6d636e72 	stclvs	14, cr6, [r3, #-456]!	; 0xfffffe38
    8f60:	79742870 	ldmdbvc	r4!, {r4, r5, r6, fp, sp}^
    8f64:	6c22202c 	stcvs	0, cr2, [r2], #-176	; 0xffffff50
    8f68:	2c22646c 	cfstrscs	mvf6, [r2], #-432	; 0xfffffe50
    8f6c:	20293320 	eorcs	r3, r9, r0, lsr #6
    8f70:	30203d3d 	eorcc	r3, r0, sp, lsr sp
    8f74:	00000000 	andeq	r0, r0, r0
    8f78:	494e4150 	stmdbmi	lr, {r4, r6, r8, lr}^
    8f7c:	73253a43 			; <UNDEFINED> instruction: 0x73253a43
    8f80:	3a73253a 	bcc	1cd2470 <__bss_end__+0x1cc9018>
    8f84:	693a6425 	ldmdbvs	sl!, {r0, r2, r5, sl, sp, lr}
    8f88:	736f706d 	cmnvc	pc, #109	; 0x6d
    8f8c:	6c626973 			; <UNDEFINED> instruction: 0x6c626973
    8f90:	66203a65 	strtvs	r3, [r0], -r5, ror #20
    8f94:	3c3d746d 	cfldrscc	mvf7, [sp], #-436	; 0xfffffe4c
    8f98:	0a3e7325 	beq	fa5c34 <__bss_end__+0xf9c7dc>
    8f9c:	0000000a 	andeq	r0, r0, sl
    8fa0:	494e4150 	stmdbmi	lr, {r4, r6, r8, lr}^
    8fa4:	73253a43 			; <UNDEFINED> instruction: 0x73253a43
    8fa8:	3a73253a 	bcc	1cd2498 <__bss_end__+0x1cc9040>
    8fac:	663a6425 	ldrtvs	r6, [sl], -r5, lsr #8
    8fb0:	74616f6c 	strbtvc	r6, [r1], #-3948	; 0xfffff094
    8fb4:	746f6e20 	strbtvc	r6, [pc], #-3616	; 8fbc <__code_end__+0x100>
    8fb8:	616e6520 	cmnvs	lr, r0, lsr #10
    8fbc:	64656c62 	strbtvs	r6, [r5], #-3170	; 0xfffff39e
    8fc0:	0a212121 	beq	85144c <__bss_end__+0x847ff4>
    8fc4:	00000000 	andeq	r0, r0, r0
    8fc8:	6e697270 	mcrvs	2, 3, r7, cr9, cr0, {3}
    8fcc:	203a6b74 	eorscs	r6, sl, r4, ror fp
    8fd0:	20746f6e 	rsbscs	r6, r4, lr, ror #30
    8fd4:	646e6168 	strbtvs	r6, [lr], #-360	; 0xfffffe98
    8fd8:	676e696c 	strbvs	r6, [lr, -ip, ror #18]!
    8fdc:	65707320 	ldrbvs	r7, [r0, #-800]!	; 0xfffffce0
    8fe0:	69666963 	stmdbvs	r6!, {r0, r1, r5, r6, r8, fp, sp, lr}^
    8fe4:	27207265 	strcs	r7, [r0, -r5, ror #4]!
    8fe8:	20276325 	eorcs	r6, r7, r5, lsr #6
    8fec:	63736128 	cmnvs	r3, #40, 2
    8ff0:	253d6969 	ldrcs	r6, [sp, #-2409]!	; 0xfffff697
    8ff4:	000a2964 	andeq	r2, sl, r4, ror #18
    8ff8:	494e4150 	stmdbmi	lr, {r4, r6, r8, lr}^
    8ffc:	73253a43 			; <UNDEFINED> instruction: 0x73253a43
    9000:	3a73253a 	bcc	1cd24f0 <__bss_end__+0x1cc9098>
    9004:	703a6425 	eorsvc	r6, sl, r5, lsr #8
    9008:	746e6972 	strbtvc	r6, [lr], #-2418	; 0xfffff68e
    900c:	7265206b 	rsbvc	r2, r5, #107	; 0x6b
    9010:	0a726f72 	beq	1ca4de0 <__bss_end__+0x1c9b988>
    9014:	0000000a 	andeq	r0, r0, sl

00009018 <__FUNCTION__.0>:
    9018:	74696d65 	strbtvc	r6, [r9], #-3429	; 0xfffff29b
    901c:	00000000 	andeq	r0, r0, r0

00009020 <__FUNCTION__.2>:
    9020:	5f697072 	svcpl	0x00697072
    9024:	5f746573 	svcpl	0x00746573
    9028:	7074756f 	rsbsvc	r7, r4, pc, ror #10
    902c:	00007475 	andeq	r7, r0, r5, ror r4

00009030 <__FUNCTION__.1>:
    9030:	705f6176 	subsvc	r6, pc, r6, ror r1	; <UNPREDICTABLE>
    9034:	746e6972 	strbtvc	r6, [lr], #-2418	; 0xfffff68e
    9038:	0000006b 	andeq	r0, r0, fp, rrx
    903c:	454e4f44 	strbmi	r4, [lr, #-3908]	; 0xfffff0bc
    9040:	0a212121 	beq	8514cc <__bss_end__+0x848074>
	...

Disassembly of section .data:

00009048 <putk>:
    9048:	000083fc 	strdeq	r8, [r0], -ip

0000904c <rpi_putchar>:
    904c:	00008db4 			; <UNDEFINED> instruction: 0x00008db4

Disassembly of section .bss:

00009050 <uart_registers>:
    9050:	00000000 	andeq	r0, r0, r0

00009054 <buf.0>:
	...

Disassembly of section .ARM.attributes:

00000000 <.ARM.attributes>:
   0:	00002a41 	andeq	r2, r0, r1, asr #20
   4:	61656100 	cmnvs	r5, r0, lsl #2
   8:	01006962 	tsteq	r0, r2, ror #18
   c:	00000020 	andeq	r0, r0, r0, lsr #32
  10:	4b5a3605 	blmi	168d82c <__bss_end__+0x16843d4>
  14:	08070600 	stmdaeq	r7, {r9, sl}
  18:	12010901 	andne	r0, r1, #16384	; 0x4000
  1c:	15011404 	strne	r1, [r1, #-1028]	; 0xfffffbfc
  20:	18031701 	stmdane	r3, {r0, r8, r9, sl, ip}
  24:	22011a01 	andcs	r1, r1, #4096	; 0x1000
  28:	Address 0x0000000000000028 is out of bounds.


Disassembly of section .comment:

00000000 <.comment>:
   0:	3a434347 	bcc	10d0d24 <__bss_end__+0x10c78cc>
   4:	4e472820 	cdpmi	8, 4, cr2, cr7, cr0, {1}
   8:	72412055 	subvc	r2, r1, #85	; 0x55
   c:	6d45206d 	stclvs	0, cr2, [r5, #-436]	; 0xfffffe4c
  10:	64646562 	strbtvs	r6, [r4], #-1378	; 0xfffffa9e
  14:	54206465 	strtpl	r6, [r0], #-1125	; 0xfffffb9b
  18:	636c6f6f 	cmnvs	ip, #444	; 0x1bc
  1c:	6e696168 	powvsez	f6, f1, #0.0
  20:	2e303120 	rsfcssp	f3, f0, f0
  24:	30322d33 	eorscc	r2, r2, r3, lsr sp
  28:	312e3132 			; <UNDEFINED> instruction: 0x312e3132
  2c:	31202930 			; <UNDEFINED> instruction: 0x31202930
  30:	2e332e30 	mrccs	14, 1, r2, cr3, cr0, {1}
  34:	30322031 	eorscc	r2, r2, r1, lsr r0
  38:	38303132 	ldmdacc	r0!, {r1, r4, r5, r8, ip, sp}
  3c:	28203432 	stmdacs	r0!, {r1, r4, r5, sl, ip, sp}
  40:	656c6572 	strbvs	r6, [ip, #-1394]!	; 0xfffffa8e
  44:	29657361 	stmdbcs	r5!, {r0, r5, r6, r8, r9, ip, sp, lr}^
	...

Disassembly of section .debug_info:

00000000 <.debug_info>:
       0:	000000d3 	ldrdeq	r0, [r0], -r3
       4:	00000004 	andeq	r0, r0, r4
       8:	01040000 	mrseq	r0, (UNDEF: 4)
       c:	00000093 	muleq	r0, r3, r0
      10:	0000130c 	andeq	r1, r0, ip, lsl #6
      14:	00004e00 	andeq	r4, r0, r0, lsl #28
      18:	00803800 	addeq	r3, r0, r0, lsl #16
      1c:	00001800 	andeq	r1, r0, r0, lsl #16
      20:	00000000 	andeq	r0, r0, r0
      24:	05040200 	streq	r0, [r4, #-512]	; 0xfffffe00
      28:	00746e69 	rsbseq	r6, r4, r9, ror #28
      2c:	86070403 	strhi	r0, [r7], -r3, lsl #8
      30:	03000000 	movweq	r0, #0
      34:	00350601 	eorseq	r0, r5, r1, lsl #12
      38:	02030000 	andeq	r0, r3, #0
      3c:	00014805 	andeq	r4, r1, r5, lsl #16
      40:	05040300 	streq	r0, [r4, #-768]	; 0xfffffd00
      44:	0000013f 	andeq	r0, r0, pc, lsr r1
      48:	3a050803 	bcc	14205c <__bss_end__+0x138c04>
      4c:	03000001 	movweq	r0, #1
      50:	00330801 	eorseq	r0, r3, r1, lsl #16
      54:	02030000 	andeq	r0, r3, #0
      58:	00000007 	andeq	r0, r0, r7
      5c:	07040300 	streq	r0, [r4, -r0, lsl #6]
      60:	00000081 	andeq	r0, r0, r1, lsl #1
      64:	7c070803 	stcvc	8, cr0, [r7], {3}
      68:	03000000 	movweq	r0, #0
      6c:	003c0801 	eorseq	r0, ip, r1, lsl #16
      70:	21040000 	mrscs	r0, (UNDEF: 4)
      74:	01000000 	mrseq	r0, (UNDEF: 0)
      78:	80380607 	eorshi	r0, r8, r7, lsl #12
      7c:	00180000 	andseq	r0, r8, r0
      80:	9c010000 	stcls	0, cr0, [r1], {-0}
      84:	000000b2 	strheq	r0, [r0], -r2
      88:	00804005 	addeq	r4, r0, r5
      8c:	0000b200 	andeq	fp, r0, r0, lsl #4
      90:	80480600 	subhi	r0, r8, r0, lsl #12
      94:	00be0000 	adcseq	r0, lr, r0
      98:	00a80000 	adceq	r0, r8, r0
      9c:	01070000 	mrseq	r0, (UNDEF: 7)
      a0:	c0030550 	andgt	r0, r3, r0, asr r5
      a4:	0000008e 	andeq	r0, r0, lr, lsl #1
      a8:	00804c05 	addeq	r4, r0, r5, lsl #24
      ac:	0000ca00 	andeq	ip, r0, r0, lsl #20
      b0:	29080000 	stmdbcs	r8, {}	; <UNPREDICTABLE>
      b4:	29000000 	stmdbcs	r0, {}	; <UNPREDICTABLE>
      b8:	02000000 	andeq	r0, r0, #0
      bc:	7408063b 	strvc	r0, [r8], #-1595	; 0xfffff9c5
      c0:	74000006 	strvc	r0, [r0], #-6
      c4:	02000006 	andeq	r0, r0, #6
      c8:	41080628 	tstmi	r8, r8, lsr #12
      cc:	41000000 	mrsmi	r0, (UNDEF: 0)
      d0:	02000000 	andeq	r0, r0, #0
      d4:	ba00066e 	blt	1a94 <__code_start__-0x656c>
      d8:	04000009 	streq	r0, [r0], #-9
      dc:	00007d00 	andeq	r7, r0, r0, lsl #26
      e0:	8a010400 	bhi	410e8 <__bss_end__+0x37c90>
      e4:	0c000003 	stceq	0, cr0, [r0], {3}
      e8:	000004a1 	andeq	r0, r0, r1, lsr #9
      ec:	0000054d 	andeq	r0, r0, sp, asr #10
      f0:	00008050 	andeq	r8, r0, r0, asr r0
      f4:	00000354 	andeq	r0, r0, r4, asr r3
      f8:	00000070 	andeq	r0, r0, r0, ror r0
      fc:	69050402 	stmdbvs	r5, {r1, sl}
     100:	0300746e 	movweq	r7, #1134	; 0x46e
     104:	00860704 	addeq	r0, r6, r4, lsl #14
     108:	2c040000 	stccs	0, cr0, [r4], {-0}
     10c:	03000000 	movweq	r0, #0
     110:	00350601 	eorseq	r0, r5, r1, lsl #12
     114:	02030000 	andeq	r0, r3, #0
     118:	00014805 	andeq	r4, r1, r5, lsl #16
     11c:	05040300 	streq	r0, [r4, #-768]	; 0xfffffd00
     120:	0000013f 	andeq	r0, r0, pc, lsr r1
     124:	3a050803 	bcc	142138 <__bss_end__+0x138ce0>
     128:	05000001 	streq	r0, [r0, #-1]
     12c:	000002a8 	andeq	r0, r0, r8, lsr #5
     130:	60182e02 	andsvs	r2, r8, r2, lsl #28
     134:	03000000 	movweq	r0, #0
     138:	00330801 	eorseq	r0, r3, r1, lsl #16
     13c:	02030000 	andeq	r0, r3, #0
     140:	00000007 	andeq	r0, r0, r7
     144:	07040300 	streq	r0, [r4, -r0, lsl #6]
     148:	00000081 	andeq	r0, r0, r1, lsl #1
     14c:	7c070803 	stcvc	8, cr0, [r7], {3}
     150:	03000000 	movweq	r0, #0
     154:	003c0801 	eorseq	r0, ip, r1, lsl #16
     158:	07060000 	streq	r0, [r6, -r0]
     15c:	00006001 	andeq	r6, r0, r1
     160:	0e0c0400 	cfcpyseq	mvf0, mvf12
     164:	000000c2 	andeq	r0, r0, r2, asr #1
     168:	00037a07 	andeq	r7, r3, r7, lsl #20
     16c:	e5070000 	str	r0, [r7, #-0]
     170:	01000001 	tsteq	r0, r1
     174:	00024007 	andeq	r4, r2, r7
     178:	4f070400 	svcmi	0x00070400
     17c:	05000002 	streq	r0, [r0, #-2]
     180:	00025e07 	andeq	r5, r2, r7, lsl #28
     184:	6d070600 	stcvs	6, cr0, [r7, #-0]
     188:	07000002 	streq	r0, [r0, -r2]
     18c:	00027c07 	andeq	r7, r2, r7, lsl #24
     190:	8b070300 	blhi	1c0d98 <__bss_end__+0x1b7940>
     194:	02000002 	andeq	r0, r0, #2
     198:	057d0800 	ldrbeq	r0, [sp, #-2048]!	; 0xfffff800
     19c:	b2010000 	andlt	r0, r1, #0
     1a0:	00003317 	andeq	r3, r0, r7, lsl r3
     1a4:	21500000 	cmpcs	r0, r0
     1a8:	03730920 	cmneq	r3, #32, 18	; 0x80000
     1ac:	01040000 	mrseq	r0, (UNDEF: 4)
     1b0:	010010b6 	strheq	r1, [r0, -r6]
     1b4:	bc0a0000 	stclt	0, cr0, [sl], {-0}
     1b8:	01000001 	tsteq	r0, r1
     1bc:	002c0eb7 	strhteq	r0, [ip], -r7
     1c0:	01040000 	mrseq	r0, (UNDEF: 4)
     1c4:	ff0a001f 			; <UNDEFINED> instruction: 0xff0a001f
     1c8:	01000004 	tsteq	r0, r4
     1cc:	002c0eb8 	strhteq	r0, [ip], -r8
     1d0:	1f040000 	svcne	0x00040000
     1d4:	09000000 	stmdbeq	r0, {}	; <UNPREDICTABLE>
     1d8:	00000599 	muleq	r0, r9, r5
     1dc:	10bd0104 	adcsne	r0, sp, r4, lsl #2
     1e0:	0000012e 	andeq	r0, r0, lr, lsr #2
     1e4:	0001b50a 	andeq	fp, r1, sl, lsl #10
     1e8:	0ebe0100 	frdeqe	f0, f6, f0
     1ec:	0000002c 	andeq	r0, r0, ip, lsr #32
     1f0:	001f0104 	andseq	r0, pc, r4, lsl #2
     1f4:	0002eb0a 	andeq	lr, r2, sl, lsl #22
     1f8:	0ebf0100 	frdeqe	f0, f7, f0
     1fc:	0000002c 	andeq	r0, r0, ip, lsr #32
     200:	00001f04 	andeq	r1, r0, r4, lsl #30
     204:	05770900 	ldrbeq	r0, [r7, #-2304]!	; 0xfffff700
     208:	01040000 	mrseq	r0, (UNDEF: 4)
     20c:	015c10c5 	cmpeq	ip, r5, asr #1
     210:	510a0000 	mrspl	r0, (UNDEF: 10)
     214:	01000004 	tsteq	r0, r4
     218:	002c0ec6 	eoreq	r0, ip, r6, asr #29
     21c:	08040000 	stmdaeq	r4, {}	; <UNPREDICTABLE>
     220:	af0a0018 	svcge	0x000a0018
     224:	01000005 	tsteq	r0, r5
     228:	002c0ec7 	eoreq	r0, ip, r7, asr #29
     22c:	18040000 	stmdane	r4, {}	; <UNPREDICTABLE>
     230:	05000000 	streq	r0, [r0, #-0]
     234:	000002d2 	ldrdeq	r0, [r0], -r2
     238:	2e03c801 	cdpcs	8, 0, cr12, cr3, cr1, {0}
     23c:	09000001 	stmdbeq	r0, {r0}
     240:	000002b0 			; <UNDEFINED> instruction: 0x000002b0
     244:	10cc0104 	sbcne	r0, ip, r4, lsl #2
     248:	000001a6 	andeq	r0, r0, r6, lsr #3
     24c:	0002b70a 	andeq	fp, r2, sl, lsl #14
     250:	0ecd0100 	poleqe	f0, f5, f0
     254:	0000002c 	andeq	r0, r0, ip, lsr #32
     258:	001f0104 	andseq	r0, pc, r4, lsl #2
     25c:	0004bd0a 	andeq	fp, r4, sl, lsl #26
     260:	0ece0100 	poleqe	f0, f6, f0
     264:	0000002c 	andeq	r0, r0, ip, lsr #32
     268:	001e0104 	andseq	r0, lr, r4, lsl #2
     26c:	0003200a 	andeq	r2, r3, sl
     270:	0ecf0100 	poleqe	f0, f7, f0
     274:	0000002c 	andeq	r0, r0, ip, lsr #32
     278:	00001e04 	andeq	r1, r0, r4, lsl #28
     27c:	04830900 	streq	r0, [r3], #2304	; 0x900
     280:	01040000 	mrseq	r0, (UNDEF: 4)
     284:	020410d4 	andeq	r1, r4, #212	; 0xd4
     288:	560a0000 	strpl	r0, [sl], -r0
     28c:	01000006 	tsteq	r0, r6
     290:	002c0ed5 	ldrdeq	r0, [ip], -r5	; <UNPREDICTABLE>
     294:	01040000 	mrseq	r0, (UNDEF: 4)
     298:	610a001f 	tstvs	sl, pc, lsl r0
     29c:	01000003 	tsteq	r0, r3
     2a0:	002c0ed6 	ldrdeq	r0, [ip], -r6	; <UNPREDICTABLE>
     2a4:	01040000 	mrseq	r0, (UNDEF: 4)
     2a8:	310a001e 	tstcc	sl, lr, lsl r0
     2ac:	01000004 	tsteq	r0, r4
     2b0:	002c0ed7 	ldrdeq	r0, [ip], -r7	; <UNPREDICTABLE>
     2b4:	01040000 	mrseq	r0, (UNDEF: 4)
     2b8:	da0a001d 	ble	280334 <__bss_end__+0x276edc>
     2bc:	01000002 	tsteq	r0, r2
     2c0:	002c0ed8 	ldrdeq	r0, [ip], -r8	; <UNPREDICTABLE>
     2c4:	05040000 	streq	r0, [r4, #-0]
     2c8:	6a0a0018 	bvs	280330 <__bss_end__+0x276ed8>
     2cc:	01000005 	tsteq	r0, r5
     2d0:	002c0ed9 	ldrdeq	r0, [ip], -r9	; <UNPREDICTABLE>
     2d4:	18040000 	stmdane	r4, {}	; <UNPREDICTABLE>
     2d8:	09000000 	stmdbeq	r0, {}	; <UNPREDICTABLE>
     2dc:	00000546 	andeq	r0, r0, r6, asr #10
     2e0:	10de0104 	sbcsne	r0, lr, r4, lsl #2
     2e4:	00000232 	andeq	r0, r0, r2, lsr r2
     2e8:	0001d00a 	andeq	sp, r1, sl
     2ec:	0edf0100 	cdpeq	1, 13, cr0, cr15, cr0, {0}
     2f0:	0000002c 	andeq	r0, r0, ip, lsr #32
     2f4:	001f0104 	andseq	r0, pc, r4, lsl #2
     2f8:	0006390a 	andeq	r3, r6, sl, lsl #18
     2fc:	0ee00100 	cdpeq	1, 14, cr0, cr0, cr0, {0}
     300:	0000002c 	andeq	r0, r0, ip, lsr #32
     304:	00001f04 	andeq	r1, r0, r4, lsl #30
     308:	01de0900 	bicseq	r0, lr, r0, lsl #18
     30c:	01040000 	mrseq	r0, (UNDEF: 4)
     310:	02a010e6 	adceq	r1, r0, #230	; 0xe6
     314:	ef0a0000 	svc	0x000a0000
     318:	01000005 	tsteq	r0, r5
     31c:	002c0ee7 	eoreq	r0, ip, r7, ror #29
     320:	01040000 	mrseq	r0, (UNDEF: 4)
     324:	c10a001f 	tstgt	sl, pc, lsl r0
     328:	01000001 	tsteq	r0, r1
     32c:	002c0ee8 	eoreq	r0, ip, r8, ror #29
     330:	01040000 	mrseq	r0, (UNDEF: 4)
     334:	590a001e 	stmdbpl	sl, {r1, r2, r3, r4}
     338:	01000003 	tsteq	r0, r3
     33c:	002c0ee9 	eoreq	r0, ip, r9, ror #29
     340:	03040000 	movweq	r0, #16384	; 0x4000
     344:	390a001b 	stmdbcc	sl, {r0, r1, r3, r4}
     348:	01000003 	tsteq	r0, r3
     34c:	002c0eea 	eoreq	r0, ip, sl, ror #29
     350:	01040000 	mrseq	r0, (UNDEF: 4)
     354:	ae0a001a 	mcrge	0, 0, r0, cr10, cr10, {0}
     358:	01000004 	tsteq	r0, r4
     35c:	002c0eeb 	eoreq	r0, ip, fp, ror #29
     360:	01040000 	mrseq	r0, (UNDEF: 4)
     364:	150a0019 	strne	r0, [sl, #-25]	; 0xffffffe7
     368:	01000006 	tsteq	r0, r6
     36c:	002c0eec 	eoreq	r0, ip, ip, ror #29
     370:	19040000 	stmdbne	r4, {}	; <UNPREDICTABLE>
     374:	09000000 	stmdbeq	r0, {}	; <UNPREDICTABLE>
     378:	000002f9 	strdeq	r0, [r0], -r9
     37c:	10f10104 	rscsne	r0, r1, r4, lsl #2
     380:	000002de 	ldrdeq	r0, [r0], -lr
     384:	00015b0a 	andeq	r5, r1, sl, lsl #22
     388:	0ef20100 	cdpeq	1, 15, cr0, cr2, cr0, {0}
     38c:	0000002c 	andeq	r0, r0, ip, lsr #32
     390:	001f0104 	andseq	r0, pc, r4, lsl #2
     394:	0001990a 	andeq	r9, r1, sl, lsl #18
     398:	0ef30100 	cdpeq	1, 15, cr0, cr3, cr0, {0}
     39c:	0000002c 	andeq	r0, r0, ip, lsr #32
     3a0:	001e0104 	andseq	r0, lr, r4, lsl #2
     3a4:	00050d0a 	andeq	r0, r5, sl, lsl #26
     3a8:	0ef40100 	cdpeq	1, 15, cr0, cr4, cr0, {0}
     3ac:	0000002c 	andeq	r0, r0, ip, lsr #32
     3b0:	00001e04 	andeq	r1, r0, r4, lsl #28
     3b4:	03010900 	movweq	r0, #6400	; 0x1900
     3b8:	01040000 	mrseq	r0, (UNDEF: 4)
     3bc:	03a110f9 			; <UNDEFINED> instruction: 0x03a110f9
     3c0:	040a0000 	streq	r0, [sl], #-0
     3c4:	01000002 	tsteq	r0, r2
     3c8:	002c0efa 	strdeq	r0, [ip], -sl	; <UNPREDICTABLE>
     3cc:	01040000 	mrseq	r0, (UNDEF: 4)
     3d0:	7a0a001f 	bvc	280454 <__bss_end__+0x276ffc>
     3d4:	01000001 	tsteq	r0, r1
     3d8:	002c0efb 	strdeq	r0, [ip], -fp	; <UNPREDICTABLE>
     3dc:	01040000 	mrseq	r0, (UNDEF: 4)
     3e0:	e00a001e 	and	r0, sl, lr, lsl r0
     3e4:	01000004 	tsteq	r0, r4
     3e8:	002c0efc 	strdeq	r0, [ip], -ip	; <UNPREDICTABLE>
     3ec:	01040000 	mrseq	r0, (UNDEF: 4)
     3f0:	a80a001d 	stmdage	sl, {r0, r2, r3, r4}
     3f4:	01000001 	tsteq	r0, r1
     3f8:	002c0efd 	strdeq	r0, [ip], -sp	; <UNPREDICTABLE>
     3fc:	01040000 	mrseq	r0, (UNDEF: 4)
     400:	460a001c 			; <UNDEFINED> instruction: 0x460a001c
     404:	01000006 	tsteq	r0, r6
     408:	002c0efe 	strdeq	r0, [ip], -lr	; <UNPREDICTABLE>
     40c:	01040000 	mrseq	r0, (UNDEF: 4)
     410:	090a001b 	stmdbeq	sl, {r0, r1, r3, r4}
     414:	01000003 	tsteq	r0, r3
     418:	002c0eff 	strdeq	r0, [ip], -pc	; <UNPREDICTABLE>
     41c:	01040000 	mrseq	r0, (UNDEF: 4)
     420:	520b001a 	andpl	r0, fp, #26
     424:	01000001 	tsteq	r0, r1
     428:	2c0e0100 	stfcss	f0, [lr], {-0}
     42c:	04000000 	streq	r0, [r0], #-0
     430:	0b001901 	bleq	683c <__code_start__-0x17c4>
     434:	000002e2 	andeq	r0, r0, r2, ror #5
     438:	0e010101 	adfeqs	f0, f1, f1
     43c:	0000002c 	andeq	r0, r0, ip, lsr #32
     440:	00180104 	andseq	r0, r8, r4, lsl #2
     444:	0005d40b 	andeq	sp, r5, fp, lsl #8
     448:	01020100 	mrseq	r0, (UNDEF: 18)
     44c:	00002c0e 	andeq	r2, r0, lr, lsl #24
     450:	17010400 	strne	r0, [r1, -r0, lsl #8]
     454:	018c0b00 	orreq	r0, ip, r0, lsl #22
     458:	03010000 	movweq	r0, #4096	; 0x1000
     45c:	002c0e01 	eoreq	r0, ip, r1, lsl #28
     460:	01040000 	mrseq	r0, (UNDEF: 4)
     464:	160b0016 			; <UNDEFINED> instruction: 0x160b0016
     468:	01000002 	tsteq	r0, r2
     46c:	2c0e0104 	stfcss	f0, [lr], {4}
     470:	04000000 	streq	r0, [r0], #-0
     474:	00000016 	andeq	r0, r0, r6, lsl r0
     478:	0006220c 	andeq	r2, r6, ip, lsl #4
     47c:	01050100 	mrseq	r0, (UNDEF: 21)
     480:	0002de03 	andeq	sp, r2, r3, lsl #28
     484:	048a0d00 	streq	r0, [sl], #3328	; 0xd00
     488:	01040000 	mrseq	r0, (UNDEF: 4)
     48c:	df100109 	svcle	0x00100109
     490:	0b000003 	bleq	4a4 <__code_start__-0x7b5c>
     494:	000002c8 	andeq	r0, r0, r8, asr #5
     498:	0e010a01 	vmlaeq.f32	s0, s2, s2
     49c:	0000002c 	andeq	r0, r0, ip, lsr #32
     4a0:	00101004 	andseq	r1, r0, r4
     4a4:	00032b0b 	andeq	r2, r3, fp, lsl #22
     4a8:	010b0100 	mrseq	r0, (UNDEF: 27)
     4ac:	00002c0e 	andeq	r2, r0, lr, lsl #24
     4b0:	00100400 	andseq	r0, r0, r0, lsl #8
     4b4:	040e0000 	streq	r0, [lr], #-0
     4b8:	05010f01 	streq	r0, [r1, #-3841]	; 0xfffff0ff
     4bc:	00000404 	andeq	r0, r0, r4, lsl #8
     4c0:	0003730f 	andeq	r7, r3, pc, lsl #6
     4c4:	01100100 	tsteq	r0, r0, lsl #2
     4c8:	00002c12 	andeq	r2, r0, r2, lsl ip
     4cc:	041d0f00 	ldreq	r0, [sp], #-3840	; 0xfffff100
     4d0:	11010000 	mrsne	r0, (UNDEF: 1)
     4d4:	00d21701 	sbcseq	r1, r2, r1, lsl #14
     4d8:	0e000000 	cdpeq	0, 0, cr0, cr0, cr0, {0}
     4dc:	01130104 	tsteq	r3, r4, lsl #2
     4e0:	00042905 	andeq	r2, r4, r5, lsl #18
     4e4:	05990f00 	ldreq	r0, [r9, #3840]	; 0xf00
     4e8:	14010000 	strne	r0, [r1], #-0
     4ec:	002c1201 	eoreq	r1, ip, r1, lsl #4
     4f0:	4b0f0000 	blmi	3c04f8 <__bss_end__+0x3b70a0>
     4f4:	01000003 	tsteq	r0, r3
     4f8:	00170115 	andseq	r0, r7, r5, lsl r1
     4fc:	00000001 	andeq	r0, r0, r1
     500:	1901040e 	stmdbne	r1, {r1, r2, r3, sl}
     504:	044e0501 	strbeq	r0, [lr], #-1281	; 0xfffffaff
     508:	770f0000 	strvc	r0, [pc, -r0]
     50c:	01000005 	tsteq	r0, r5
     510:	2c12011a 	ldfcss	f0, [r2], {26}
     514:	0f000000 	svceq	0x00000000
     518:	0000062c 	andeq	r0, r0, ip, lsr #12
     51c:	16011b01 	strne	r1, [r1], -r1, lsl #22
     520:	0000012e 	andeq	r0, r0, lr, lsr #2
     524:	01040e00 	tsteq	r4, r0, lsl #28
     528:	7305011d 	movwvc	r0, #20765	; 0x511d
     52c:	0f000004 	svceq	0x00000004
     530:	000002b0 			; <UNDEFINED> instruction: 0x000002b0
     534:	12011e01 	andne	r1, r1, #1, 28
     538:	0000002c 	andeq	r0, r0, ip, lsr #32
     53c:	0006010f 	andeq	r0, r6, pc, lsl #2
     540:	011f0100 	tsteq	pc, r0, lsl #2
     544:	00016817 	andeq	r6, r1, r7, lsl r8
     548:	040e0000 	streq	r0, [lr], #-0
     54c:	05012101 	streq	r2, [r1, #-257]	; 0xfffffeff
     550:	00000498 	muleq	r0, r8, r4
     554:	0004830f 	andeq	r8, r4, pc, lsl #6
     558:	01220100 			; <UNDEFINED> instruction: 0x01220100
     55c:	00002c12 	andeq	r2, r0, r2, lsl ip
     560:	04430f00 	strbeq	r0, [r3], #-3840	; 0xfffff100
     564:	23010000 	movwcs	r0, #4096	; 0x1000
     568:	01a61701 			; <UNDEFINED> instruction: 0x01a61701
     56c:	0e000000 	cdpeq	0, 0, cr0, cr0, cr0, {0}
     570:	01250104 			; <UNDEFINED> instruction: 0x01250104
     574:	0004bd05 	andeq	fp, r4, r5, lsl #26
     578:	05460f00 	strbeq	r0, [r6, #-3840]	; 0xfffff100
     57c:	26010000 	strcs	r0, [r1], -r0
     580:	002c1201 	eoreq	r1, ip, r1, lsl #4
     584:	f60f0000 			; <UNDEFINED> instruction: 0xf60f0000
     588:	01000001 	tsteq	r0, r1
     58c:	04170127 	ldreq	r0, [r7], #-295	; 0xfffffed9
     590:	00000002 	andeq	r0, r0, r2
     594:	2901040e 	stmdbcs	r1, {r1, r2, r3, sl}
     598:	04d50501 	ldrbeq	r0, [r5], #1281	; 0x501
     59c:	590f0000 	stmdbpl	pc, {}	; <UNPREDICTABLE>
     5a0:	01000004 	tsteq	r0, r4
     5a4:	2c12012a 	ldfcss	f0, [r2], {42}	; 0x2a
     5a8:	00000000 	andeq	r0, r0, r0
     5ac:	2c01040e 	cfstrscs	mvf0, [r1], {14}
     5b0:	04fa0501 	ldrbteq	r0, [sl], #1281	; 0x501
     5b4:	de0f0000 	cdple	0, 0, cr0, cr15, cr0, {0}
     5b8:	01000001 	tsteq	r0, r1
     5bc:	2c12012d 	ldfcss	f0, [r2], {45}	; 0x2d
     5c0:	0f000000 	svceq	0x00000000
     5c4:	00000222 	andeq	r0, r0, r2, lsr #4
     5c8:	17012e01 	strne	r2, [r1, -r1, lsl #28]
     5cc:	00000232 	andeq	r0, r0, r2, lsr r2
     5d0:	01040e00 	tsteq	r4, r0, lsl #28
     5d4:	12050130 	andne	r0, r5, #48, 2
     5d8:	0f000005 	svceq	0x00000005
     5dc:	00000475 	andeq	r0, r0, r5, ror r4
     5e0:	12013101 	andne	r3, r1, #1073741824	; 0x40000000
     5e4:	0000002c 	andeq	r0, r0, ip, lsr #32
     5e8:	01040e00 	tsteq	r4, r0, lsl #28
     5ec:	2a050133 	bcs	140ac0 <__bss_end__+0x137668>
     5f0:	0f000005 	svceq	0x00000005
     5f4:	00000587 	andeq	r0, r0, r7, lsl #11
     5f8:	12013401 	andne	r3, r1, #16777216	; 0x1000000
     5fc:	0000002c 	andeq	r0, r0, ip, lsr #32
     600:	01040e00 	tsteq	r4, r0, lsl #28
     604:	4f050136 	svcmi	0x00050136
     608:	0f000005 	svceq	0x00000005
     60c:	000002f9 	strdeq	r0, [r0], -r9
     610:	12013701 	andne	r3, r1, #262144	; 0x40000
     614:	0000002c 	andeq	r0, r0, ip, lsr #32
     618:	0005bb0f 	andeq	fp, r5, pc, lsl #22
     61c:	01380100 	teqeq	r8, r0, lsl #2
     620:	0002a018 	andeq	sl, r2, r8, lsl r0
     624:	040e0000 	streq	r0, [lr], #-0
     628:	05013a01 	streq	r3, [r1, #-2561]	; 0xfffff5ff
     62c:	00000574 	andeq	r0, r0, r4, ror r5
     630:	0003010f 	andeq	r0, r3, pc, lsl #2
     634:	013b0100 	teqeq	fp, r0, lsl #2
     638:	00002c12 	andeq	r2, r0, r2, lsl ip
     63c:	04920f00 	ldreq	r0, [r2], #3840	; 0xf00
     640:	3c010000 	stccc	0, cr0, [r1], {-0}
     644:	02de1801 	sbcseq	r1, lr, #65536	; 0x10000
     648:	0e000000 	cdpeq	0, 0, cr0, cr0, cr0, {0}
     64c:	013e0104 	teqeq	lr, r4, lsl #2
     650:	00059905 	andeq	r9, r5, r5, lsl #18
     654:	048a0f00 	streq	r0, [sl], #3840	; 0xf00
     658:	3f010000 	svccc	0x00010000
     65c:	002c1201 	eoreq	r1, ip, r1, lsl #4
     660:	a00f0000 	andge	r0, pc, r0
     664:	01000005 	tsteq	r0, r5
     668:	ae180140 	mufgeem	f0, f0, f0
     66c:	00000003 	andeq	r0, r0, r3
     670:	00016a0d 	andeq	r6, r1, sp, lsl #20
     674:	0e016c00 	cdpeq	12, 0, cr6, cr1, cr0, {0}
     678:	06041001 	streq	r1, [r4], -r1
     67c:	df100000 	svcle	0x00100000
     680:	00000003 	andeq	r0, r0, r3
     684:	00040410 	andeq	r0, r4, r0, lsl r4
     688:	67110400 	ldrvs	r0, [r1, -r0, lsl #8]
     68c:	01007061 	tsteq	r0, r1, rrx
     690:	040d0118 	streq	r0, [sp], #-280	; 0xfffffee8
     694:	08000006 	stmdaeq	r0, {r1, r2}
     698:	00042910 	andeq	r2, r4, r0, lsl r9
     69c:	4e104000 	cdpmi	0, 1, cr4, cr0, cr0, {0}
     6a0:	44000004 	strmi	r0, [r0], #-4
     6a4:	00047310 	andeq	r7, r4, r0, lsl r3
     6a8:	98104800 	ldmdals	r0, {fp, lr}
     6ac:	4c000004 	stcmi	0, cr0, [r0], {4}
     6b0:	0004bd10 	andeq	fp, r4, r0, lsl sp
     6b4:	d5105000 	ldrle	r5, [r0, #-0]
     6b8:	54000004 	strpl	r0, [r0], #-4
     6bc:	0004fa10 	andeq	pc, r4, r0, lsl sl	; <UNPREDICTABLE>
     6c0:	12105800 	andsne	r5, r0, #0, 16
     6c4:	5c000005 	stcpl	0, cr0, [r0], {5}
     6c8:	00052a10 	andeq	r2, r5, r0, lsl sl
     6cc:	4f106000 	svcmi	0x00106000
     6d0:	64000005 	strvs	r0, [r0], #-5
     6d4:	00057410 	andeq	r7, r5, r0, lsl r4
     6d8:	12006800 	andne	r6, r0, #0, 16
     6dc:	00000054 	andeq	r0, r0, r4, asr r0
     6e0:	00000614 	andeq	r0, r0, r4, lsl r6
     6e4:	00002c13 	andeq	r2, r0, r3, lsl ip
     6e8:	0c003700 	stceq	7, cr3, [r0], {-0}
     6ec:	000004ed 	andeq	r0, r0, sp, ror #9
     6f0:	03014201 	movweq	r4, #4609	; 0x1201
     6f4:	00000599 	muleq	r0, r9, r5
     6f8:	00016b14 	andeq	r6, r1, r4, lsl fp
     6fc:	01450100 	mrseq	r0, (UNDEF: 85)
     700:	0006341b 	andeq	r3, r6, fp, lsl r4
     704:	50030500 	andpl	r0, r3, r0, lsl #10
     708:	15000090 	strne	r0, [r0, #-144]	; 0xffffff70
     70c:	00061404 	andeq	r1, r6, r4, lsl #8
     710:	05e21600 	strbeq	r1, [r2, #1536]!	; 0x600
     714:	c3010000 	movwgt	r0, #4096	; 0x1000
     718:	835c0601 	cmphi	ip, #1048576	; 0x100000
     71c:	00480000 	subeq	r0, r8, r0
     720:	9c010000 	stcls	0, cr0, [r1], {-0}
     724:	00000670 	andeq	r0, r0, r0, ror r6
     728:	00837017 	addeq	r7, r3, r7, lsl r0
     72c:	00099900 	andeq	r9, r9, r0, lsl #18
     730:	00066600 	andeq	r6, r6, r0, lsl #12
     734:	50011800 	andpl	r1, r1, r0, lsl #16
     738:	00e07503 	rsceq	r7, r0, r3, lsl #10
     73c:	839c1900 	orrshi	r1, ip, #0, 18
     740:	09a50000 	stmibeq	r5!, {}	; <UNPREDICTABLE>
     744:	16000000 	strne	r0, [r0], -r0
     748:	00000519 	andeq	r0, r0, r9, lsl r5
     74c:	0601bd01 	streq	fp, [r1], -r1, lsl #26
     750:	00008348 	andeq	r8, r0, r8, asr #6
     754:	00000014 	andeq	r0, r0, r4, lsl r0
     758:	06919c01 	ldreq	r9, [r1], r1, lsl #24
     75c:	50190000 	andspl	r0, r9, r0
     760:	91000083 	smlabbls	r0, r3, r0, r0
     764:	00000006 	andeq	r0, r0, r6
     768:	0005351a 	andeq	r3, r5, sl, lsl r5
     76c:	01b60100 			; <UNDEFINED> instruction: 0x01b60100
     770:	00002505 	andeq	r2, r0, r5, lsl #10
     774:	00830c00 	addeq	r0, r3, r0, lsl #24
     778:	00003c00 	andeq	r3, r0, r0, lsl #24
     77c:	e39c0100 	orrs	r0, ip, #0, 2
     780:	1b000006 	blne	7a0 <__code_start__-0x7860>
     784:	b8010076 	stmdalt	r1, {r1, r2, r4, r5, r6}
     788:	002c0e01 	eoreq	r0, ip, r1, lsl #28
     78c:	91020000 	mrsls	r0, (UNDEF: 2)
     790:	03011c74 	movweq	r1, #7284	; 0x1c74
     794:	b9010000 	stmdblt	r1, {}	; <UNPREDICTABLE>
     798:	06e31001 	strbteq	r1, [r3], r1
     79c:	00020000 	andeq	r0, r2, r0
     7a0:	00000000 	andeq	r0, r0, r0
     7a4:	281d0000 	ldmdacs	sp, {}	; <UNPREDICTABLE>
     7a8:	99000083 	stmdbls	r0, {r0, r1, r7}
     7ac:	18000009 	stmdane	r0, {r0, r3}
     7b0:	0c055001 	stceq	0, cr5, [r5], {1}
     7b4:	20215064 	eorcs	r5, r1, r4, rrx
     7b8:	04150000 	ldreq	r0, [r5], #-0
     7bc:	000003a1 	andeq	r0, r0, r1, lsr #7
     7c0:	0002301a 	andeq	r3, r2, sl, lsl r0
     7c4:	01af0100 			; <UNDEFINED> instruction: 0x01af0100
     7c8:	00002505 	andeq	r2, r0, r5, lsl #10
     7cc:	0082ec00 	addeq	lr, r2, r0, lsl #24
     7d0:	00002000 	andeq	r2, r0, r0
     7d4:	179c0100 	ldrne	r0, [ip, r0, lsl #2]
     7d8:	19000007 	stmdbne	r0, {r0, r1, r2}
     7dc:	000082f4 	strdeq	r8, [r0], -r4
     7e0:	00000717 	andeq	r0, r0, r7, lsl r7
     7e4:	00830019 	addeq	r0, r3, r9, lsl r0
     7e8:	0007d200 	andeq	sp, r7, r0, lsl #4
     7ec:	671a0000 	ldrvs	r0, [sl, -r0]
     7f0:	01000004 	tsteq	r0, r4
     7f4:	250501aa 	strcs	r0, [r5, #-426]	; 0xfffffe56
     7f8:	e0000000 	and	r0, r0, r0
     7fc:	0c000082 	stceq	0, cr0, [r0], {130}	; 0x82
     800:	01000000 	mrseq	r0, (UNDEF: 0)
     804:	00073c9c 	muleq	r7, ip, ip
     808:	82e81900 	rschi	r1, r8, #0, 18
     80c:	082e0000 	stmdaeq	lr!, {}	; <UNPREDICTABLE>
     810:	16000000 	strne	r0, [r0], -r0
     814:	000005ca 	andeq	r0, r0, sl, asr #11
     818:	0601a001 	streq	sl, [r1], -r1
     81c:	000082a0 	andeq	r8, r0, r0, lsr #5
     820:	00000040 	andeq	r0, r0, r0, asr #32
     824:	07809c01 	streq	r9, [r0, r1, lsl #24]
     828:	631e0000 	tstvs	lr, #0
     82c:	01a00100 	lsleq	r0, r0, #2
     830:	00002c19 	andeq	r2, r0, r9, lsl ip
     834:	00001b00 	andeq	r1, r0, r0, lsl #22
     838:	00001700 	andeq	r1, r0, r0, lsl #14
     83c:	82b81900 	adcshi	r1, r8, #0, 18
     840:	07800000 	streq	r0, [r0, r0]
     844:	d41d0000 	ldrle	r0, [sp], #-0
     848:	a5000082 	strge	r0, [r0, #-130]	; 0xffffff7e
     84c:	18000009 	stmdane	r0, {r0, r3}
     850:	74025101 	strvc	r5, [r2], #-257	; 0xfffffeff
     854:	1a000000 	bne	85c <__code_start__-0x77a4>
     858:	0000029a 	muleq	r0, sl, r2
     85c:	05019701 	streq	r9, [r1, #-1793]	; 0xfffff8ff
     860:	00000025 	andeq	r0, r0, r5, lsr #32
     864:	00008260 	andeq	r8, r0, r0, ror #4
     868:	00000040 	andeq	r0, r0, r0, asr #32
     86c:	07d29c01 	ldrbeq	r9, [r2, r1, lsl #24]
     870:	761b0000 	ldrvc	r0, [fp], -r0
     874:	01990100 	orrseq	r0, r9, r0, lsl #2
     878:	00002c0e 	andeq	r2, r0, lr, lsl #24
     87c:	74910200 	ldrvc	r0, [r1], #512	; 0x200
     880:	0003011c 	andeq	r0, r3, ip, lsl r1
     884:	019a0100 	orrseq	r0, sl, r0, lsl #2
     888:	0006e310 	andeq	lr, r6, r0, lsl r3
     88c:	00003b00 	andeq	r3, r0, r0, lsl #22
     890:	00003900 	andeq	r3, r0, r0, lsl #18
     894:	827c1d00 	rsbshi	r1, ip, #0, 26
     898:	09990000 	ldmibeq	r9, {}	; <UNPREDICTABLE>
     89c:	01180000 	tsteq	r8, r0
     8a0:	640c0550 	strvs	r0, [ip], #-1360	; 0xfffffab0
     8a4:	00202150 	eoreq	r2, r0, r0, asr r1
     8a8:	03161a00 	tsteq	r6, #0, 20
     8ac:	8d010000 	stchi	0, cr0, [r1, #-0]
     8b0:	00250501 	eoreq	r0, r5, r1, lsl #10
     8b4:	82240000 	eorhi	r0, r4, #0
     8b8:	003c0000 	eorseq	r0, ip, r0
     8bc:	9c010000 	stcls	0, cr0, [r1], {-0}
     8c0:	00000828 	andeq	r0, r0, r8, lsr #16
     8c4:	0100761f 	tsteq	r0, pc, lsl r6
     8c8:	2c0e0191 	stfcss	f0, [lr], {145}	; 0x91
     8cc:	52000000 	andpl	r0, r0, #0
     8d0:	50000000 	andpl	r0, r0, r0
     8d4:	1c000000 	stcne	0, cr0, [r0], {-0}
     8d8:	00000577 	andeq	r0, r0, r7, ror r5
     8dc:	0e019201 	cdpeq	2, 0, cr9, cr1, cr1, {0}
     8e0:	00000828 	andeq	r0, r0, r8, lsr #16
     8e4:	00000067 	andeq	r0, r0, r7, rrx
     8e8:	00000065 	andeq	r0, r0, r5, rrx
     8ec:	00823819 	addeq	r3, r2, r9, lsl r8
     8f0:	00082e00 	andeq	r2, r8, r0, lsl #28
     8f4:	82501900 	subshi	r1, r0, #0, 18
     8f8:	09990000 	ldmibeq	r9, {}	; <UNPREDICTABLE>
     8fc:	15000000 	strne	r0, [r0, #-0]
     900:	00015c04 	andeq	r5, r1, r4, lsl #24
     904:	05272000 	streq	r2, [r7, #-0]!
     908:	7e010000 	cdpvc	0, 0, cr0, cr1, cr0, {0}
     90c:	00250c01 	eoreq	r0, r5, r1, lsl #24
     910:	80500000 	subshi	r0, r0, r0
     914:	003c0000 	eorseq	r0, ip, r0
     918:	9c010000 	stcls	0, cr0, [r1], {-0}
     91c:	00000880 	andeq	r0, r0, r0, lsl #17
     920:	0100761b 	tsteq	r0, fp, lsl r6
     924:	2c0e0186 	stfcss	f0, [lr], {134}	; 0x86
     928:	02000000 	andeq	r0, r0, #0
     92c:	011c7491 			; <UNDEFINED> instruction: 0x011c7491
     930:	01000003 	tsteq	r0, r3
     934:	e3100187 	tst	r0, #-1073741791	; 0xc0000021
     938:	81000006 	tsthi	r0, r6
     93c:	7f000000 	svcvc	0x00000000
     940:	1d000000 	stcne	0, cr0, [r0, #-0]
     944:	0000806c 	andeq	r8, r0, ip, rrx
     948:	00000999 	muleq	r0, r9, r9
     94c:	05500118 	ldrbeq	r0, [r0, #-280]	; 0xfffffee8
     950:	2150640c 	cmpcs	r0, ip, lsl #8
     954:	16000020 	strne	r0, [r0], -r0, lsr #32
     958:	00000029 	andeq	r0, r0, r9, lsr #32
     95c:	06014c01 	streq	r4, [r1], -r1, lsl #24
     960:	0000808c 	andeq	r8, r0, ip, lsl #1
     964:	00000198 	muleq	r0, r8, r1
     968:	09999c01 	ldmibeq	r9, {r0, sl, fp, ip, pc}
     96c:	a8170000 	ldmdage	r7, {}	; <UNPREDICTABLE>
     970:	b1000080 	smlabblt	r0, r0, r0, r0
     974:	af000009 	svcge	0x00000009
     978:	18000008 	stmdane	r0, {r3}
     97c:	3e015001 	cdpcc	0, 0, cr5, cr1, cr1, {0}
     980:	01510118 	cmpeq	r1, r8, lsl r1
     984:	b4170032 	ldrlt	r0, [r7], #-50	; 0xffffffce
     988:	b1000080 	smlabblt	r0, r0, r0, r0
     98c:	c7000009 	strgt	r0, [r0, -r9]
     990:	18000008 	stmdane	r0, {r3}
     994:	3f015001 	svccc	0x00015001
     998:	01510118 	cmpeq	r1, r8, lsl r1
     99c:	c0170032 	andsgt	r0, r7, r2, lsr r0
     9a0:	99000080 	stmdbls	r0, {r7}
     9a4:	db000009 	blle	9d0 <__code_start__-0x7630>
     9a8:	18000008 	stmdane	r0, {r3}
     9ac:	75025001 	strvc	r5, [r2, #-1]
     9b0:	e0190004 	ands	r0, r9, r4
     9b4:	a5000080 	strge	r0, [r0, #-128]	; 0xffffff80
     9b8:	17000009 	strne	r0, [r0, -r9]
     9bc:	000080ec 	andeq	r8, r0, ip, ror #1
     9c0:	00000999 	muleq	r0, r9, r9
     9c4:	000008f9 	strdeq	r0, [r0], -r9
     9c8:	03500118 	cmpeq	r0, #24, 2
     9cc:	0000e075 	andeq	lr, r0, r5, ror r0
     9d0:	00811819 	addeq	r1, r1, r9, lsl r8
     9d4:	0009a500 	andeq	sl, r9, r0, lsl #10
     9d8:	81241700 			; <UNDEFINED> instruction: 0x81241700
     9dc:	09990000 	ldmibeq	r9, {}	; <UNPREDICTABLE>
     9e0:	09170000 	ldmdbeq	r7, {}	; <UNPREDICTABLE>
     9e4:	01180000 	tsteq	r8, r0
     9e8:	c4750350 	ldrbtgt	r0, [r5], #-848	; 0xfffffcb0
     9ec:	50190000 	andspl	r0, r9, r0
     9f0:	a5000081 	strge	r0, [r0, #-129]	; 0xffffff7f
     9f4:	17000009 	strne	r0, [r0, -r9]
     9f8:	0000815c 	andeq	r8, r0, ip, asr r1
     9fc:	00000999 	muleq	r0, r9, r9
     a00:	00000935 	andeq	r0, r0, r5, lsr r9
     a04:	03500118 	cmpeq	r0, #24, 2
     a08:	0000c875 	andeq	ip, r0, r5, ror r8
     a0c:	00818819 	addeq	r8, r1, r9, lsl r8
     a10:	0009a500 	andeq	sl, r9, r0, lsl #10
     a14:	81941700 	orrshi	r1, r4, r0, lsl #14
     a18:	09990000 	ldmibeq	r9, {}	; <UNPREDICTABLE>
     a1c:	09530000 	ldmdbeq	r3, {}^	; <UNPREDICTABLE>
     a20:	01180000 	tsteq	r8, r0
     a24:	e8750350 	ldmda	r5!, {r4, r6, r8, r9}^
     a28:	b0190000 	andslt	r0, r9, r0
     a2c:	a5000081 	strge	r0, [r0, #-129]	; 0xffffff7f
     a30:	17000009 	strne	r0, [r0, -r9]
     a34:	000081bc 			; <UNDEFINED> instruction: 0x000081bc
     a38:	00000999 	muleq	r0, r9, r9
     a3c:	00000971 	andeq	r0, r0, r1, ror r9
     a40:	03500118 	cmpeq	r0, #24, 2
     a44:	0000cc75 	andeq	ip, r0, r5, ror ip
     a48:	0081dc19 	addeq	sp, r1, r9, lsl ip
     a4c:	0009a500 	andeq	sl, r9, r0, lsl #10
     a50:	81e81700 	mvnhi	r1, r0, lsl #14
     a54:	09990000 	ldmibeq	r9, {}	; <UNPREDICTABLE>
     a58:	098f0000 	stmibeq	pc, {}	; <UNPREDICTABLE>
     a5c:	01180000 	tsteq	r8, r0
     a60:	e0750350 	rsbs	r0, r5, r0, asr r3
     a64:	14190000 	ldrne	r0, [r9], #-0
     a68:	a5000082 	strge	r0, [r0, #-130]	; 0xffffff7e
     a6c:	00000009 	andeq	r0, r0, r9
     a70:	00060f21 	andeq	r0, r6, r1, lsr #30
     a74:	00060f00 	andeq	r0, r6, r0, lsl #30
     a78:	0ac20300 	beq	ff081680 <__bss_end__+0xff078228>
     a7c:	00042b21 	andeq	r2, r4, r1, lsr #22
     a80:	00042b00 	andeq	r2, r4, r0, lsl #22
     a84:	06ad0300 	strteq	r0, [sp], r0, lsl #6
     a88:	0004ce21 	andeq	ip, r4, r1, lsr #28
     a8c:	0004ce00 	andeq	ip, r4, r0, lsl #28
     a90:	06190400 	ldreq	r0, [r9], -r0, lsl #8
     a94:	00017c00 	andeq	r7, r1, r0, lsl #24
     a98:	92000400 	andls	r0, r0, #0, 8
     a9c:	04000002 	streq	r0, [r0], #-2
     aa0:	00038a01 	andeq	r8, r3, r1, lsl #20
     aa4:	068f0c00 	streq	r0, [pc], r0, lsl #24
     aa8:	054d0000 	strbeq	r0, [sp, #-0]
     aac:	83a40000 			; <UNDEFINED> instruction: 0x83a40000
     ab0:	00580000 	subseq	r0, r8, r0
     ab4:	03910000 	orrseq	r0, r1, #0
     ab8:	7b020000 	blvc	80ac0 <__bss_end__+0x77668>
     abc:	02000006 	andeq	r0, r0, #6
     ac0:	00311b28 	eorseq	r1, r1, r8, lsr #22
     ac4:	9f030000 	svcls	0x00030000
     ac8:	04000006 	streq	r0, [r0], #-6
     acc:	00480003 	subeq	r0, r8, r3
     ad0:	8a040000 	bhi	100ad8 <__bss_end__+0xf7680>
     ad4:	48000006 	stmdami	r0, {r1, r2}
     ad8:	00000000 	andeq	r0, r0, r0
     adc:	02040500 	andeq	r0, r4, #0, 10
     ae0:	000006a1 	andeq	r0, r0, r1, lsr #13
     ae4:	25186302 	ldrcs	r6, [r8, #-770]	; 0xfffffcfe
     ae8:	06000000 	streq	r0, [r0], -r0
     aec:	6e690504 	cdpvs	5, 6, cr0, cr9, cr4, {0}
     af0:	04070074 	streq	r0, [r7], #-116	; 0xffffff8c
     af4:	00008607 	andeq	r8, r0, r7, lsl #12
     af8:	06010700 	streq	r0, [r1], -r0, lsl #14
     afc:	00000035 	andeq	r0, r0, r5, lsr r0
     b00:	48050207 	stmdami	r5, {r0, r1, r2, r9}
     b04:	07000001 	streq	r0, [r0, -r1]
     b08:	013f0504 	teqeq	pc, r4, lsl #10
     b0c:	08070000 	stmdaeq	r7, {}	; <UNPREDICTABLE>
     b10:	00013a05 	andeq	r3, r1, r5, lsl #20
     b14:	08010700 	stmdaeq	r1, {r8, r9, sl}
     b18:	00000033 	andeq	r0, r0, r3, lsr r0
     b1c:	00070207 	andeq	r0, r7, r7, lsl #4
     b20:	07000000 	streq	r0, [r0, -r0]
     b24:	00810704 	addeq	r0, r1, r4, lsl #14
     b28:	08070000 	stmdaeq	r7, {}	; <UNPREDICTABLE>
     b2c:	00007c07 	andeq	r7, r0, r7, lsl #24
     b30:	00560800 	subseq	r0, r6, r0, lsl #16
     b34:	00ab0000 	adceq	r0, fp, r0
     b38:	ab090000 	blge	240b40 <__bss_end__+0x2376e8>
     b3c:	00000000 	andeq	r0, r0, r0
     b40:	00b8040a 	adcseq	r0, r8, sl, lsl #8
     b44:	01070000 	mrseq	r0, (UNDEF: 7)
     b48:	00003c08 	andeq	r3, r0, r8, lsl #24
     b4c:	00b10b00 	adcseq	r0, r1, r0, lsl #22
     b50:	b20c0000 	andlt	r0, ip, #0
     b54:	04000006 	streq	r0, [r0], #-6
     b58:	00c90e21 	sbceq	r0, r9, r1, lsr #28
     b5c:	040a0000 	streq	r0, [sl], #-0
     b60:	0000009c 	muleq	r0, ip, r0
     b64:	0006740d 	andeq	r7, r6, sp, lsl #8
     b68:	05060100 	streq	r0, [r6, #-256]	; 0xffffff00
     b6c:	00000056 	andeq	r0, r0, r6, asr r0
     b70:	000083a4 	andeq	r8, r0, r4, lsr #7
     b74:	00000058 	andeq	r0, r0, r8, asr r0
     b78:	01629c01 	cmneq	r2, r1, lsl #24
     b7c:	660e0000 	strvs	r0, [lr], -r0
     b80:	0100746d 	tsteq	r0, sp, ror #8
     b84:	00ab1806 	adceq	r1, fp, r6, lsl #16
     b88:	91020000 	mrsls	r0, (UNDEF: 2)
     b8c:	62100f70 	andsvs	r0, r0, #112, 30	; 0x1c0
     b90:	01006675 	tsteq	r0, r5, ror r6
     b94:	01621108 	cmneq	r2, r8, lsl #2
     b98:	03050000 	movweq	r0, #20480	; 0x5000
     b9c:	00009054 	andeq	r9, r0, r4, asr r0
     ba0:	00066c11 	andeq	r6, r6, r1, lsl ip
     ba4:	0d090100 	stfeqs	f0, [r9, #-0]
     ba8:	0000004a 	andeq	r0, r0, sl, asr #32
     bac:	125c9102 	subsne	r9, ip, #-2147483648	; 0x80000000
     bb0:	01007a73 	tsteq	r0, r3, ror sl
     bb4:	00560d0c 	subseq	r0, r6, ip, lsl #26
     bb8:	009c0000 	addseq	r0, ip, r0
     bbc:	00960000 	addseq	r0, r6, r0
     bc0:	cc130000 	ldcgt	0, cr0, [r3], {-0}
     bc4:	73000083 	movwvc	r0, #131	; 0x83
     bc8:	55000001 	strpl	r0, [r0, #-1]
     bcc:	14000001 	strne	r0, [r0], #-1
     bd0:	75025001 	strvc	r5, [r2, #-1]
     bd4:	51011400 	tstpl	r1, r0, lsl #8
     bd8:	04000a03 	streq	r0, [r0], #-2563	; 0xfffff5fd
     bdc:	03520114 	cmpeq	r2, #20, 2
     be0:	14064891 	strne	r4, [r6], #-2193	; 0xfffff76f
     be4:	91025301 	tstls	r2, r1, lsl #6
     be8:	e015004c 	ands	r0, r5, ip, asr #32
     bec:	14000083 	strne	r0, [r0], #-131	; 0xffffff7d
     bf0:	75025001 	strvc	r5, [r2, #-1]
     bf4:	16000000 	strne	r0, [r0], -r0
     bf8:	000000b1 	strheq	r0, [r0], -r1
     bfc:	00000173 	andeq	r0, r0, r3, ror r1
     c00:	00005d17 	andeq	r5, r0, r7, lsl sp
     c04:	0003ff00 	andeq	pc, r3, r0, lsl #30
     c08:	00067118 	andeq	r7, r6, r8, lsl r1
     c0c:	00067100 	andeq	r7, r6, r0, lsl #2
     c10:	05020500 	streq	r0, [r2, #-1280]	; 0xfffffb00
     c14:	0000f300 	andeq	pc, r0, r0, lsl #6
     c18:	d4000400 	strle	r0, [r0], #-1024	; 0xfffffc00
     c1c:	04000003 	streq	r0, [r0], #-3
     c20:	00038a01 	andeq	r8, r3, r1, lsl #20
     c24:	06c30c00 	strbeq	r0, [r3], r0, lsl #24
     c28:	054d0000 	strbeq	r0, [sp, #-0]
     c2c:	83fc0000 	mvnshi	r0, #0
     c30:	00340000 	eorseq	r0, r4, r0
     c34:	04920000 	ldreq	r0, [r2], #0
     c38:	04020000 	streq	r0, [r2], #-0
     c3c:	746e6905 	strbtvc	r6, [lr], #-2309	; 0xfffff6fb
     c40:	07040300 	streq	r0, [r4, -r0, lsl #6]
     c44:	00000086 	andeq	r0, r0, r6, lsl #1
     c48:	35060103 	strcc	r0, [r6, #-259]	; 0xfffffefd
     c4c:	03000000 	movweq	r0, #0
     c50:	01480502 	cmpeq	r8, r2, lsl #10
     c54:	04030000 	streq	r0, [r3], #-0
     c58:	00013f05 	andeq	r3, r1, r5, lsl #30
     c5c:	05080300 	streq	r0, [r8, #-768]	; 0xfffffd00
     c60:	0000013a 	andeq	r0, r0, sl, lsr r1
     c64:	33080103 	movwcc	r0, #33027	; 0x8103
     c68:	03000000 	movweq	r0, #0
     c6c:	00000702 	andeq	r0, r0, r2, lsl #14
     c70:	04030000 	streq	r0, [r3], #-0
     c74:	00008107 	andeq	r8, r0, r7, lsl #2
     c78:	07080300 	streq	r0, [r8, -r0, lsl #6]
     c7c:	0000007c 	andeq	r0, r0, ip, ror r0
     c80:	00002504 	andeq	r2, r0, r4, lsl #10
     c84:	00007a00 	andeq	r7, r0, r0, lsl #20
     c88:	00250500 	eoreq	r0, r5, r0, lsl #10
     c8c:	06000000 	streq	r0, [r0], -r0
     c90:	000006b7 			; <UNDEFINED> instruction: 0x000006b7
     c94:	860e1c02 	strhi	r1, [lr], -r2, lsl #24
     c98:	07000000 	streq	r0, [r0, -r0]
     c9c:	00006b04 	andeq	r6, r0, r4, lsl #22
     ca0:	00250400 	eoreq	r0, r5, r0, lsl #8
     ca4:	009b0000 	addseq	r0, fp, r0
     ca8:	9b050000 	blls	140cb0 <__bss_end__+0x137858>
     cac:	00000000 	andeq	r0, r0, r0
     cb0:	00a80407 	adceq	r0, r8, r7, lsl #8
     cb4:	01030000 	mrseq	r0, (UNDEF: 3)
     cb8:	00003c08 	andeq	r3, r0, r8, lsl #24
     cbc:	00a10800 	adceq	r0, r1, r0, lsl #16
     cc0:	b2060000 	andlt	r0, r6, #0
     cc4:	02000006 	andeq	r0, r0, #6
     cc8:	00b90e21 	adcseq	r0, r9, r1, lsr #28
     ccc:	04070000 	streq	r0, [r7], #-0
     cd0:	0000008c 	andeq	r0, r0, ip, lsl #1
     cd4:	0000ad09 	andeq	sl, r0, r9, lsl #26
     cd8:	070c0100 	streq	r0, [ip, -r0, lsl #2]
     cdc:	90480305 	subls	r0, r8, r5, lsl #6
     ce0:	a90a0000 	stmdbge	sl, {}	; <UNPREDICTABLE>
     ce4:	01000006 	tsteq	r0, r6
     ce8:	00250504 	eoreq	r0, r5, r4, lsl #10
     cec:	83fc0000 	mvnshi	r0, #0
     cf0:	00340000 	eorseq	r0, r4, r0
     cf4:	9c010000 	stcls	0, cr0, [r1], {-0}
     cf8:	0100700b 	tsteq	r0, fp
     cfc:	009b1f04 	addseq	r1, fp, r4, lsl #30
     d00:	00c90000 	sbceq	r0, r9, r0
     d04:	00c50000 	sbceq	r0, r5, r0
     d08:	00000000 	andeq	r0, r0, r0
     d0c:	00000a35 	andeq	r0, r0, r5, lsr sl
     d10:	04720004 	ldrbteq	r0, [r2], #-4
     d14:	01040000 	mrseq	r0, (UNDEF: 4)
     d18:	0000038a 	andeq	r0, r0, sl, lsl #7
     d1c:	0006e20c 	andeq	lr, r6, ip, lsl #4
     d20:	00054d00 	andeq	r4, r5, r0, lsl #26
     d24:	00843000 	addeq	r3, r4, r0
     d28:	00072800 	andeq	r2, r7, r0, lsl #16
     d2c:	00052f00 	andeq	r2, r5, r0, lsl #30
     d30:	05040200 	streq	r0, [r4, #-512]	; 0xfffffe00
     d34:	00746e69 	rsbseq	r6, r4, r9, ror #28
     d38:	86070403 	strhi	r0, [r7], -r3, lsl #8
     d3c:	03000000 	movweq	r0, #0
     d40:	00350601 	eorseq	r0, r5, r1, lsl #12
     d44:	02030000 	andeq	r0, r3, #0
     d48:	00014805 	andeq	r4, r1, r5, lsl #16
     d4c:	05040300 	streq	r0, [r4, #-768]	; 0xfffffd00
     d50:	0000013f 	andeq	r0, r0, pc, lsr r1
     d54:	3a050803 	bcc	142d68 <__bss_end__+0x139910>
     d58:	03000001 	movweq	r0, #1
     d5c:	00330801 	eorseq	r0, r3, r1, lsl #16
     d60:	02030000 	andeq	r0, r3, #0
     d64:	00000007 	andeq	r0, r0, r7
     d68:	07100400 	ldreq	r0, [r0, -r0, lsl #8]
     d6c:	34020000 	strcc	r0, [r2], #-0
     d70:	00006919 	andeq	r6, r0, r9, lsl r9
     d74:	07040300 	streq	r0, [r4, -r0, lsl #6]
     d78:	00000081 	andeq	r0, r0, r1, lsl #1
     d7c:	0006d904 	andeq	sp, r6, r4, lsl #18
     d80:	19370200 	ldmdbne	r7!, {r9}
     d84:	0000007c 	andeq	r0, r0, ip, ror r0
     d88:	7c070803 	stcvc	8, cr0, [r7], {3}
     d8c:	05000000 	streq	r0, [r0, #-0]
     d90:	00000025 	andeq	r0, r0, r5, lsr #32
     d94:	00000092 	muleq	r0, r2, r0
     d98:	00002506 	andeq	r2, r0, r6, lsl #10
     d9c:	b7070000 	strlt	r0, [r7, -r0]
     da0:	03000006 	movweq	r0, #6
     da4:	009e0e1c 	addseq	r0, lr, ip, lsl lr
     da8:	04080000 	streq	r0, [r8], #-0
     dac:	00000083 	andeq	r0, r0, r3, lsl #1
     db0:	00002505 	andeq	r2, r0, r5, lsl #10
     db4:	0000b300 	andeq	fp, r0, r0, lsl #6
     db8:	00b30600 	adcseq	r0, r3, r0, lsl #12
     dbc:	08000000 	stmdaeq	r0, {}	; <UNPREDICTABLE>
     dc0:	0000c004 	andeq	ip, r0, r4
     dc4:	08010300 	stmdaeq	r1, {r8, r9}
     dc8:	0000003c 	andeq	r0, r0, ip, lsr r0
     dcc:	0000b909 	andeq	fp, r0, r9, lsl #18
     dd0:	06b20700 	ldrteq	r0, [r2], r0, lsl #14
     dd4:	21030000 	mrscs	r0, (UNDEF: 3)
     dd8:	0000d10e 	andeq	sp, r0, lr, lsl #2
     ddc:	a4040800 	strge	r0, [r4], #-2048	; 0xfffff800
     de0:	04000000 	streq	r0, [r0], #-0
     de4:	0000067b 	andeq	r0, r0, fp, ror r6
     de8:	e31b2804 	tst	fp, #4, 16	; 0x40000
     dec:	0a000000 	beq	df4 <__code_start__-0x720c>
     df0:	0000069f 	muleq	r0, pc, r6	; <UNPREDICTABLE>
     df4:	fa000504 	blx	220c <__code_start__-0x5df4>
     df8:	0b000000 	bleq	e00 <__code_start__-0x7200>
     dfc:	0000068a 	andeq	r0, r0, sl, lsl #13
     e00:	000000fa 	strdeq	r0, [r0], -sl
     e04:	040c0000 	streq	r0, [ip], #-0
     e08:	0006a104 	andeq	sl, r6, r4, lsl #2
     e0c:	18630400 	stmdane	r3!, {sl}^
     e10:	000000d7 	ldrdeq	r0, [r0], -r7
     e14:	0006710d 	andeq	r7, r6, sp, lsl #2
     e18:	05810100 	streq	r0, [r1, #256]	; 0x100
     e1c:	00000025 	andeq	r0, r0, r5, lsr #32
     e20:	000086c0 	andeq	r8, r0, r0, asr #13
     e24:	00000498 	muleq	r0, r8, r4
     e28:	06759c01 	ldrbteq	r9, [r5], -r1, lsl #24
     e2c:	620e0000 	andvs	r0, lr, #0
     e30:	01006675 	tsteq	r0, r5, ror r6
     e34:	06751581 	ldrbteq	r1, [r5], -r1, lsl #11
     e38:	00ed0000 	rsceq	r0, sp, r0
     e3c:	00e70000 	rsceq	r0, r7, r0
     e40:	6e0e0000 	cdpvs	0, 0, cr0, cr14, cr0, {0}
     e44:	1e810100 	rmfnes	f0, f1, f0
     e48:	00000025 	andeq	r0, r0, r5, lsr #32
     e4c:	0000011f 	andeq	r0, r0, pc, lsl r1
     e50:	00000119 	andeq	r0, r0, r9, lsl r1
     e54:	746d660e 	strbtvc	r6, [sp], #-1550	; 0xfffff9f2
     e58:	2d810100 	stfcss	f0, [r1]
     e5c:	000000b3 	strheq	r0, [r0], -r3
     e60:	00000159 	andeq	r0, r0, r9, asr r1
     e64:	0000014d 	andeq	r0, r0, sp, asr #2
     e68:	00066c0f 	andeq	r6, r6, pc, lsl #24
     e6c:	3a810100 	bcc	fe041274 <__bss_end__+0xfe037e1c>
     e70:	000000fc 	strdeq	r0, [r0], -ip
     e74:	7dd49103 	ldfvcp	f1, [r4, #12]
     e78:	01007010 	tsteq	r0, r0, lsl r0
     e7c:	06750882 	ldrbteq	r0, [r5], -r2, lsl #17
     e80:	01b70000 			; <UNDEFINED> instruction: 0x01b70000
     e84:	01a30000 			; <UNDEFINED> instruction: 0x01a30000
     e88:	65100000 	ldrvs	r0, [r0, #-0]
     e8c:	12820100 	addne	r0, r2, #0, 2
     e90:	00000675 	andeq	r0, r0, r5, ror r6
     e94:	00000239 	andeq	r0, r0, r9, lsr r2
     e98:	00000235 	andeq	r0, r0, r5, lsr r2
     e9c:	00307810 	eorseq	r7, r0, r0, lsl r8
     ea0:	5d0e8301 	stcpl	3, cr8, [lr, #-4]
     ea4:	66000000 	strvs	r0, [r0], -r0
     ea8:	60000002 	andvs	r0, r0, r2
     eac:	11000002 	tstne	r0, r2
     eb0:	01003178 	tsteq	r0, r8, ror r1
     eb4:	005d1183 	subseq	r1, sp, r3, lsl #3
     eb8:	28120000 	ldmdacs	r2, {}	; <UNPREDICTABLE>
     ebc:	01000007 	tsteq	r0, r7
     ec0:	00b31186 	adcseq	r1, r3, r6, lsl #3
     ec4:	02930000 	addseq	r0, r3, #0
     ec8:	028f0000 	addeq	r0, pc, #0
     ecc:	fb130000 	blx	4c0ed6 <__bss_end__+0x4b7a7e>
     ed0:	8b000006 	blhi	ef0 <__code_start__-0x7110>
     ed4:	05000006 	streq	r0, [r0, #-6]
     ed8:	00903003 	addseq	r3, r0, r3
     edc:	872c1400 	strhi	r1, [ip, -r0, lsl #8]!
     ee0:	03e40000 	mvneq	r0, #0
     ee4:	73100000 	tstvc	r0, #0
     ee8:	0a910100 	beq	fe4412f0 <__bss_end__+0xfe437e98>
     eec:	00000675 	andeq	r0, r0, r5, ror r6
     ef0:	000002c9 	andeq	r0, r0, r9, asr #5
     ef4:	000002b3 			; <UNDEFINED> instruction: 0x000002b3
     ef8:	6d756e15 	ldclvs	14, cr6, [r5, #-84]!	; 0xffffffac
     efc:	0d910100 	ldfeqs	f0, [r1]
     f00:	00000690 	muleq	r0, r0, r6
     f04:	7dd89103 	ldfvcp	f1, [r8, #12]
     f08:	00076216 	andeq	r6, r7, r6, lsl r2
     f0c:	17910100 	ldrne	r0, [r1, r0, lsl #2]
     f10:	00000690 	muleq	r0, r0, r6
     f14:	7ed89103 	atnvce	f1, f3
     f18:	0006f512 	andeq	pc, r6, r2, lsl r5	; <UNPREDICTABLE>
     f1c:	0d920100 	ldfeqs	f0, [r2]
     f20:	0000002c 	andeq	r0, r0, ip, lsr #32
     f24:	00000350 	andeq	r0, r0, r0, asr r3
     f28:	0000034a 	andeq	r0, r0, sl, asr #6
     f2c:	0087f017 	addeq	pc, r7, r7, lsl r0	; <UNPREDICTABLE>
     f30:	00018c00 	andeq	r8, r1, r0, lsl #24
     f34:	00049700 	andeq	r9, r4, r0, lsl #14
     f38:	79741000 	ldmdbvc	r4!, {ip}^
     f3c:	1d9e0100 	ldfnes	f0, [lr]
     f40:	000000b3 	strheq	r0, [r0], -r3
     f44:	00000384 	andeq	r0, r0, r4, lsl #7
     f48:	0000037a 	andeq	r0, r0, sl, ror r3
     f4c:	00787811 	rsbseq	r7, r8, r1, lsl r8
     f50:	701aa201 	andsvc	sl, sl, r1, lsl #4
     f54:	18000000 	stmdane	r0, {}	; <UNPREDICTABLE>
     f58:	00008800 	andeq	r8, r0, r0, lsl #16
     f5c:	000009f0 	strdeq	r0, [r0], -r0	; <UNPREDICTABLE>
     f60:	0000026d 	andeq	r0, r0, sp, ror #4
     f64:	02500119 	subseq	r0, r0, #1073741830	; 0x40000006
     f68:	01190076 	tsteq	r9, r6, ror r0
     f6c:	34030551 	strcc	r0, [r3], #-1361	; 0xfffffaaf
     f70:	1900008f 	stmdbne	r0, {r0, r1, r2, r3, r7}
     f74:	33015201 	movwcc	r5, #4609	; 0x1201
     f78:	88181800 	ldmdahi	r8, {fp, ip}
     f7c:	09f00000 	ldmibeq	r0!, {}^	; <UNPREDICTABLE>
     f80:	028f0000 	addeq	r0, pc, #0
     f84:	01190000 	tsteq	r9, r0
     f88:	00760250 	rsbseq	r0, r6, r0, asr r2
     f8c:	05510119 	ldrbeq	r0, [r1, #-281]	; 0xfffffee7
     f90:	008f3803 	addeq	r3, pc, r3, lsl #16
     f94:	52011900 	andpl	r1, r1, #0, 18
     f98:	18003301 	stmdane	r0, {r0, r8, r9, ip, sp}
     f9c:	00008850 	andeq	r8, r0, r0, asr r8
     fa0:	000009f0 	strdeq	r0, [r0], -r0	; <UNPREDICTABLE>
     fa4:	000002b1 			; <UNDEFINED> instruction: 0x000002b1
     fa8:	02500119 	subseq	r0, r0, #1073741830	; 0x40000006
     fac:	01190076 	tsteq	r9, r6, ror r0
     fb0:	34030551 	strcc	r0, [r3], #-1361	; 0xfffffaaf
     fb4:	1900008f 	stmdbne	r0, {r0, r1, r2, r3, r7}
     fb8:	33015201 	movwcc	r5, #4609	; 0x1201
     fbc:	88681800 	stmdahi	r8!, {fp, ip}^
     fc0:	09f00000 	ldmibeq	r0!, {}^	; <UNPREDICTABLE>
     fc4:	02d30000 	sbcseq	r0, r3, #0
     fc8:	01190000 	tsteq	r9, r0
     fcc:	00760250 	rsbseq	r0, r6, r0, asr r2
     fd0:	05510119 	ldrbeq	r0, [r1, #-281]	; 0xfffffee7
     fd4:	008f3803 	addeq	r3, pc, r3, lsl #16
     fd8:	52011900 	andpl	r1, r1, #0, 18
     fdc:	18003301 	stmdane	r0, {r0, r8, r9, ip, sp}
     fe0:	00008890 	muleq	r0, r0, r8
     fe4:	000006a0 	andeq	r0, r0, r0, lsr #13
     fe8:	00000307 	andeq	r0, r0, r7, lsl #6
     fec:	01500119 	cmpeq	r0, r9, lsl r1
     ff0:	5101193a 	tstpl	r1, sl, lsr r9
     ff4:	7dd09103 	ldfvcp	f1, [r0, #12]
     ff8:	02520119 	subseq	r0, r2, #1073741830	; 0x40000006
     ffc:	01198008 	tsteq	r9, r8
    1000:	00770253 	rsbseq	r0, r7, r3, asr r2
    1004:	007d0219 	rsbseq	r0, sp, r9, lsl r2
    1008:	19007502 	stmdbne	r0, {r1, r8, sl, ip, sp, lr}
    100c:	02047d02 	andeq	r7, r4, #2, 26	; 0x80
    1010:	18000076 	stmdane	r0, {r1, r2, r4, r5, r6}
    1014:	000088b0 			; <UNDEFINED> instruction: 0x000088b0
    1018:	000006a0 	andeq	r0, r0, r0, lsr #13
    101c:	0000033b 	andeq	r0, r0, fp, lsr r3
    1020:	01500119 	cmpeq	r0, r9, lsl r1
    1024:	5101193a 	tstpl	r1, sl, lsr r9
    1028:	7ed09103 	atnvcs	f1, f3
    102c:	02520119 	subseq	r0, r2, #1073741830	; 0x40000006
    1030:	01198008 	tsteq	r9, r8
    1034:	007a0253 	rsbseq	r0, sl, r3, asr r2
    1038:	007d0219 	rsbseq	r0, sp, r9, lsl r2
    103c:	19007502 	stmdbne	r0, {r1, r8, sl, ip, sp, lr}
    1040:	02047d02 	andeq	r7, r4, #2, 26	; 0x80
    1044:	18000076 	stmdane	r0, {r1, r2, r4, r5, r6}
    1048:	000088bc 			; <UNDEFINED> instruction: 0x000088bc
    104c:	000009fc 	strdeq	r0, [r0], -ip
    1050:	00000359 	andeq	r0, r0, r9, asr r3
    1054:	03500119 	cmpeq	r0, #1073741830	; 0x40000006
    1058:	197dd091 	ldmdbne	sp!, {r0, r4, r7, ip, lr, pc}^
    105c:	03055101 	movweq	r5, #20737	; 0x5101
    1060:	00008ef8 	strdeq	r8, [r0], -r8	; <UNPREDICTABLE>
    1064:	88d01800 	ldmhi	r0, {fp, ip}^
    1068:	0a080000 	beq	201070 <__bss_end__+0x1f7c18>
    106c:	03750000 	cmneq	r5, #0
    1070:	01190000 	tsteq	r9, r0
    1074:	d0910350 	addsle	r0, r1, r0, asr r3
    1078:	5101197d 	tstpl	r1, sp, ror r9
    107c:	7ed09103 	atnvcs	f1, f3
    1080:	88f41800 	ldmhi	r4!, {fp, ip}^
    1084:	0a140000 	beq	50108c <__bss_end__+0x4f7c34>
    1088:	03ae0000 			; <UNDEFINED> instruction: 0x03ae0000
    108c:	01190000 	tsteq	r9, r0
    1090:	e4030550 	str	r0, [r3], #-1360	; 0xfffffab0
    1094:	1900008e 	stmdbne	r0, {r1, r2, r3, r7}
    1098:	03055101 	movweq	r5, #20737	; 0x5101
    109c:	00008ed0 	ldrdeq	r8, [r0], -r0
    10a0:	05520119 	ldrbeq	r0, [r2, #-281]	; 0xfffffee7
    10a4:	00903003 	addseq	r3, r0, r3
    10a8:	53011900 	movwpl	r1, #6400	; 0x1900
    10ac:	199f0802 	ldmibne	pc, {r1, fp}	; <UNPREDICTABLE>
    10b0:	05007d02 	streq	r7, [r0, #-3330]	; 0xfffff2fe
    10b4:	008f3c03 	addeq	r3, pc, r3, lsl #24
    10b8:	f81a0000 			; <UNDEFINED> instruction: 0xf81a0000
    10bc:	20000088 	andcs	r0, r0, r8, lsl #1
    10c0:	1800000a 	stmdane	r0, {r1, r3}
    10c4:	00008918 	andeq	r8, r0, r8, lsl r9
    10c8:	000006a0 	andeq	r0, r0, r0, lsr #13
    10cc:	000003eb 	andeq	r0, r0, fp, ror #7
    10d0:	01500119 	cmpeq	r0, r9, lsl r1
    10d4:	51011940 	tstpl	r1, r0, asr #18
    10d8:	7dd09103 	ldfvcp	f1, [r0, #12]
    10dc:	02520119 	subseq	r0, r2, #1073741830	; 0x40000006
    10e0:	01198008 	tsteq	r9, r8
    10e4:	00770253 	rsbseq	r0, r7, r3, asr r2
    10e8:	007d0219 	rsbseq	r0, sp, r9, lsl r2
    10ec:	19007502 	stmdbne	r0, {r1, r8, sl, ip, sp, lr}
    10f0:	02047d02 	andeq	r7, r4, #2, 26	; 0x80
    10f4:	18000076 	stmdane	r0, {r1, r2, r4, r5, r6}
    10f8:	00008938 	andeq	r8, r0, r8, lsr r9
    10fc:	000006a0 	andeq	r0, r0, r0, lsr #13
    1100:	0000041f 	andeq	r0, r0, pc, lsl r4
    1104:	01500119 	cmpeq	r0, r9, lsl r1
    1108:	51011940 	tstpl	r1, r0, asr #18
    110c:	7ed09103 	atnvcs	f1, f3
    1110:	02520119 	subseq	r0, r2, #1073741830	; 0x40000006
    1114:	01198008 	tsteq	r9, r8
    1118:	007a0253 	rsbseq	r0, sl, r3, asr r2
    111c:	007d0219 	rsbseq	r0, sp, r9, lsl r2
    1120:	19007502 	stmdbne	r0, {r1, r8, sl, ip, sp, lr}
    1124:	02047d02 	andeq	r7, r4, #2, 26	; 0x80
    1128:	18000076 	stmdane	r0, {r1, r2, r4, r5, r6}
    112c:	00008944 	andeq	r8, r0, r4, asr #18
    1130:	00000a2c 	andeq	r0, r0, ip, lsr #20
    1134:	0000043b 	andeq	r0, r0, fp, lsr r4
    1138:	03500119 	cmpeq	r0, #1073741830	; 0x40000006
    113c:	197dd091 	ldmdbne	sp!, {r0, r4, r7, ip, lr, pc}^
    1140:	91035101 	tstls	r3, r1, lsl #2
    1144:	18007ed2 	stmdane	r0, {r1, r4, r6, r7, r9, sl, fp, ip, sp, lr}
    1148:	00008958 	andeq	r8, r0, r8, asr r9
    114c:	00000a2c 	andeq	r0, r0, ip, lsr #20
    1150:	00000457 	andeq	r0, r0, r7, asr r4
    1154:	03500119 	cmpeq	r0, #1073741830	; 0x40000006
    1158:	197dd091 	ldmdbne	sp!, {r0, r4, r7, ip, lr, pc}^
    115c:	91035101 	tstls	r3, r1, lsl #2
    1160:	18007ed0 	stmdane	r0, {r4, r6, r7, r9, sl, fp, ip, sp, lr}
    1164:	00008978 	andeq	r8, r0, r8, ror r9
    1168:	00000a14 	andeq	r0, r0, r4, lsl sl
    116c:	0000048d 	andeq	r0, r0, sp, lsl #9
    1170:	05500119 	ldrbeq	r0, [r0, #-281]	; 0xfffffee7
    1174:	008f7803 	addeq	r7, pc, r3, lsl #16
    1178:	51011900 	tstpl	r1, r0, lsl #18
    117c:	8ed00305 	cdphi	3, 13, cr0, cr0, cr5, {0}
    1180:	01190000 	tsteq	r9, r0
    1184:	30030552 	andcc	r0, r3, r2, asr r5
    1188:	19000090 	stmdbne	r0, {r4, r7}
    118c:	08025301 	stmdaeq	r2, {r0, r8, r9, ip, lr}
    1190:	7d0219b6 	vstrvc.16	s2, [r2, #-364]	; 0xfffffe94	; <UNPREDICTABLE>
    1194:	00760200 	rsbseq	r0, r6, r0, lsl #4
    1198:	897c1a00 	ldmdbhi	ip!, {r9, fp, ip}^
    119c:	0a200000 	beq	8011a4 <__bss_end__+0x7f7d4c>
    11a0:	18000000 	stmdane	r0, {}	; <UNPREDICTABLE>
    11a4:	00008754 	andeq	r8, r0, r4, asr r7
    11a8:	0000091e 	andeq	r0, r0, lr, lsl r9
    11ac:	000004ab 	andeq	r0, r0, fp, lsr #9
    11b0:	02500119 	subseq	r0, r0, #1073741830	; 0x40000006
    11b4:	18000077 	stmdane	r0, {r0, r1, r2, r4, r5, r6}
    11b8:	000087ec 	andeq	r8, r0, ip, ror #15
    11bc:	00000a14 	andeq	r0, r0, r4, lsl sl
    11c0:	000004e4 	andeq	r0, r0, r4, ror #9
    11c4:	05500119 	ldrbeq	r0, [r0, #-281]	; 0xfffffee7
    11c8:	008ee403 	addeq	lr, lr, r3, lsl #8
    11cc:	51011900 	tstpl	r1, r0, lsl #18
    11d0:	8ed00305 	cdphi	3, 13, cr0, cr0, cr5, {0}
    11d4:	01190000 	tsteq	r9, r0
    11d8:	30030552 	andcc	r0, r3, r2, asr r5
    11dc:	19000090 	stmdbne	r0, {r4, r7}
    11e0:	08025301 	stmdaeq	r2, {r0, r8, r9, ip, lr}
    11e4:	7d021998 	vstrvc.16	s2, [r2, #-304]	; 0xfffffed0	; <UNPREDICTABLE>
    11e8:	28030500 	stmdacs	r3, {r8, sl}
    11ec:	0000008f 	andeq	r0, r0, pc, lsl #1
    11f0:	0087f01a 	addeq	pc, r7, sl, lsl r0	; <UNPREDICTABLE>
    11f4:	000a2000 	andeq	r2, sl, r0
    11f8:	89901800 	ldmibhi	r0, {fp, ip}
    11fc:	0a140000 	beq	501204 <__bss_end__+0x4f7dac>
    1200:	051c0000 	ldreq	r0, [ip, #-0]
    1204:	01190000 	tsteq	r9, r0
    1208:	a0030550 	andge	r0, r3, r0, asr r5
    120c:	1900008f 	stmdbne	r0, {r0, r1, r2, r3, r7}
    1210:	03055101 	movweq	r5, #20737	; 0x5101
    1214:	00008ed0 	ldrdeq	r8, [r0], -r0
    1218:	05520119 	ldrbeq	r0, [r2, #-281]	; 0xfffffee7
    121c:	00903003 	addseq	r3, r0, r3
    1220:	53011900 	movwpl	r1, #6400	; 0x1900
    1224:	00be0802 	adcseq	r0, lr, r2, lsl #16
    1228:	0089941a 	addeq	r9, r9, sl, lsl r4
    122c:	000a2000 	andeq	r2, sl, r0
    1230:	89c01800 	stmibhi	r0, {fp, ip}^
    1234:	06a00000 	strteq	r0, [r0], r0
    1238:	05520000 	ldrbeq	r0, [r2, #-0]
    123c:	01190000 	tsteq	r9, r0
    1240:	193a0150 	ldmdbne	sl!, {r4, r6, r8}
    1244:	91035101 	tstls	r3, r1, lsl #2
    1248:	01197dd0 			; <UNDEFINED> instruction: 0x01197dd0
    124c:	80080252 	andhi	r0, r8, r2, asr r2
    1250:	007d0219 	rsbseq	r0, sp, r9, lsl r2
    1254:	19007502 	stmdbne	r0, {r1, r8, sl, ip, sp, lr}
    1258:	01047d02 	tsteq	r4, r2, lsl #26
    125c:	f8180031 			; <UNDEFINED> instruction: 0xf8180031
    1260:	a0000089 	andge	r0, r0, r9, lsl #1
    1264:	7f000006 	svcvc	0x00000006
    1268:	19000005 	stmdbne	r0, {r0, r2}
    126c:	3a015001 	bcc	55278 <__bss_end__+0x4be20>
    1270:	03510119 	cmpeq	r1, #1073741830	; 0x40000006
    1274:	197dd091 	ldmdbne	sp!, {r0, r4, r7, ip, lr, pc}^
    1278:	08025201 	stmdaeq	r2, {r0, r9, ip, lr}
    127c:	7d021980 	vstrvc.16	s2, [r2, #-256]	; 0xffffff00	; <UNPREDICTABLE>
    1280:	00750200 	rsbseq	r0, r5, r0, lsl #4
    1284:	047d0219 	ldrbteq	r0, [sp], #-537	; 0xfffffde7
    1288:	18003001 	stmdane	r0, {r0, ip, sp}
    128c:	00008a2c 	andeq	r8, r0, ip, lsr #20
    1290:	000006a0 	andeq	r0, r0, r0, lsr #13
    1294:	000005ac 	andeq	r0, r0, ip, lsr #11
    1298:	01500119 	cmpeq	r0, r9, lsl r1
    129c:	51011940 	tstpl	r1, r0, asr #18
    12a0:	7dd09103 	ldfvcp	f1, [r0, #12]
    12a4:	02520119 	subseq	r0, r2, #1073741830	; 0x40000006
    12a8:	02198008 	andseq	r8, r9, #8
    12ac:	7502007d 	strvc	r0, [r2, #-125]	; 0xffffff83
    12b0:	7d021900 	vstrvc.16	s2, [r2, #-0]	; <UNPREDICTABLE>
    12b4:	00300104 	eorseq	r0, r0, r4, lsl #2
    12b8:	008a6018 	addeq	r6, sl, r8, lsl r0
    12bc:	0006a000 	andeq	sl, r6, r0
    12c0:	0005d900 	andeq	sp, r5, r0, lsl #18
    12c4:	50011900 	andpl	r1, r1, r0, lsl #18
    12c8:	01193201 	tsteq	r9, r1, lsl #4
    12cc:	d0910351 	addsle	r0, r1, r1, asr r3
    12d0:	5201197d 	andpl	r1, r1, #2048000	; 0x1f4000
    12d4:	19800802 	stmibne	r0, {r1, fp}
    12d8:	02007d02 	andeq	r7, r0, #2, 26	; 0x80
    12dc:	02190075 	andseq	r0, r9, #117	; 0x75
    12e0:	3001047d 	andcc	r0, r1, sp, ror r4
    12e4:	8aa81800 	bhi	fea072ec <__bss_end__+0xfe9fde94>
    12e8:	06a00000 	strteq	r0, [r0], r0
    12ec:	06060000 	streq	r0, [r6], -r0
    12f0:	01190000 	tsteq	r9, r0
    12f4:	19380150 	ldmdbne	r8!, {r4, r6, r8}
    12f8:	91035101 	tstls	r3, r1, lsl #2
    12fc:	01197dd0 			; <UNDEFINED> instruction: 0x01197dd0
    1300:	80080252 	andhi	r0, r8, r2, asr r2
    1304:	007d0219 	rsbseq	r0, sp, r9, lsl r2
    1308:	19007502 	stmdbne	r0, {r1, r8, sl, ip, sp, lr}
    130c:	01047d02 	tsteq	r4, r2, lsl #26
    1310:	c8180030 	ldmdagt	r8, {r4, r5}
    1314:	1400008a 	strne	r0, [r0], #-138	; 0xffffff76
    1318:	2900000a 	stmdbcs	r0, {r1, r3}
    131c:	19000006 	stmdbne	r0, {r1, r2}
    1320:	03055001 	movweq	r5, #20481	; 0x5001
    1324:	00008fc8 	andeq	r8, r0, r8, asr #31
    1328:	02510119 	subseq	r0, r1, #1073741830	; 0x40000006
    132c:	01190077 	tsteq	r9, r7, ror r0
    1330:	00770252 	rsbseq	r0, r7, r2, asr r2
    1334:	8ad81b00 	bhi	ff607f3c <__bss_end__+0xff5feae4>
    1338:	063b0000 	ldrteq	r0, [fp], -r0
    133c:	01190000 	tsteq	r9, r0
    1340:	c8910450 	ldmgt	r1, {r4, r6, sl}
    1344:	1800067d 	stmdane	r0, {r0, r2, r3, r4, r5, r6, r9, sl}
    1348:	00008aec 	andeq	r8, r0, ip, ror #21
    134c:	00000a14 	andeq	r0, r0, r4, lsl sl
    1350:	0000066a 	andeq	r0, r0, sl, ror #12
    1354:	05500119 	ldrbeq	r0, [r0, #-281]	; 0xfffffee7
    1358:	008ff803 	addeq	pc, pc, r3, lsl #16
    135c:	51011900 	tstpl	r1, r0, lsl #18
    1360:	8ed00305 	cdphi	3, 13, cr0, cr0, cr5, {0}
    1364:	01190000 	tsteq	r9, r0
    1368:	30030552 	andcc	r0, r3, r2, asr r5
    136c:	19000090 	stmdbne	r0, {r4, r7}
    1370:	08025301 	stmdaeq	r2, {r0, r8, r9, ip, lr}
    1374:	f01a00e2 			; <UNDEFINED> instruction: 0xf01a00e2
    1378:	2000008a 	andcs	r0, r0, sl, lsl #1
    137c:	0000000a 	andeq	r0, r0, sl
    1380:	b9040800 	stmdblt	r4, {fp}
    1384:	1c000000 	stcne	0, cr0, [r0], {-0}
    1388:	000000c0 	andeq	r0, r0, r0, asr #1
    138c:	0000068b 	andeq	r0, r0, fp, lsl #13
    1390:	00002c1d 	andeq	r2, r0, sp, lsl ip
    1394:	09000900 	stmdbeq	r0, {r8, fp}
    1398:	0000067b 	andeq	r0, r0, fp, ror r6
    139c:	0000b91c 	andeq	fp, r0, ip, lsl r9
    13a0:	0006a000 	andeq	sl, r6, r0
    13a4:	002c1d00 	eoreq	r1, ip, r0, lsl #26
    13a8:	007f0000 	rsbseq	r0, pc, r0
    13ac:	0007461e 	andeq	r4, r7, lr, lsl r6
    13b0:	01490100 	mrseq	r0, (UNDEF: 89)
    13b4:	00000675 	andeq	r0, r0, r5, ror r6
    13b8:	000084a8 	andeq	r8, r0, r8, lsr #9
    13bc:	000001b4 			; <UNDEFINED> instruction: 0x000001b4
    13c0:	08099c01 	stmdaeq	r9, {r0, sl, fp, ip, pc}
    13c4:	6f1f0000 	svcvs	0x001f0000
    13c8:	01000007 	tsteq	r0, r7
    13cc:	002c0f49 	eoreq	r0, ip, r9, asr #30
    13d0:	03cd0000 	biceq	r0, sp, #0
    13d4:	03c70000 	biceq	r0, r7, #0
    13d8:	640e0000 	strvs	r0, [lr], #-0
    13dc:	01007473 	tsteq	r0, r3, ror r4
    13e0:	06751b49 	ldrbteq	r1, [r5], -r9, asr #22
    13e4:	040b0000 	streq	r0, [fp], #-0
    13e8:	03fb0000 	mvnseq	r0, #0
    13ec:	6e0e0000 	cdpvs	0, 0, cr0, cr14, cr0, {0}
    13f0:	24490100 	strbcs	r0, [r9], #-256	; 0xffffff00
    13f4:	00000025 	andeq	r0, r0, r5, lsr #32
    13f8:	0000046f 	andeq	r0, r0, pc, ror #8
    13fc:	0000046b 	andeq	r0, r0, fp, ror #8
    1400:	6c61760e 	stclvs	6, cr7, [r1], #-56	; 0xffffffc8
    1404:	2b490100 	blcs	124180c <__bss_end__+0x12383b4>
    1408:	00000025 	andeq	r0, r0, r5, lsr #32
    140c:	00000499 	muleq	r0, r9, r4
    1410:	0000048d 	andeq	r0, r0, sp, lsl #9
    1414:	0006f51f 	andeq	pc, r6, pc, lsl r5	; <UNPREDICTABLE>
    1418:	34490100 	strbcc	r0, [r9], #-256	; 0xffffff00
    141c:	00000025 	andeq	r0, r0, r5, lsr #32
    1420:	000004ef 	andeq	r0, r0, pc, ror #9
    1424:	000004e9 	andeq	r0, r0, r9, ror #9
    1428:	0007740f 	andeq	r7, r7, pc, lsl #8
    142c:	3f490100 	svccc	0x00490100
    1430:	00000025 	andeq	r0, r0, r5, lsr #32
    1434:	15049102 	strne	r9, [r4, #-258]	; 0xfffffefe
    1438:	00667562 	rsbeq	r7, r6, r2, ror #10
    143c:	09074e01 	stmdbeq	r7, {r0, r9, sl, fp, lr}
    1440:	03000008 	movweq	r0, #8
    1444:	107fa891 			; <UNDEFINED> instruction: 0x107fa891
    1448:	4e010070 	mcrmi	0, 0, r0, cr1, cr0, {3}
    144c:	00067511 	andeq	r7, r6, r1, lsl r5
    1450:	00053700 	andeq	r3, r5, r0, lsl #14
    1454:	00051900 	andeq	r1, r5, r0, lsl #18
    1458:	00751000 	rsbseq	r1, r5, r0
    145c:	2c0b4f01 	stccs	15, cr4, [fp], {1}
    1460:	12000000 	andne	r0, r0, #0
    1464:	fe000006 	cdp2	0, 0, cr0, cr0, cr6, {0}
    1468:	13000005 	movwne	r0, #5
    146c:	000006fb 	strdeq	r0, [r0], -fp
    1470:	00000829 	andeq	r0, r0, r9, lsr #16
    1474:	90180305 	andsls	r0, r8, r5, lsl #6
    1478:	14170000 	ldrne	r0, [r7], #-0
    147c:	78000085 	stmdavc	r0, {r0, r2, r7}
    1480:	90000000 	andls	r0, r0, r0
    1484:	12000007 	andne	r0, r0, #7
    1488:	00000740 	andeq	r0, r0, r0, asr #14
    148c:	2c0d5401 	cfstrscs	mvf5, [sp], {1}
    1490:	93000000 	movwls	r0, #0
    1494:	8b000006 	blhi	14b4 <__code_start__-0x6b4c>
    1498:	00000006 	andeq	r0, r0, r6
    149c:	0085cc18 	addeq	ip, r5, r8, lsl ip
    14a0:	0008bb00 	andeq	fp, r8, r0, lsl #22
    14a4:	0007a500 	andeq	sl, r7, r0, lsl #10
    14a8:	51011900 	tstpl	r1, r0, lsl #18
    14ac:	7fa09103 	svcvc	0x00a09103
    14b0:	85e01800 	strbhi	r1, [r0, #2048]!	; 0x800
    14b4:	082e0000 	stmdaeq	lr!, {}	; <UNPREDICTABLE>
    14b8:	07c60000 	strbeq	r0, [r6, r0]
    14bc:	01190000 	tsteq	r9, r0
    14c0:	00750250 	rsbseq	r0, r5, r0, asr r2
    14c4:	02510119 	subseq	r0, r1, #1073741830	; 0x40000006
    14c8:	01190074 	tsteq	r9, r4, ror r0
    14cc:	a0910353 	addsge	r0, r1, r3, asr r3
    14d0:	3818007f 	ldmdacc	r8, {r0, r1, r2, r3, r4, r5, r6}
    14d4:	14000086 	strne	r0, [r0], #-134	; 0xffffff7a
    14d8:	ff00000a 			; <UNDEFINED> instruction: 0xff00000a
    14dc:	19000007 	stmdbne	r0, {r0, r1, r2}
    14e0:	03055001 	movweq	r5, #20481	; 0x5001
    14e4:	00008ee4 	andeq	r8, r0, r4, ror #29
    14e8:	05510119 	ldrbeq	r0, [r1, #-281]	; 0xfffffee7
    14ec:	008ed003 	addeq	sp, lr, r3
    14f0:	52011900 	andpl	r1, r1, #0, 18
    14f4:	90180305 	andsls	r0, r8, r5, lsl #6
    14f8:	01190000 	tsteq	r9, r0
    14fc:	79080253 	stmdbvc	r8, {r0, r1, r4, r6, r9}
    1500:	007d0219 	rsbseq	r0, sp, r9, lsl r2
    1504:	8ef80305 	cdphi	3, 15, cr0, cr8, cr5, {0}
    1508:	1a000000 	bne	1510 <__code_start__-0x6af0>
    150c:	0000863c 	andeq	r8, r0, ip, lsr r6
    1510:	00000a20 	andeq	r0, r0, r0, lsr #20
    1514:	00b91c00 	adcseq	r1, r9, r0, lsl #24
    1518:	08190000 	ldmdaeq	r9, {}	; <UNPREDICTABLE>
    151c:	2c1d0000 	ldccs	0, cr0, [sp], {-0}
    1520:	3f000000 	svccc	0x00000000
    1524:	00c01c00 	sbceq	r1, r0, r0, lsl #24
    1528:	08290000 	stmdaeq	r9!, {}	; <UNPREDICTABLE>
    152c:	2c1d0000 	ldccs	0, cr0, [sp], {-0}
    1530:	04000000 	streq	r0, [r0], #-0
    1534:	08190900 	ldmdaeq	r9, {r8, fp}
    1538:	531e0000 	tstpl	lr, #0
    153c:	01000007 	tsteq	r0, r7
    1540:	06750e38 			; <UNDEFINED> instruction: 0x06750e38
    1544:	846c0000 	strbthi	r0, [ip], #-0
    1548:	003c0000 	eorseq	r0, ip, r0
    154c:	9c010000 	stcls	0, cr0, [r1], {-0}
    1550:	000008bb 			; <UNDEFINED> instruction: 0x000008bb
    1554:	7473640e 	ldrbtvc	r6, [r3], #-1038	; 0xfffffbf2
    1558:	1c380100 	ldfnes	f0, [r8], #-0
    155c:	00000675 	andeq	r0, r0, r5, ror r6
    1560:	000006d4 	ldrdeq	r0, [r0], -r4
    1564:	000006ca 	andeq	r0, r0, sl, asr #13
    1568:	01006e0e 	tsteq	r0, lr, lsl #28
    156c:	00252538 	eoreq	r2, r5, r8, lsr r5
    1570:	071b0000 	ldreq	r0, [fp, -r0]
    1574:	07170000 	ldreq	r0, [r7, -r0]
    1578:	700e0000 	andvc	r0, lr, r0
    157c:	2e380100 	rsfcse	f0, f0, f0
    1580:	00000675 	andeq	r0, r0, r5, ror r6
    1584:	00000744 	andeq	r0, r0, r4, asr #14
    1588:	0000073c 	andeq	r0, r0, ip, lsr r7
    158c:	00072c1f 	andeq	r2, r7, pc, lsl ip
    1590:	37380100 	ldrcc	r0, [r8, -r0, lsl #2]!
    1594:	00000675 	andeq	r0, r0, r5, ror r6
    1598:	0000077e 	andeq	r0, r0, lr, ror r7
    159c:	0000077a 	andeq	r0, r0, sl, ror r7
    15a0:	6e656c10 	mcrvs	12, 3, r6, cr5, cr0, {0}
    15a4:	063a0100 	ldrteq	r0, [sl], -r0, lsl #2
    15a8:	00000025 	andeq	r0, r0, r5, lsr #32
    15ac:	000007a6 	andeq	r0, r0, r6, lsr #15
    15b0:	0000079c 	muleq	r0, ip, r7
    15b4:	01007310 	tsteq	r0, r0, lsl r3
    15b8:	0675083e 			; <UNDEFINED> instruction: 0x0675083e
    15bc:	08070000 	stmdaeq	r7, {}	; <UNPREDICTABLE>
    15c0:	08050000 	stmdaeq	r5, {}	; <UNPREDICTABLE>
    15c4:	20000000 	andcs	r0, r0, r0
    15c8:	00646170 	rsbeq	r6, r4, r0, ror r1
    15cc:	750e2e01 	strvc	r2, [lr, #-3585]	; 0xfffff1ff
    15d0:	44000006 	strmi	r0, [r0], #-6
    15d4:	28000084 	stmdacs	r0, {r2, r7}
    15d8:	01000000 	mrseq	r0, (UNDEF: 0)
    15dc:	00091e9c 	muleq	r9, ip, lr
    15e0:	00700e00 	rsbseq	r0, r0, r0, lsl #28
    15e4:	75182e01 	ldrvc	r2, [r8, #-3585]	; 0xfffff1ff
    15e8:	20000006 	andcs	r0, r0, r6
    15ec:	1a000008 	bne	1614 <__code_start__-0x69ec>
    15f0:	1f000008 	svcne	0x00000008
    15f4:	0000076f 	andeq	r0, r0, pc, ror #14
    15f8:	75222e01 	strvc	r2, [r2, #-3585]!	; 0xfffff1ff
    15fc:	4f000006 	svcmi	0x00000006
    1600:	4b000008 	blmi	1628 <__code_start__-0x69d8>
    1604:	0f000008 	svceq	0x00000008
    1608:	000006f5 	strdeq	r0, [r0], -r5
    160c:	252c2e01 	strcs	r2, [ip, #-3585]!	; 0xfffff1ff
    1610:	01000000 	mrseq	r0, (UNDEF: 0)
    1614:	656c1052 	strbvs	r1, [ip, #-82]!	; 0xffffffae
    1618:	2f01006e 	svccs	0x0001006e
    161c:	00002506 	andeq	r2, r0, r6, lsl #10
    1620:	00087200 	andeq	r7, r8, r0, lsl #4
    1624:	00087000 	andeq	r7, r8, r0
    1628:	d11e0000 	tstle	lr, r0
    162c:	01000006 	tsteq	r0, r6
    1630:	00250c27 	eoreq	r0, r5, r7, lsr #24
    1634:	84300000 	ldrthi	r0, [r0], #-0
    1638:	00140000 	andseq	r0, r4, r0
    163c:	9c010000 	stcls	0, cr0, [r1], {-0}
    1640:	0000094b 	andeq	r0, r0, fp, asr #18
    1644:	0100630e 	tsteq	r0, lr, lsl #6
    1648:	00251827 	eoreq	r1, r5, r7, lsr #16
    164c:	088b0000 	stmeq	fp, {}	; <UNPREDICTABLE>
    1650:	08850000 	stmeq	r5, {}	; <UNPREDICTABLE>
    1654:	21000000 	mrscs	r0, (UNDEF: 0)
    1658:	00000719 	andeq	r0, r0, r9, lsl r7
    165c:	5c061f01 	stcpl	15, cr1, [r6], {1}
    1660:	64000086 	strvs	r0, [r0], #-134	; 0xffffff7a
    1664:	01000000 	mrseq	r0, (UNDEF: 0)
    1668:	0009db9c 	muleq	r9, ip, fp
    166c:	07081f00 	streq	r1, [r8, -r0, lsl #30]
    1670:	1f010000 	svcne	0x00010000
    1674:	00009e1b 	andeq	r9, r0, fp, lsl lr
    1678:	0008bd00 	andeq	fp, r8, r0, lsl #26
    167c:	0008b900 	andeq	fp, r8, r0, lsl #18
    1680:	074b1f00 	strbeq	r1, [fp, -r0, lsl #30]
    1684:	1f010000 	svcne	0x00010000
    1688:	0000d130 	andeq	sp, r0, r0, lsr r1
    168c:	0008e200 	andeq	lr, r8, r0, lsl #4
    1690:	0008de00 	andeq	sp, r8, r0, lsl #28
    1694:	06fb1300 	ldrbteq	r1, [fp], r0, lsl #6
    1698:	09eb0000 	stmibeq	fp!, {}^	; <UNPREDICTABLE>
    169c:	03050000 	movweq	r0, #20480	; 0x5000
    16a0:	00009020 	andeq	r9, r0, r0, lsr #32
    16a4:	0086a418 	addeq	sl, r6, r8, lsl r4
    16a8:	000a1400 	andeq	r1, sl, r0, lsl #8
    16ac:	0009d100 	andeq	sp, r9, r0, lsl #2
    16b0:	50011900 	andpl	r1, r1, r0, lsl #18
    16b4:	8ee40305 	cdphi	3, 14, cr0, cr4, cr5, {0}
    16b8:	01190000 	tsteq	r9, r0
    16bc:	d0030551 	andle	r0, r3, r1, asr r5
    16c0:	1900008e 	stmdbne	r0, {r1, r2, r3, r7}
    16c4:	03055201 	movweq	r5, #20993	; 0x5201
    16c8:	00009020 	andeq	r9, r0, r0, lsr #32
    16cc:	02530119 	subseq	r0, r3, #1073741830	; 0x40000006
    16d0:	02192008 	andseq	r2, r9, #8
    16d4:	0305007d 	movweq	r0, #20605	; 0x507d
    16d8:	00008f20 	andeq	r8, r0, r0, lsr #30
    16dc:	86a81a00 	strthi	r1, [r8], r0, lsl #20
    16e0:	0a200000 	beq	8016e8 <__bss_end__+0x7f8290>
    16e4:	1c000000 	stcne	0, cr0, [r0], {-0}
    16e8:	000000c0 	andeq	r0, r0, r0, asr #1
    16ec:	000009eb 	andeq	r0, r0, fp, ror #19
    16f0:	00002c1d 	andeq	r2, r0, sp, lsl ip
    16f4:	09000e00 	stmdbeq	r0, {r9, sl, fp}
    16f8:	000009db 	ldrdeq	r0, [r0], -fp
    16fc:	00076722 	andeq	r6, r7, r2, lsr #14
    1700:	00076700 	andeq	r6, r7, r0, lsl #14
    1704:	05eb0300 	strbeq	r0, [fp, #768]!	; 0x300
    1708:	00075b22 	andeq	r5, r7, r2, lsr #22
    170c:	00075b00 	andeq	r5, r7, r0, lsl #22
    1710:	05ea0300 	strbeq	r0, [sl, #768]!	; 0x300
    1714:	00073922 	andeq	r3, r7, r2, lsr #18
    1718:	00073900 	andeq	r3, r7, r0, lsl #18
    171c:	07ed0300 	strbeq	r0, [sp, r0, lsl #6]!
    1720:	00067422 	andeq	r7, r6, r2, lsr #8
    1724:	00067400 	andeq	r7, r6, r0, lsl #8
    1728:	06280300 	strteq	r0, [r8], -r0, lsl #6
    172c:	00004122 	andeq	r4, r0, r2, lsr #2
    1730:	00004100 	andeq	r4, r0, r0, lsl #2
    1734:	066e0300 	strbteq	r0, [lr], -r0, lsl #6
    1738:	00073222 	andeq	r3, r7, r2, lsr #4
    173c:	00073200 	andeq	r3, r7, r0, lsl #4
    1740:	07ee0300 	strbeq	r0, [lr, r0, lsl #6]!
    1744:	00010e00 	andeq	r0, r1, r0, lsl #28
    1748:	7c000400 	cfstrsvc	mvf0, [r0], {-0}
    174c:	04000006 	streq	r0, [r0], #-6
    1750:	00038a01 	andeq	r8, r3, r1, lsl #20
    1754:	07910c00 	ldreq	r0, [r1, r0, lsl #24]
    1758:	054d0000 	strbeq	r0, [sp, #-0]
    175c:	8b580000 	blhi	1601764 <__bss_end__+0x15f830c>
    1760:	002c0000 	eoreq	r0, ip, r0
    1764:	0af30000 	beq	ffcc176c <__bss_end__+0xffcb8314>
    1768:	04020000 	streq	r0, [r2], #-0
    176c:	746e6905 	strbtvc	r6, [lr], #-2309	; 0xfffff6fb
    1770:	07040300 	streq	r0, [r4, -r0, lsl #6]
    1774:	00000086 	andeq	r0, r0, r6, lsl #1
    1778:	35060103 	strcc	r0, [r6, #-259]	; 0xfffffefd
    177c:	03000000 	movweq	r0, #0
    1780:	01480502 	cmpeq	r8, r2, lsl #10
    1784:	04030000 	streq	r0, [r3], #-0
    1788:	00013f05 	andeq	r3, r1, r5, lsl #30
    178c:	05080300 	streq	r0, [r8, #-768]	; 0xfffffd00
    1790:	0000013a 	andeq	r0, r0, sl, lsr r1
    1794:	33080103 	movwcc	r0, #33027	; 0x8103
    1798:	03000000 	movweq	r0, #0
    179c:	00000702 	andeq	r0, r0, r2, lsl #14
    17a0:	04030000 	streq	r0, [r3], #-0
    17a4:	00008107 	andeq	r8, r0, r7, lsl #2
    17a8:	07080300 	streq	r0, [r8, -r0, lsl #6]
    17ac:	0000007c 	andeq	r0, r0, ip, ror r0
    17b0:	00002504 	andeq	r2, r0, r4, lsl #10
    17b4:	00007a00 	andeq	r7, r0, r0, lsl #20
    17b8:	007a0500 	rsbseq	r0, sl, r0, lsl #10
    17bc:	06000000 	streq	r0, [r0], -r0
    17c0:	00008704 	andeq	r8, r0, r4, lsl #14
    17c4:	08010300 	stmdaeq	r1, {r8, r9}
    17c8:	0000003c 	andeq	r0, r0, ip, lsr r0
    17cc:	00008007 	andeq	r8, r0, r7
    17d0:	06b20800 	ldrteq	r0, [r2], r0, lsl #16
    17d4:	21020000 	mrscs	r0, (UNDEF: 2)
    17d8:	0000980e 	andeq	r9, r0, lr, lsl #16
    17dc:	6b040600 	blvs	102fe4 <__bss_end__+0xf9b8c>
    17e0:	09000000 	stmdbeq	r0, {}	; <UNPREDICTABLE>
    17e4:	00000041 	andeq	r0, r0, r1, asr #32
    17e8:	58060401 	stmdapl	r6, {r0, sl}
    17ec:	2c00008b 	stccs	0, cr0, [r0], {139}	; 0x8b
    17f0:	01000000 	mrseq	r0, (UNDEF: 0)
    17f4:	0000ed9c 	muleq	r0, ip, sp
    17f8:	8b6c0a00 	blhi	1b04000 <__bss_end__+0x1afaba8>
    17fc:	00c70000 	sbceq	r0, r7, r0
    1800:	010b0000 	mrseq	r0, (UNDEF: 11)
    1804:	3c030550 	cfstr32cc	mvfx0, [r3], {80}	; 0x50
    1808:	00000090 	muleq	r0, r0, r0
    180c:	008b700c 	addeq	r7, fp, ip
    1810:	0000ed00 	andeq	lr, r0, r0, lsl #26
    1814:	8b780d00 	blhi	1e04c1c <__bss_end__+0x1dfb7c4>
    1818:	00f90000 	rscseq	r0, r9, r0
    181c:	00e30000 	rsceq	r0, r3, r0
    1820:	010b0000 	mrseq	r0, (UNDEF: 11)
    1824:	003a0150 	eorseq	r0, sl, r0, asr r1
    1828:	008b7c0c 	addeq	r7, fp, ip, lsl #24
    182c:	00010500 	andeq	r0, r1, r0, lsl #10
    1830:	190e0000 	stmdbne	lr, {}	; <UNPREDICTABLE>
    1834:	19000005 	stmdbne	r0, {r0, r2}
    1838:	02000005 	andeq	r0, r0, #5
    183c:	880e064d 	stmdahi	lr, {r0, r2, r3, r6, r9, sl}
    1840:	88000007 	stmdahi	r0, {r0, r1, r2}
    1844:	02000007 	andeq	r0, r0, #7
    1848:	7d0e0658 	stcvc	6, cr0, [lr, #-352]	; 0xfffffea0
    184c:	7d000007 	stcvc	0, cr0, [r0, #-28]	; 0xffffffe4
    1850:	02000007 	andeq	r0, r0, #7
    1854:	3c00066b 	stccc	6, cr0, [r0], {107}	; 0x6b
    1858:	04000001 	streq	r0, [r0], #-1
    185c:	00073c00 	andeq	r3, r7, r0, lsl #24
    1860:	8a010400 	bhi	42868 <__bss_end__+0x39410>
    1864:	0c000003 	stceq	0, cr0, [r0], {3}
    1868:	000007d8 	ldrdeq	r0, [r0], -r8
    186c:	0000054d 	andeq	r0, r0, sp, asr #10
    1870:	00008b84 	andeq	r8, r0, r4, lsl #23
    1874:	00000040 	andeq	r0, r0, r0, asr #32
    1878:	00000b71 	andeq	r0, r0, r1, ror fp
    187c:	69050402 	stmdbvs	r5, {r1, sl}
    1880:	0300746e 	movweq	r7, #1134	; 0x46e
    1884:	00860704 	addeq	r0, r6, r4, lsl #14
    1888:	01030000 	mrseq	r0, (UNDEF: 3)
    188c:	00003506 	andeq	r3, r0, r6, lsl #10
    1890:	05020300 	streq	r0, [r2, #-768]	; 0xfffffd00
    1894:	00000148 	andeq	r0, r0, r8, asr #2
    1898:	3f050403 	svccc	0x00050403
    189c:	03000001 	movweq	r0, #1
    18a0:	013a0508 	teqeq	sl, r8, lsl #10
    18a4:	01030000 	mrseq	r0, (UNDEF: 3)
    18a8:	00003308 	andeq	r3, r0, r8, lsl #6
    18ac:	07020300 	streq	r0, [r2, -r0, lsl #6]
    18b0:	00000000 	andeq	r0, r0, r0
    18b4:	81070403 	tsthi	r7, r3, lsl #8
    18b8:	03000000 	movweq	r0, #0
    18bc:	007c0708 	rsbseq	r0, ip, r8, lsl #14
    18c0:	01030000 	mrseq	r0, (UNDEF: 3)
    18c4:	00003c08 	andeq	r3, r0, r8, lsl #24
    18c8:	07ba0400 	ldreq	r0, [sl, r0, lsl #8]!
    18cc:	04010000 	streq	r0, [r1], #-0
    18d0:	008b8406 	addeq	r8, fp, r6, lsl #8
    18d4:	00004000 	andeq	r4, r0, r0
    18d8:	079c0100 	ldreq	r0, [ip, r0, lsl #2]
    18dc:	05000001 	streq	r0, [r0, #-1]
    18e0:	000007ac 	andeq	r0, r0, ip, lsr #15
    18e4:	25100501 	ldrcs	r0, [r0, #-1281]	; 0xfffffaff
    18e8:	05000000 	streq	r0, [r0, #-0]
    18ec:	000007ed 	andeq	r0, r0, sp, ror #15
    18f0:	251f0501 	ldrcs	r0, [pc, #-1281]	; 13f7 <__code_start__-0x6c09>
    18f4:	06000000 	streq	r0, [r0], -r0
    18f8:	00000021 	andeq	r0, r0, r1, lsr #32
    18fc:	07070601 	streq	r0, [r7, -r1, lsl #12]
    1900:	00737362 	rsbseq	r7, r3, r2, ror #6
    1904:	070a0a01 	streq	r0, [sl, -r1, lsl #20]
    1908:	09000001 	stmdbeq	r0, {r0}
    190c:	03000009 	movweq	r0, #9
    1910:	08000009 	stmdaeq	r0, {r0, r3}
    1914:	000007c2 	andeq	r0, r0, r2, asr #15
    1918:	070a0b01 	streq	r0, [sl, -r1, lsl #22]
    191c:	09000001 	stmdbeq	r0, {r0}
    1920:	00008bac 	andeq	r8, r0, ip, lsr #23
    1924:	00000008 	andeq	r0, r0, r8
    1928:	000000e2 	andeq	r0, r0, r2, ror #1
    192c:	006e690a 	rsbeq	r6, lr, sl, lsl #18
    1930:	2c051401 	cfstrscs	mvf1, [r5], {1}
    1934:	01000000 	mrseq	r0, (UNDEF: 0)
    1938:	8b8c0b00 	blhi	fe304540 <__bss_end__+0xfe2fb0e8>
    193c:	010d0000 	mrseq	r0, (UNDEF: 13)
    1940:	ac0b0000 	stcge	0, cr0, [fp], {-0}
    1944:	1a00008b 	bne	1b78 <__code_start__-0x6488>
    1948:	0b000001 	bleq	1954 <__code_start__-0x66ac>
    194c:	00008bb8 			; <UNDEFINED> instruction: 0x00008bb8
    1950:	00000126 	andeq	r0, r0, r6, lsr #2
    1954:	008bbc0b 	addeq	fp, fp, fp, lsl #24
    1958:	00013300 	andeq	r3, r1, r0, lsl #6
    195c:	040c0000 	streq	r0, [ip], #-0
    1960:	00000025 	andeq	r0, r0, r5, lsr #32
    1964:	0007ca0d 	andeq	ip, r7, sp, lsl #20
    1968:	0007ca00 	andeq	ip, r7, r0, lsl #20
    196c:	01310200 	teqeq	r1, r0, lsl #4
    1970:	00290e06 	eoreq	r0, r9, r6, lsl #28
    1974:	00290000 	eoreq	r0, r9, r0
    1978:	3b020000 	blcc	81980 <__bss_end__+0x78528>
    197c:	00210d06 	eoreq	r0, r1, r6, lsl #26
    1980:	00210000 	eoreq	r0, r1, r0
    1984:	05020000 	streq	r0, [r2, #-0]
    1988:	410e0601 	tstmi	lr, r1, lsl #12
    198c:	41000000 	mrsmi	r0, (UNDEF: 0)
    1990:	02000000 	andeq	r0, r0, #0
    1994:	8100066e 	tsthi	r0, lr, ror #12
    1998:	04000000 	streq	r0, [r0], #-0
    199c:	00081f00 	andeq	r1, r8, r0, lsl #30
    19a0:	8a010400 	bhi	429a8 <__bss_end__+0x39550>
    19a4:	0c000003 	stceq	0, cr0, [r0], {3}
    19a8:	000007f9 	strdeq	r0, [r0], -r9
    19ac:	0000054d 	andeq	r0, r0, sp, asr #10
    19b0:	00008bc4 	andeq	r8, r0, r4, asr #23
    19b4:	00000004 	andeq	r0, r0, r4
    19b8:	00000c0b 	andeq	r0, r0, fp, lsl #24
    19bc:	69050402 	stmdbvs	r5, {r1, sl}
    19c0:	0300746e 	movweq	r7, #1134	; 0x46e
    19c4:	00860704 	addeq	r0, r6, r4, lsl #14
    19c8:	01030000 	mrseq	r0, (UNDEF: 3)
    19cc:	00003506 	andeq	r3, r0, r6, lsl #10
    19d0:	05020300 	streq	r0, [r2, #-768]	; 0xfffffd00
    19d4:	00000148 	andeq	r0, r0, r8, asr #2
    19d8:	3f050403 	svccc	0x00050403
    19dc:	03000001 	movweq	r0, #1
    19e0:	013a0508 	teqeq	sl, r8, lsl #10
    19e4:	01030000 	mrseq	r0, (UNDEF: 3)
    19e8:	00003308 	andeq	r3, r0, r8, lsl #6
    19ec:	07020300 	streq	r0, [r2, -r0, lsl #6]
    19f0:	00000000 	andeq	r0, r0, r0
    19f4:	81070403 	tsthi	r7, r3, lsl #8
    19f8:	03000000 	movweq	r0, #0
    19fc:	007c0708 	rsbseq	r0, ip, r8, lsl #14
    1a00:	01030000 	mrseq	r0, (UNDEF: 3)
    1a04:	00003c08 	andeq	r3, r0, r8, lsl #24
    1a08:	07ca0400 	strbeq	r0, [sl, r0, lsl #8]
    1a0c:	04010000 	streq	r0, [r1], #-0
    1a10:	008bc406 	addeq	ip, fp, r6, lsl #8
    1a14:	00000400 	andeq	r0, r0, r0, lsl #8
    1a18:	009c0100 	addseq	r0, ip, r0, lsl #2
    1a1c:	000001e9 	andeq	r0, r0, r9, ror #3
    1a20:	08630004 	stmdaeq	r3!, {r2}^
    1a24:	01040000 	mrseq	r0, (UNDEF: 4)
    1a28:	0000038a 	andeq	r0, r0, sl, lsl #7
    1a2c:	00083b0c 	andeq	r3, r8, ip, lsl #22
    1a30:	00054d00 	andeq	r4, r5, r0, lsl #26
	...
    1a3c:	000c5900 	andeq	r5, ip, r0, lsl #18
    1a40:	05040200 	streq	r0, [r4, #-512]	; 0xfffffe00
    1a44:	00746e69 	rsbseq	r6, r4, r9, ror #28
    1a48:	00002503 	andeq	r2, r0, r3, lsl #10
    1a4c:	07040400 	streq	r0, [r4, -r0, lsl #8]
    1a50:	00000086 	andeq	r0, r0, r6, lsl #1
    1a54:	35060104 	strcc	r0, [r6, #-260]	; 0xfffffefc
    1a58:	04000000 	streq	r0, [r0], #-0
    1a5c:	01480502 	cmpeq	r8, r2, lsl #10
    1a60:	04040000 	streq	r0, [r4], #-0
    1a64:	00013f05 	andeq	r3, r1, r5, lsl #30
    1a68:	05080400 	streq	r0, [r8, #-1024]	; 0xfffffc00
    1a6c:	0000013a 	andeq	r0, r0, sl, lsr r1
    1a70:	33080104 	movwcc	r0, #33028	; 0x8104
    1a74:	04000000 	streq	r0, [r0], #-0
    1a78:	00000702 	andeq	r0, r0, r2, lsl #14
    1a7c:	04040000 	streq	r0, [r4], #-0
    1a80:	00008107 	andeq	r8, r0, r7, lsl #2
    1a84:	07080400 	streq	r0, [r8, -r0, lsl #8]
    1a88:	0000007c 	andeq	r0, r0, ip, ror r0
    1a8c:	3c080104 	stfccs	f0, [r8], {4}
    1a90:	05000000 	streq	r0, [r0, #-0]
    1a94:	0000085f 	andeq	r0, r0, pc, asr r8
    1a98:	31110d01 	tstcc	r1, r1, lsl #26
    1a9c:	06000000 	streq	r0, [r0], -r0
    1aa0:	0000077d 	andeq	r0, r0, sp, ror r7
    1aa4:	f4061f01 			; <UNDEFINED> instruction: 0xf4061f01
    1aa8:	5400008b 	strpl	r0, [r0], #-139	; 0xffffff75
    1aac:	01000000 	mrseq	r0, (UNDEF: 0)
    1ab0:	0001619c 	muleq	r1, ip, r1
    1ab4:	08830700 	stmeq	r3, {r8, r9, sl}
    1ab8:	2c010000 	stccs	0, cr0, [r1], {-0}
    1abc:	00002c0f 	andeq	r2, r0, pc, lsl #24
    1ac0:	00093600 	andeq	r3, r9, r0, lsl #12
    1ac4:	00093400 	andeq	r3, r9, r0, lsl #8
    1ac8:	08150700 	ldmdaeq	r5, {r8, r9, sl}
    1acc:	2d010000 	stccs	0, cr0, [r1, #-0]
    1ad0:	00002c0f 	andeq	r2, r0, pc, lsl #24
    1ad4:	00095000 	andeq	r5, r9, r0
    1ad8:	00094e00 	andeq	r4, r9, r0, lsl #28
    1adc:	08500700 	ldmdaeq	r0, {r8, r9, sl}^
    1ae0:	2e010000 	cdpcs	0, 0, cr0, cr1, cr0, {0}
    1ae4:	00002c0f 	andeq	r2, r0, pc, lsl #24
    1ae8:	00096a00 	andeq	r6, r9, r0, lsl #20
    1aec:	00096800 	andeq	r6, r9, r0, lsl #16
    1af0:	086a0700 	stmdaeq	sl!, {r8, r9, sl}^
    1af4:	2f010000 	svccs	0x00010000
    1af8:	00002c0f 	andeq	r2, r0, pc, lsl #24
    1afc:	00098300 	andeq	r8, r9, r0, lsl #6
    1b00:	00098100 	andeq	r8, r9, r0, lsl #2
    1b04:	8bfc0800 	blhi	fff03b0c <__bss_end__+0xffefa6b4>
    1b08:	018c0000 	orreq	r0, ip, r0
    1b0c:	08080000 	stmdaeq	r8, {}	; <UNPREDICTABLE>
    1b10:	bb00008c 	bllt	1d48 <__code_start__-0x62b8>
    1b14:	08000001 	stmdaeq	r0, {r0}
    1b18:	00008c0c 	andeq	r8, r0, ip, lsl #24
    1b1c:	000001c8 	andeq	r0, r0, r8, asr #3
    1b20:	008c1409 	addeq	r1, ip, r9, lsl #8
    1b24:	0001d400 	andeq	sp, r1, r0, lsl #8
    1b28:	00011700 	andeq	r1, r1, r0, lsl #14
    1b2c:	50010a00 	andpl	r0, r1, r0, lsl #20
    1b30:	09003a01 	stmdbeq	r0, {r0, r9, fp, ip, sp}
    1b34:	00008c20 	andeq	r8, r0, r0, lsr #24
    1b38:	000001e0 	andeq	r0, r0, r0, ror #3
    1b3c:	00000137 	andeq	r0, r0, r7, lsr r1
    1b40:	0550010a 	ldrbeq	r0, [r0, #-266]	; 0xfffffef6
    1b44:	1000240c 	andne	r2, r0, ip, lsl #8
    1b48:	51010a20 	tstpl	r1, r0, lsr #20
    1b4c:	00010c05 	andeq	r0, r1, r5, lsl #24
    1b50:	09005a00 	stmdbeq	r0, {r9, fp, ip, lr}
    1b54:	00008c2c 	andeq	r8, r0, ip, lsr #24
    1b58:	000001e0 	andeq	r0, r0, r0, ror #3
    1b5c:	00000157 	andeq	r0, r0, r7, asr r1
    1b60:	0550010a 	ldrbeq	r0, [r0, #-266]	; 0xfffffef6
    1b64:	10001c0c 	andne	r1, r0, ip, lsl #24
    1b68:	51010a20 	tstpl	r1, r0, lsr #20
    1b6c:	00200c05 	eoreq	r0, r0, r5, lsl #24
    1b70:	08005a00 	stmdaeq	r0, {r9, fp, ip, lr}
    1b74:	00008c34 	andeq	r8, r0, r4, lsr ip
    1b78:	00000161 	andeq	r0, r0, r1, ror #2
    1b7c:	082c0b00 	stmdaeq	ip!, {r8, r9, fp}
    1b80:	17010000 	strne	r0, [r1, -r0]
    1b84:	008be006 	addeq	lr, fp, r6
    1b88:	00001400 	andeq	r1, r0, r0, lsl #8
    1b8c:	8c9c0100 	ldfhis	f0, [ip], {0}
    1b90:	07000001 	streq	r0, [r0, -r1]
    1b94:	0000088b 	andeq	r0, r0, fp, lsl #17
    1b98:	310e1801 	tstcc	lr, r1, lsl #16
    1b9c:	9e000000 	cdpls	0, 0, cr0, cr0, cr0, {0}
    1ba0:	98000009 	stmdals	r0, {r0, r3}
    1ba4:	00000009 	andeq	r0, r0, r9
    1ba8:	00085c0c 	andeq	r5, r8, ip, lsl #24
    1bac:	050e0100 	streq	r0, [lr, #-256]	; 0xffffff00
    1bb0:	00000025 	andeq	r0, r0, r5, lsr #32
    1bb4:	00008bc8 	andeq	r8, r0, r8, asr #23
    1bb8:	00000018 	andeq	r0, r0, r8, lsl r0
    1bbc:	01bb9c01 			; <UNDEFINED> instruction: 0x01bb9c01
    1bc0:	8b070000 	blhi	1c1bc8 <__bss_end__+0x1b8770>
    1bc4:	01000008 	tsteq	r0, r8
    1bc8:	00310e0f 	eorseq	r0, r1, pc, lsl #28
    1bcc:	09cc0000 	stmibeq	ip, {}^	; <UNPREDICTABLE>
    1bd0:	09c80000 	stmibeq	r8, {}^	; <UNPREDICTABLE>
    1bd4:	0d000000 	stceq	0, cr0, [r0, #-0]
    1bd8:	0000081d 	andeq	r0, r0, sp, lsl r8
    1bdc:	0000081d 	andeq	r0, r0, sp, lsl r8
    1be0:	06013602 	streq	r3, [r1], -r2, lsl #12
    1be4:	0005190e 	andeq	r1, r5, lr, lsl #18
    1be8:	00051900 	andeq	r1, r5, r0, lsl #18
    1bec:	064d0200 	strbeq	r0, [sp], -r0, lsl #4
    1bf0:	0007880e 	andeq	r8, r7, lr, lsl #16
    1bf4:	00078800 	andeq	r8, r7, r0, lsl #16
    1bf8:	06580200 	ldrbeq	r0, [r8], -r0, lsl #4
    1bfc:	00042b0e 	andeq	r2, r4, lr, lsl #22
    1c00:	00042b00 	andeq	r2, r4, r0, lsl #22
    1c04:	06ad0200 	strteq	r0, [sp], r0, lsl #4
    1c08:	00020000 	andeq	r0, r2, r0
    1c0c:	5a000400 	bpl	2c14 <__code_start__-0x53ec>
    1c10:	04000009 	streq	r0, [r0], #-9
    1c14:	00038a01 	andeq	r8, r3, r1, lsl #20
    1c18:	08a60c00 	stmiaeq	r6!, {sl, fp}
    1c1c:	054d0000 	strbeq	r0, [sp, #-0]
    1c20:	8c480000 	marhi	acc0, r0, r8
    1c24:	00840000 	addeq	r0, r4, r0
    1c28:	0d250000 	stceq	0, cr0, [r5, #-0]
    1c2c:	04020000 	streq	r0, [r2], #-0
    1c30:	746e6905 	strbtvc	r6, [lr], #-2309	; 0xfffff6fb
    1c34:	07040300 	streq	r0, [r4, -r0, lsl #6]
    1c38:	00000086 	andeq	r0, r0, r6, lsl #1
    1c3c:	35060103 	strcc	r0, [r6, #-259]	; 0xfffffefd
    1c40:	03000000 	movweq	r0, #0
    1c44:	01480502 	cmpeq	r8, r2, lsl #10
    1c48:	04030000 	streq	r0, [r3], #-0
    1c4c:	00013f05 	andeq	r3, r1, r5, lsl #30
    1c50:	05080300 	streq	r0, [r8, #-768]	; 0xfffffd00
    1c54:	0000013a 	andeq	r0, r0, sl, lsr r1
    1c58:	33080103 	movwcc	r0, #33027	; 0x8103
    1c5c:	03000000 	movweq	r0, #0
    1c60:	00000702 	andeq	r0, r0, r2, lsl #14
    1c64:	04030000 	streq	r0, [r3], #-0
    1c68:	00008107 	andeq	r8, r0, r7, lsl #2
    1c6c:	07080300 	streq	r0, [r8, -r0, lsl #6]
    1c70:	0000007c 	andeq	r0, r0, ip, ror r0
    1c74:	3c080103 	stfccs	f0, [r8], {3}
    1c78:	04000000 	streq	r0, [r0], #-0
    1c7c:	0000089c 	muleq	r0, ip, r8
    1c80:	b4061e01 	strlt	r1, [r6], #-3585	; 0xfffff1ff
    1c84:	1800008c 	stmdane	r0, {r2, r3, r7}
    1c88:	01000000 	mrseq	r0, (UNDEF: 0)
    1c8c:	0000bc9c 	muleq	r0, ip, ip
    1c90:	65730500 	ldrbvs	r0, [r3, #-1280]!	; 0xfffffb00
    1c94:	1e010063 	cdpne	0, 0, cr0, cr1, cr3, {3}
    1c98:	00002c19 	andeq	r2, r0, r9, lsl ip
    1c9c:	0009ef00 	andeq	lr, r9, r0, lsl #30
    1ca0:	0009eb00 	andeq	lr, r9, r0, lsl #22
    1ca4:	8cc80600 	stclhi	6, cr0, [r8], {0}
    1ca8:	00bc0000 	adcseq	r0, ip, r0
    1cac:	01070000 	mrseq	r0, (UNDEF: 7)
    1cb0:	01f31150 	mvnseq	r1, r0, asr r1
    1cb4:	f3243550 	vqrshl.u32	<illegal reg q1.5>, q0, q2
    1cb8:	321c5001 	andscc	r5, ip, #1
    1cbc:	5001f324 	andpl	pc, r1, r4, lsr #6
    1cc0:	00243322 	eoreq	r3, r4, r2, lsr #6
    1cc4:	07880400 	streq	r0, [r8, r0, lsl #8]
    1cc8:	1b010000 	blne	41cd0 <__bss_end__+0x38878>
    1ccc:	008c9c06 	addeq	r9, ip, r6, lsl #24
    1cd0:	00001800 	andeq	r1, r0, r0, lsl #16
    1cd4:	059c0100 	ldreq	r0, [ip, #256]	; 0x100
    1cd8:	05000001 	streq	r0, [r0, #-1]
    1cdc:	0100736d 	tsteq	r0, sp, ror #6
    1ce0:	002c181b 	eoreq	r1, ip, fp, lsl r8
    1ce4:	0a140000 	beq	501cec <__bss_end__+0x4f8894>
    1ce8:	0a100000 	beq	401cf0 <__bss_end__+0x3f8898>
    1cec:	b0060000 	andlt	r0, r6, r0
    1cf0:	0500008c 	streq	r0, [r0, #-140]	; 0xffffff74
    1cf4:	07000001 	streq	r0, [r0, -r1]
    1cf8:	f3115001 	vhadd.u16	d5, d1, d1
    1cfc:	24355001 	ldrtcs	r5, [r5], #-1
    1d00:	1c5001f3 	ldfnee	f0, [r0], {243}	; 0xf3
    1d04:	01f32432 	mvnseq	r2, r2, lsr r4
    1d08:	24332250 	ldrtcs	r2, [r3], #-592	; 0xfffffdb0
    1d0c:	c9040000 	stmdbgt	r4, {}	; <UNPREDICTABLE>
    1d10:	01000008 	tsteq	r0, r8
    1d14:	8c780612 	ldclhi	6, cr0, [r8], #-72	; 0xffffffb8
    1d18:	00240000 	eoreq	r0, r4, r0
    1d1c:	9c010000 	stcls	0, cr0, [r1], {-0}
    1d20:	00000175 	andeq	r0, r0, r5, ror r1
    1d24:	00737505 	rsbseq	r7, r3, r5, lsl #10
    1d28:	2c181201 	lfmcs	f1, 4, [r8], {1}
    1d2c:	39000000 	stmdbcc	r0, {}	; <UNPREDICTABLE>
    1d30:	3500000a 	strcc	r0, [r0, #-10]
    1d34:	0800000a 	stmdaeq	r0, {r1, r3}
    1d38:	01006272 	tsteq	r0, r2, ror r2
    1d3c:	002c0e13 	eoreq	r0, ip, r3, lsl lr
    1d40:	0a590000 	beq	1641d48 <__bss_end__+0x16388f0>
    1d44:	0a570000 	beq	15c1d4c <__bss_end__+0x15b88f4>
    1d48:	88090000 	stmdahi	r9, {}	; <UNPREDICTABLE>
    1d4c:	1400008c 	strne	r0, [r0], #-140	; 0xffffff74
    1d50:	6b000000 	blvs	1d58 <__code_start__-0x62a8>
    1d54:	08000001 	stmdaeq	r0, {r0}
    1d58:	01006172 	tsteq	r0, r2, ror r1
    1d5c:	002c1215 	eoreq	r1, ip, r5, lsl r2
    1d60:	0a6e0000 	beq	1b81d68 <__bss_end__+0x1b78910>
    1d64:	0a6c0000 	beq	1b01d6c <__bss_end__+0x1af8914>
    1d68:	8c0a0000 	stchi	0, cr0, [sl], {-0}
    1d6c:	7500008c 	strvc	r0, [r0, #-140]	; 0xffffff74
    1d70:	00000001 	andeq	r0, r0, r1
    1d74:	008c840a 	addeq	r8, ip, sl, lsl #8
    1d78:	00017500 	andeq	r7, r1, r0, lsl #10
    1d7c:	ba0b0000 	blt	2c1d84 <__bss_end__+0x2b892c>
    1d80:	01000008 	tsteq	r0, r8
    1d84:	002c0a09 	eoreq	r0, ip, r9, lsl #20
    1d88:	8c5c0000 	mrahi	r0, ip, acc0
    1d8c:	001c0000 	andseq	r0, ip, r0
    1d90:	9c010000 	stcls	0, cr0, [r1], {-0}
    1d94:	000001bd 			; <UNDEFINED> instruction: 0x000001bd
    1d98:	01007508 	tsteq	r0, r8, lsl #10
    1d9c:	002c0e0d 	eoreq	r0, ip, sp, lsl #28
    1da0:	0a850000 	beq	fe141da8 <__bss_end__+0xfe138950>
    1da4:	0a810000 	beq	fe041dac <__bss_end__+0xfe038954>
    1da8:	640a0000 	strvs	r0, [sl], #-0
    1dac:	eb00008c 	bl	1fe4 <__code_start__-0x601c>
    1db0:	0a000001 	beq	1dbc <__code_start__-0x6244>
    1db4:	00008c68 	andeq	r8, r0, r8, ror #24
    1db8:	000001bd 			; <UNDEFINED> instruction: 0x000001bd
    1dbc:	008c700a 	addeq	r7, ip, sl
    1dc0:	0001eb00 	andeq	lr, r1, r0, lsl #22
    1dc4:	d20b0000 	andle	r0, fp, #0
    1dc8:	01000008 	tsteq	r0, r8
    1dcc:	002c0a04 	eoreq	r0, ip, r4, lsl #20
    1dd0:	8c480000 	marhi	acc0, r0, r8
    1dd4:	00140000 	andseq	r0, r4, r0
    1dd8:	9c010000 	stcls	0, cr0, [r1], {-0}
    1ddc:	000001eb 	andeq	r0, r0, fp, ror #3
    1de0:	008c5406 	addeq	r5, ip, r6, lsl #8
    1de4:	0001f700 	andeq	pc, r1, r0, lsl #14
    1de8:	50010700 	andpl	r0, r1, r0, lsl #14
    1dec:	30040c05 	andcc	r0, r4, r5, lsl #24
    1df0:	00002000 	andeq	r2, r0, r0
    1df4:	0008900c 	andeq	r9, r8, ip
    1df8:	00089000 	andeq	r9, r8, r0
    1dfc:	069c0200 	ldreq	r0, [ip], r0, lsl #4
    1e00:	00060f0c 	andeq	r0, r6, ip, lsl #30
    1e04:	00060f00 	andeq	r0, r6, r0, lsl #30
    1e08:	0ac20200 	beq	ff082610 <__bss_end__+0xff0791b8>
    1e0c:	00036e00 	andeq	r6, r3, r0, lsl #28
    1e10:	26000400 	strcs	r0, [r0], -r0, lsl #8
    1e14:	0400000a 	streq	r0, [r0], #-10
    1e18:	00038a01 	andeq	r8, r3, r1, lsl #20
    1e1c:	09140c00 	ldmdbeq	r4, {sl, fp}
    1e20:	054d0000 	strbeq	r0, [sp, #-0]
    1e24:	8ccc0000 	stclhi	0, cr0, [ip], {0}
    1e28:	00e80000 	rsceq	r0, r8, r0
    1e2c:	0df80000 	ldcleq	0, cr0, [r8]
    1e30:	04020000 	streq	r0, [r2], #-0
    1e34:	746e6905 	strbtvc	r6, [lr], #-2309	; 0xfffff6fb
    1e38:	07040300 	streq	r0, [r4, -r0, lsl #6]
    1e3c:	00000086 	andeq	r0, r0, r6, lsl #1
    1e40:	00002c04 	andeq	r2, r0, r4, lsl #24
    1e44:	06010300 	streq	r0, [r1], -r0, lsl #6
    1e48:	00000035 	andeq	r0, r0, r5, lsr r0
    1e4c:	48050203 	stmdami	r5, {r0, r1, r9}
    1e50:	03000001 	movweq	r0, #1
    1e54:	013f0504 	teqeq	pc, r4, lsl #10
    1e58:	08030000 	stmdaeq	r3, {}	; <UNPREDICTABLE>
    1e5c:	00013a05 	andeq	r3, r1, r5, lsl #20
    1e60:	08010300 	stmdaeq	r1, {r8, r9}
    1e64:	00000033 	andeq	r0, r0, r3, lsr r0
    1e68:	00070203 	andeq	r0, r7, r3, lsl #4
    1e6c:	05000000 	streq	r0, [r0, #-0]
    1e70:	00000710 	andeq	r0, r0, r0, lsl r7
    1e74:	6e193402 	cfmulsvs	mvf3, mvf9, mvf2
    1e78:	03000000 	movweq	r0, #0
    1e7c:	00810704 	addeq	r0, r1, r4, lsl #14
    1e80:	08030000 	stmdaeq	r3, {}	; <UNPREDICTABLE>
    1e84:	00007c07 	andeq	r7, r0, r7, lsl #24
    1e88:	08010300 	stmdaeq	r1, {r8, r9}
    1e8c:	0000003c 	andeq	r0, r0, ip, lsr r0
    1e90:	54010706 	strpl	r0, [r1], #-1798	; 0xfffff8fa
    1e94:	03000000 	movweq	r0, #0
    1e98:	00c20e0c 	sbceq	r0, r2, ip, lsl #28
    1e9c:	7a070000 	bvc	1c1ea4 <__bss_end__+0x1b8a4c>
    1ea0:	00000003 	andeq	r0, r0, r3
    1ea4:	0001e507 	andeq	lr, r1, r7, lsl #10
    1ea8:	40070100 	andmi	r0, r7, r0, lsl #2
    1eac:	04000002 	streq	r0, [r0], #-2
    1eb0:	00024f07 	andeq	r4, r2, r7, lsl #30
    1eb4:	5e070500 	cfsh32pl	mvfx0, mvfx7, #0
    1eb8:	06000002 	streq	r0, [r0], -r2
    1ebc:	00026d07 	andeq	r6, r2, r7, lsl #26
    1ec0:	7c070700 	stcvc	7, cr0, [r7], {-0}
    1ec4:	03000002 	movweq	r0, #2
    1ec8:	00028b07 	andeq	r8, r2, r7, lsl #22
    1ecc:	05000200 	streq	r0, [r0, #-512]	; 0xfffffe00
    1ed0:	0000094d 	andeq	r0, r0, sp, asr #18
    1ed4:	83031503 	movwhi	r1, #13571	; 0x3503
    1ed8:	08000000 	stmdaeq	r0, {}	; <UNPREDICTABLE>
    1edc:	0000096b 	andeq	r0, r0, fp, ror #18
    1ee0:	33179f01 	tstcc	r7, #1, 30
    1ee4:	00000000 	andeq	r0, r0, r0
    1ee8:	08202000 	stmdaeq	r0!, {sp}
    1eec:	000008f5 	strdeq	r0, [r0], -r5
    1ef0:	3317a001 	tstcc	r7, #1
    1ef4:	1c000000 	stcne	0, cr0, [r0], {-0}
    1ef8:	08202000 	stmdaeq	r0!, {sp}
    1efc:	000008e5 	andeq	r0, r0, r5, ror #17
    1f00:	3317a101 	tstcc	r7, #1073741824	; 0x40000000
    1f04:	28000000 	stmdacs	r0, {}	; <UNPREDICTABLE>
    1f08:	08202000 	stmdaeq	r0!, {sp}
    1f0c:	00000961 	andeq	r0, r0, r1, ror #18
    1f10:	3317a201 	tstcc	r7, #268435456	; 0x10000000
    1f14:	34000000 	strcc	r0, [r0], #-0
    1f18:	09202000 	stmdbeq	r0!, {sp}
    1f1c:	0000090a 	andeq	r0, r0, sl, lsl #18
    1f20:	2505d401 	strcs	sp, [r5, #-1025]	; 0xfffffbff
    1f24:	94000000 	strls	r0, [r0], #-0
    1f28:	2000008d 	andcs	r0, r0, sp, lsl #1
    1f2c:	01000000 	mrseq	r0, (UNDEF: 0)
    1f30:	0001509c 	muleq	r1, ip, r0
    1f34:	69700a00 	ldmdbvs	r0!, {r9, fp}^
    1f38:	d401006e 	strle	r0, [r1], #-110	; 0xffffff92
    1f3c:	00002c18 	andeq	r2, r0, r8, lsl ip
    1f40:	000aa700 	andeq	sl, sl, r0, lsl #14
    1f44:	000aa300 	andeq	sl, sl, r0, lsl #6
    1f48:	8da40b00 			; <UNDEFINED> instruction: 0x8da40b00
    1f4c:	03590000 	cmpeq	r9, #0
    1f50:	010c0000 	mrseq	r0, (UNDEF: 12)
    1f54:	340c0550 	strcc	r0, [ip], #-1360	; 0xfffffab0
    1f58:	00202000 	eoreq	r2, r0, r0
    1f5c:	09210d00 	stmdbeq	r1!, {r8, sl, fp}
    1f60:	cf010000 	svcgt	0x00010000
    1f64:	008d8406 	addeq	r8, sp, r6, lsl #8
    1f68:	00001000 	andeq	r1, r0, r0
    1f6c:	919c0100 	orrsls	r0, ip, r0, lsl #2
    1f70:	0a000001 	beq	1f7c <__code_start__-0x6084>
    1f74:	006e6970 	rsbeq	r6, lr, r0, ror r9
    1f78:	2c1ecf01 	ldccs	15, cr12, [lr], {1}
    1f7c:	c9000000 	stmdbgt	r0, {}	; <UNPREDICTABLE>
    1f80:	c500000a 	strgt	r0, [r0, #-10]
    1f84:	0b00000a 	bleq	1fb4 <__code_start__-0x604c>
    1f88:	00008d90 	muleq	r0, r0, sp
    1f8c:	000002bb 			; <UNDEFINED> instruction: 0x000002bb
    1f90:	0350010c 	cmpeq	r0, #12, 2
    1f94:	0c5001f3 	ldfeqe	f0, [r0], {243}	; 0xf3
    1f98:	30015101 	andcc	r5, r1, r1, lsl #2
    1f9c:	ff0d0000 			; <UNDEFINED> instruction: 0xff0d0000
    1fa0:	01000008 	tsteq	r0, r8
    1fa4:	8d6806c3 	stclhi	6, cr0, [r8, #-780]!	; 0xfffffcf4
    1fa8:	001c0000 	andseq	r0, ip, r0
    1fac:	9c010000 	stcls	0, cr0, [r1], {-0}
    1fb0:	000001ec 	andeq	r0, r0, ip, ror #3
    1fb4:	6e69700a 	cdpvs	0, 6, cr7, cr9, cr10, {0}
    1fb8:	1ac30100 	bne	ff0c23c0 <__bss_end__+0xff0b8f68>
    1fbc:	0000002c 	andeq	r0, r0, ip, lsr #32
    1fc0:	00000af2 	strdeq	r0, [r0], -r2
    1fc4:	00000aea 	andeq	r0, r0, sl, ror #21
    1fc8:	0100760a 	tsteq	r0, sl, lsl #12
    1fcc:	002c28c3 	eoreq	r2, ip, r3, asr #17
    1fd0:	0b340000 	bleq	d01fd8 <__bss_end__+0xcf8b80>
    1fd4:	0b2c0000 	bleq	b01fdc <__bss_end__+0xaf8b84>
    1fd8:	780e0000 	stmdavc	lr, {}	; <UNPREDICTABLE>
    1fdc:	3300008d 	movwcc	r0, #141	; 0x8d
    1fe0:	e2000002 	and	r0, r0, #2
    1fe4:	0c000001 	stceq	0, cr0, [r0], {1}
    1fe8:	f3035001 	vhadd.u8	d5, d3, d1
    1fec:	0f005001 	svceq	0x00005001
    1ff0:	00008d80 	andeq	r8, r0, r0, lsl #27
    1ff4:	000001ec 	andeq	r0, r0, ip, ror #3
    1ff8:	09300d00 	ldmdbeq	r0!, {r8, sl, fp}
    1ffc:	be010000 	cdplt	0, 0, cr0, cr1, cr0, {0}
    2000:	008d4c06 	addeq	r4, sp, r6, lsl #24
    2004:	00001c00 	andeq	r1, r0, r0, lsl #24
    2008:	339c0100 	orrscc	r0, ip, #0, 2
    200c:	0a000002 	beq	201c <__code_start__-0x5fe4>
    2010:	006e6970 	rsbeq	r6, lr, r0, ror r9
    2014:	2c1cbe01 	ldccs	14, cr11, [ip], {1}
    2018:	72000000 	andvc	r0, r0, #0
    201c:	6e00000b 	cdpvs	0, 0, cr0, cr0, cr11, {0}
    2020:	0b00000b 	bleq	2054 <__code_start__-0x5fac>
    2024:	00008d60 	andeq	r8, r0, r0, ror #26
    2028:	00000365 	andeq	r0, r0, r5, ror #6
    202c:	0550010c 	ldrbeq	r0, [r0, #-268]	; 0xfffffef4
    2030:	2000280c 	andcs	r2, r0, ip, lsl #16
    2034:	51010c20 	tstpl	r1, r0, lsr #24
    2038:	01f33105 	mvnseq	r3, r5, lsl #2
    203c:	00002450 	andeq	r2, r0, r0, asr r4
    2040:	00097d0d 	andeq	r7, r9, sp, lsl #26
    2044:	06b90100 	ldrteq	r0, [r9], r0, lsl #2
    2048:	00008d30 	andeq	r8, r0, r0, lsr sp
    204c:	0000001c 	andeq	r0, r0, ip, lsl r0
    2050:	027a9c01 	rsbseq	r9, sl, #256	; 0x100
    2054:	700a0000 	andvc	r0, sl, r0
    2058:	01006e69 	tsteq	r0, r9, ror #28
    205c:	002c1bb9 	strhteq	r1, [ip], -r9
    2060:	0b970000 	bleq	fe5c2068 <__bss_end__+0xfe5b8c10>
    2064:	0b930000 	bleq	fe4c206c <__bss_end__+0xfe4b8c14>
    2068:	440b0000 	strmi	r0, [fp], #-0
    206c:	6500008d 	strvs	r0, [r0, #-141]	; 0xffffff73
    2070:	0c000003 	stceq	0, cr0, [r0], {3}
    2074:	0c055001 	stceq	0, cr5, [r5], {1}
    2078:	2020001c 	eorcs	r0, r0, ip, lsl r0
    207c:	0551010c 	ldrbeq	r0, [r1, #-268]	; 0xfffffef4
    2080:	5001f331 	andpl	pc, r1, r1, lsr r3	; <UNPREDICTABLE>
    2084:	0d000024 	stceq	0, cr0, [r0, #-144]	; 0xffffff70
    2088:	0000093d 	andeq	r0, r0, sp, lsr r9
    208c:	2006b401 	andcs	fp, r6, r1, lsl #8
    2090:	1000008d 	andne	r0, r0, sp, lsl #1
    2094:	01000000 	mrseq	r0, (UNDEF: 0)
    2098:	0002bb9c 	muleq	r2, ip, fp
    209c:	69700a00 	ldmdbvs	r0!, {r9, fp}^
    20a0:	b401006e 	strlt	r0, [r1], #-110	; 0xffffff92
    20a4:	00002c1f 	andeq	r2, r0, pc, lsl ip
    20a8:	000bbc00 	andeq	fp, fp, r0, lsl #24
    20ac:	000bb800 	andeq	fp, fp, r0, lsl #16
    20b0:	8d2c0b00 	vstmdbhi	ip!, {d0-d-1}
    20b4:	02bb0000 	adcseq	r0, fp, #0
    20b8:	010c0000 	mrseq	r0, (UNDEF: 12)
    20bc:	01f30350 	mvnseq	r0, r0, asr r3
    20c0:	51010c50 	tstpl	r1, r0, asr ip
    20c4:	00003101 	andeq	r3, r0, r1, lsl #2
    20c8:	0004ce0d 	andeq	ip, r4, sp, lsl #28
    20cc:	06a50100 	strteq	r0, [r5], r0, lsl #2
    20d0:	00008ccc 	andeq	r8, r0, ip, asr #25
    20d4:	00000054 	andeq	r0, r0, r4, asr r0
    20d8:	03599c01 	cmpeq	r9, #256	; 0x100
    20dc:	700a0000 	andvc	r0, sl, r0
    20e0:	01006e69 	tsteq	r0, r9, ror #28
    20e4:	002c21a5 	eoreq	r2, ip, r5, lsr #3
    20e8:	0be10000 	bleq	ff8420f0 <__bss_end__+0xff838c98>
    20ec:	0bdd0000 	bleq	ff7420f4 <__bss_end__+0xff738c9c>
    20f0:	660a0000 	strvs	r0, [sl], -r0
    20f4:	a5010076 	strge	r0, [r1, #-118]	; 0xffffff8a
    20f8:	0000c232 	andeq	ip, r0, r2, lsr r2
    20fc:	000c0300 	andeq	r0, ip, r0, lsl #6
    2100:	000bff00 	andeq	pc, fp, r0, lsl #30
    2104:	09591000 	ldmdbeq	r9, {ip}^
    2108:	a6010000 	strge	r0, [r1], -r0
    210c:	0000620e 	andeq	r6, r0, lr, lsl #4
    2110:	000c2600 	andeq	r2, ip, r0, lsl #12
    2114:	000c2400 	andeq	r2, ip, r0, lsl #8
    2118:	09751000 	ldmdbeq	r5!, {ip}^
    211c:	a7010000 	strge	r0, [r1, -r0]
    2120:	0000620e 	andeq	r6, r0, lr, lsl #4
    2124:	000c3b00 	andeq	r3, ip, r0, lsl #22
    2128:	000c3900 	andeq	r3, ip, r0, lsl #18
    212c:	08ef1000 	stmiaeq	pc!, {ip}^	; <UNPREDICTABLE>
    2130:	a8010000 	stmdage	r1, {}	; <UNPREDICTABLE>
    2134:	0000620e 	andeq	r6, r0, lr, lsl #4
    2138:	000c5000 	andeq	r5, ip, r0
    213c:	000c4e00 	andeq	r4, ip, r0, lsl #28
    2140:	8cf80e00 	ldclhi	14, cr0, [r8]
    2144:	03590000 	cmpeq	r9, #0
    2148:	03480000 	movteq	r0, #32768	; 0x8000
    214c:	010c0000 	mrseq	r0, (UNDEF: 12)
    2150:	00770250 	rsbseq	r0, r7, r0, asr r2
    2154:	8d180b00 	vldrhi	d0, [r8, #-0]
    2158:	03650000 	cmneq	r5, #0
    215c:	010c0000 	mrseq	r0, (UNDEF: 12)
    2160:	00770250 	rsbseq	r0, r7, r0, asr r2
    2164:	0f110000 	svceq	0x00110000
    2168:	0f000006 	svceq	0x00000006
    216c:	04000006 	streq	r0, [r0], #-6
    2170:	2b110ac2 	blcs	444c80 <__bss_end__+0x43b828>
    2174:	2b000004 	blcs	218c <__code_start__-0x5e74>
    2178:	04000004 	streq	r0, [r0], #-4
    217c:	1d0006ad 	stcne	6, cr0, [r0, #-692]	; 0xfffffd4c
    2180:	04000001 	streq	r0, [r0], #-1
    2184:	000b3700 	andeq	r3, fp, r0, lsl #14
    2188:	8a010400 	bhi	43190 <__bss_end__+0x39d38>
    218c:	0c000003 	stceq	0, cr0, [r0], {3}
    2190:	000009a7 	andeq	r0, r0, r7, lsr #19
    2194:	0000054d 	andeq	r0, r0, sp, asr #10
    2198:	00008db4 			; <UNDEFINED> instruction: 0x00008db4
    219c:	0000003c 	andeq	r0, r0, ip, lsr r0
    21a0:	00000f68 	andeq	r0, r0, r8, ror #30
    21a4:	69050402 	stmdbvs	r5, {r1, sl}
    21a8:	0300746e 	movweq	r7, #1134	; 0x46e
    21ac:	00860704 	addeq	r0, r6, r4, lsl #14
    21b0:	01030000 	mrseq	r0, (UNDEF: 3)
    21b4:	00003506 	andeq	r3, r0, r6, lsl #10
    21b8:	05020300 	streq	r0, [r2, #-768]	; 0xfffffd00
    21bc:	00000148 	andeq	r0, r0, r8, asr #2
    21c0:	3f050403 	svccc	0x00050403
    21c4:	03000001 	movweq	r0, #1
    21c8:	013a0508 	teqeq	sl, r8, lsl #10
    21cc:	01030000 	mrseq	r0, (UNDEF: 3)
    21d0:	00003308 	andeq	r3, r0, r8, lsl #6
    21d4:	07020300 	streq	r0, [r2, -r0, lsl #6]
    21d8:	00000000 	andeq	r0, r0, r0
    21dc:	81070403 	tsthi	r7, r3, lsl #8
    21e0:	03000000 	movweq	r0, #0
    21e4:	007c0708 	rsbseq	r0, ip, r8, lsl #14
    21e8:	25040000 	strcs	r0, [r4, #-0]
    21ec:	7a000000 	bvc	21f4 <__code_start__-0x5e0c>
    21f0:	05000000 	streq	r0, [r0, #-0]
    21f4:	00000025 	andeq	r0, r0, r5, lsr #32
    21f8:	06b70600 	ldrteq	r0, [r7], r0, lsl #12
    21fc:	1c020000 	stcne	0, cr0, [r2], {-0}
    2200:	0000860e 	andeq	r8, r0, lr, lsl #12
    2204:	6b040700 	blvs	103e0c <__bss_end__+0xfa9b4>
    2208:	03000000 	movweq	r0, #0
    220c:	003c0801 	eorseq	r0, ip, r1, lsl #16
    2210:	7a080000 	bvc	202218 <__bss_end__+0x1f8dc0>
    2214:	01000000 	mrseq	r0, (UNDEF: 0)
    2218:	03050706 	movweq	r0, #22278	; 0x5706
    221c:	0000904c 	andeq	r9, r0, ip, asr #32
    2220:	00099a09 	andeq	r9, r9, r9, lsl #20
    2224:	060b0100 	streq	r0, [fp], -r0, lsl #2
    2228:	00008de0 	andeq	r8, r0, r0, ror #27
    222c:	00000010 	andeq	r0, r0, r0, lsl r0
    2230:	00c59c01 	sbceq	r9, r5, r1, lsl #24
    2234:	660a0000 	strvs	r0, [sl], -r0
    2238:	0b010070 	bleq	42400 <__bss_end__+0x38fa8>
    223c:	00008619 	andeq	r8, r0, r9, lsl r6
    2240:	00500100 	subseq	r0, r0, r0, lsl #2
    2244:	0009b80b 	andeq	fp, r9, fp, lsl #16
    2248:	06080100 	streq	r0, [r8], -r0, lsl #2
    224c:	00008dc8 	andeq	r8, r0, r8, asr #27
    2250:	00000018 	andeq	r0, r0, r8, lsl r0
    2254:	890c9c01 	stmdbhi	ip, {r0, sl, fp, ip, pc}
    2258:	01000009 	tsteq	r0, r9
    225c:	00250c03 	eoreq	r0, r5, r3, lsl #24
    2260:	8db40000 	ldchi	0, cr0, [r4]
    2264:	00140000 	andseq	r0, r4, r0
    2268:	9c010000 	stcls	0, cr0, [r1], {-0}
    226c:	00000114 	andeq	r0, r0, r4, lsl r1
    2270:	0100630d 	tsteq	r0, sp, lsl #6
    2274:	00252103 	eoreq	r2, r5, r3, lsl #2
    2278:	0c670000 	stcleq	0, cr0, [r7], #-0
    227c:	0c630000 	stcleq	0, cr0, [r3], #-0
    2280:	c00e0000 	andgt	r0, lr, r0
    2284:	1400008d 	strne	r0, [r0], #-141	; 0xffffff73
    2288:	0f000001 	svceq	0x00000001
    228c:	74025001 	strvc	r5, [r2], #-1
    2290:	10000000 	andne	r0, r0, r0
    2294:	000005ca 	andeq	r0, r0, sl, asr #11
    2298:	000005ca 	andeq	r0, r0, sl, asr #11
    229c:	00064202 	andeq	r4, r6, r2, lsl #4
    22a0:	000000f5 	strdeq	r0, [r0], -r5
    22a4:	0c3f0004 	ldceq	0, cr0, [pc], #-16	; 229c <__code_start__-0x5d64>
    22a8:	01040000 	mrseq	r0, (UNDEF: 4)
    22ac:	0000038a 	andeq	r0, r0, sl, lsl #7
    22b0:	0009cc0c 	andeq	ip, r9, ip, lsl #24
    22b4:	00054d00 	andeq	r4, r5, r0, lsl #26
    22b8:	008df000 	addeq	pc, sp, r0
    22bc:	00003400 	andeq	r3, r0, r0, lsl #8
    22c0:	000fff00 	andeq	pc, pc, r0, lsl #30
    22c4:	05040200 	streq	r0, [r4, #-512]	; 0xfffffe00
    22c8:	00746e69 	rsbseq	r6, r4, r9, ror #28
    22cc:	86070403 	strhi	r0, [r7], -r3, lsl #8
    22d0:	03000000 	movweq	r0, #0
    22d4:	00350601 	eorseq	r0, r5, r1, lsl #12
    22d8:	02030000 	andeq	r0, r3, #0
    22dc:	00014805 	andeq	r4, r1, r5, lsl #16
    22e0:	05040300 	streq	r0, [r4, #-768]	; 0xfffffd00
    22e4:	0000013f 	andeq	r0, r0, pc, lsr r1
    22e8:	3a050803 	bcc	1442fc <__bss_end__+0x13aea4>
    22ec:	03000001 	movweq	r0, #1
    22f0:	00330801 	eorseq	r0, r3, r1, lsl #16
    22f4:	02030000 	andeq	r0, r3, #0
    22f8:	00000007 	andeq	r0, r0, r7
    22fc:	07040300 	streq	r0, [r4, -r0, lsl #6]
    2300:	00000081 	andeq	r0, r0, r1, lsl #1
    2304:	7c070803 	stcvc	8, cr0, [r7], {3}
    2308:	04000000 	streq	r0, [r0], #-0
    230c:	00007804 	andeq	r7, r0, r4, lsl #16
    2310:	08010300 	stmdaeq	r1, {r8, r9}
    2314:	0000003c 	andeq	r0, r0, ip, lsr r0
    2318:	00007105 	andeq	r7, r0, r5, lsl #2
    231c:	07320600 	ldreq	r0, [r2, -r0, lsl #12]!
    2320:	04010000 	streq	r0, [r1], #-0
    2324:	0000f207 	andeq	pc, r0, r7, lsl #4
    2328:	008df000 	addeq	pc, sp, r0
    232c:	00003400 	andeq	r3, r0, r0, lsl #8
    2330:	f29c0100 	vaddw.s16	q0, q6, d0
    2334:	07000000 	streq	r0, [r0, -r0]
    2338:	000009c7 	andeq	r0, r0, r7, asr #19
    233c:	f2150401 	vshl.s16	d0, d1, d5
    2340:	01000000 	mrseq	r0, (UNDEF: 0)
    2344:	72730850 	rsbsvc	r0, r3, #80, 16	; 0x500000
    2348:	04010063 	streq	r0, [r1], #-99	; 0xffffff9d
    234c:	00006b27 	andeq	r6, r0, r7, lsr #22
    2350:	000c8900 	andeq	r8, ip, r0, lsl #18
    2354:	000c8500 	andeq	r8, ip, r0, lsl #10
    2358:	31730900 	cmncc	r3, r0, lsl #18
    235c:	0b050100 	bleq	142764 <__bss_end__+0x13930c>
    2360:	000000f2 	strdeq	r0, [r0], -r2
    2364:	00000cb4 			; <UNDEFINED> instruction: 0x00000cb4
    2368:	00000caa 	andeq	r0, r0, sl, lsr #25
    236c:	00327309 	eorseq	r7, r2, r9, lsl #6
    2370:	6b110601 	blvs	443b7c <__bss_end__+0x43a724>
    2374:	f9000000 			; <UNDEFINED> instruction: 0xf9000000
    2378:	f500000c 			; <UNDEFINED> instruction: 0xf500000c
    237c:	0900000c 	stmdbeq	r0, {r2, r3}
    2380:	07010063 	streq	r0, [r1, -r3, rrx]
    2384:	0000710a 	andeq	r7, r0, sl, lsl #2
    2388:	000d1d00 	andeq	r1, sp, r0, lsl #26
    238c:	000d1900 	andeq	r1, sp, r0, lsl #18
    2390:	04040000 	streq	r0, [r4], #-0
    2394:	00000071 	andeq	r0, r0, r1, ror r0
    2398:	0000b500 	andeq	fp, r0, r0, lsl #10
    239c:	d0000400 	andle	r0, r0, r0, lsl #8
    23a0:	0400000c 	streq	r0, [r0], #-12
    23a4:	00038a01 	andeq	r8, r3, r1, lsl #20
    23a8:	09dc0c00 	ldmibeq	ip, {sl, fp}^
    23ac:	054d0000 	strbeq	r0, [sp, #-0]
    23b0:	8e240000 	cdphi	0, 2, cr0, cr4, cr0, {0}
    23b4:	00300000 	eorseq	r0, r0, r0
    23b8:	10b40000 	adcsne	r0, r4, r0
    23bc:	04020000 	streq	r0, [r2], #-0
    23c0:	746e6905 	strbtvc	r6, [lr], #-2309	; 0xfffff6fb
    23c4:	07040300 	streq	r0, [r4, -r0, lsl #6]
    23c8:	00000086 	andeq	r0, r0, r6, lsl #1
    23cc:	35060103 	strcc	r0, [r6, #-259]	; 0xfffffefd
    23d0:	03000000 	movweq	r0, #0
    23d4:	01480502 	cmpeq	r8, r2, lsl #10
    23d8:	04030000 	streq	r0, [r3], #-0
    23dc:	00013f05 	andeq	r3, r1, r5, lsl #30
    23e0:	05080300 	streq	r0, [r8, #-768]	; 0xfffffd00
    23e4:	0000013a 	andeq	r0, r0, sl, lsr r1
    23e8:	33080103 	movwcc	r0, #33027	; 0x8103
    23ec:	03000000 	movweq	r0, #0
    23f0:	00000702 	andeq	r0, r0, r2, lsl #14
    23f4:	04030000 	streq	r0, [r3], #-0
    23f8:	00008107 	andeq	r8, r0, r7, lsl #2
    23fc:	07080300 	streq	r0, [r8, -r0, lsl #6]
    2400:	0000007c 	andeq	r0, r0, ip, ror r0
    2404:	00780404 	rsbseq	r0, r8, r4, lsl #8
    2408:	01030000 	mrseq	r0, (UNDEF: 3)
    240c:	00003c08 	andeq	r3, r0, r8, lsl #24
    2410:	00710500 	rsbseq	r0, r1, r0, lsl #10
    2414:	5b060000 	blpl	18241c <__bss_end__+0x178fc4>
    2418:	01000007 	tsteq	r0, r7
    241c:	00250503 	eoreq	r0, r5, r3, lsl #10
    2420:	8e240000 	cdphi	0, 2, cr0, cr4, cr0, {0}
    2424:	00300000 	eorseq	r0, r0, r0
    2428:	9c010000 	stcls	0, cr0, [r1], {-0}
    242c:	01006107 	tsteq	r0, r7, lsl #2
    2430:	006b1803 	rsbeq	r1, fp, r3, lsl #16
    2434:	0d3f0000 	ldceq	0, cr0, [pc, #-0]	; 243c <__code_start__-0x5bc4>
    2438:	0d3b0000 	ldceq	0, cr0, [fp, #-0]
    243c:	62070000 	andvs	r0, r7, #0
    2440:	27030100 	strcs	r0, [r3, -r0, lsl #2]
    2444:	0000006b 	andeq	r0, r0, fp, rrx
    2448:	00000d61 	andeq	r0, r0, r1, ror #26
    244c:	00000d5d 	andeq	r0, r0, sp, asr sp
    2450:	00cd0000 	sbceq	r0, sp, r0
    2454:	00040000 	andeq	r0, r4, r0
    2458:	00000d3a 	andeq	r0, r0, sl, lsr sp
    245c:	038a0104 	orreq	r0, sl, #4, 2
    2460:	ec0c0000 	stc	0, cr0, [ip], {-0}
    2464:	4d000009 	stcmi	0, cr0, [r0, #-36]	; 0xffffffdc
    2468:	54000005 	strpl	r0, [r0], #-5
    246c:	2000008e 	andcs	r0, r0, lr, lsl #1
    2470:	26000000 	strcs	r0, [r0], -r0
    2474:	02000011 	andeq	r0, r0, #17
    2478:	6e690504 	cdpvs	5, 6, cr0, cr9, cr4, {0}
    247c:	04030074 	streq	r0, [r3], #-116	; 0xffffff8c
    2480:	00008607 	andeq	r8, r0, r7, lsl #12
    2484:	06010300 	streq	r0, [r1], -r0, lsl #6
    2488:	00000035 	andeq	r0, r0, r5, lsr r0
    248c:	48050203 	stmdami	r5, {r0, r1, r9}
    2490:	03000001 	movweq	r0, #1
    2494:	013f0504 	teqeq	pc, r4, lsl #10
    2498:	08030000 	stmdaeq	r3, {}	; <UNPREDICTABLE>
    249c:	00013a05 	andeq	r3, r1, r5, lsl #20
    24a0:	08010300 	stmdaeq	r1, {r8, r9}
    24a4:	00000033 	andeq	r0, r0, r3, lsr r0
    24a8:	00070203 	andeq	r0, r7, r3, lsl #4
    24ac:	03000000 	movweq	r0, #0
    24b0:	00810704 	addeq	r0, r1, r4, lsl #14
    24b4:	08030000 	stmdaeq	r3, {}	; <UNPREDICTABLE>
    24b8:	00007c07 	andeq	r7, r0, r7, lsl #24
    24bc:	78040400 	stmdavc	r4, {sl}
    24c0:	03000000 	movweq	r0, #0
    24c4:	003c0801 	eorseq	r0, ip, r1, lsl #16
    24c8:	71050000 	mrsvc	r0, (UNDEF: 5)
    24cc:	06000000 	streq	r0, [r0], -r0
    24d0:	00000739 	andeq	r0, r0, r9, lsr r7
    24d4:	ca070301 	bgt	1c30e0 <__bss_end__+0x1b9c88>
    24d8:	54000000 	strpl	r0, [r0], #-0
    24dc:	2000008e 	andcs	r0, r0, lr, lsl #1
    24e0:	01000000 	mrseq	r0, (UNDEF: 0)
    24e4:	0000ca9c 	muleq	r0, ip, sl
    24e8:	31730700 	cmncc	r3, r0, lsl #14
    24ec:	15030100 	strne	r0, [r3, #-256]	; 0xffffff00
    24f0:	000000ca 	andeq	r0, r0, sl, asr #1
    24f4:	73085001 	movwvc	r5, #32769	; 0x8001
    24f8:	03010032 	movweq	r0, #4146	; 0x1032
    24fc:	00006b26 	andeq	r6, r0, r6, lsr #22
    2500:	000d8500 	andeq	r8, sp, r0, lsl #10
    2504:	000d7f00 	andeq	r7, sp, r0, lsl #30
    2508:	00730900 	rsbseq	r0, r3, r0, lsl #18
    250c:	ca140401 	bgt	503518 <__bss_end__+0x4fa0c0>
    2510:	b6000000 	strlt	r0, [r0], -r0
    2514:	b000000d 	andlt	r0, r0, sp
    2518:	0000000d 	andeq	r0, r0, sp
    251c:	00710404 	rsbseq	r0, r1, r4, lsl #8
    2520:	0c000000 	stceq	0, cr0, [r0], {-0}
    2524:	04000001 	streq	r0, [r0], #-1
    2528:	000dcb00 	andeq	ip, sp, r0, lsl #22
    252c:	8a010400 	bhi	43534 <__bss_end__+0x3a0dc>
    2530:	0c000003 	stceq	0, cr0, [r0], {3}
    2534:	00000a03 	andeq	r0, r0, r3, lsl #20
    2538:	0000054d 	andeq	r0, r0, sp, asr #10
    253c:	00000010 	andeq	r0, r0, r0, lsl r0
    2540:	00000000 	andeq	r0, r0, r0
    2544:	00001192 	muleq	r0, r2, r1
    2548:	69050402 	stmdbvs	r5, {r1, sl}
    254c:	0300746e 	movweq	r7, #1134	; 0x46e
    2550:	000009fc 	strdeq	r0, [r0], -ip
    2554:	3817d102 	ldmdacc	r7, {r1, r8, ip, lr, pc}
    2558:	04000000 	streq	r0, [r0], #-0
    255c:	00860704 	addeq	r0, r6, r4, lsl #14
    2560:	01040000 	mrseq	r0, (UNDEF: 4)
    2564:	00003506 	andeq	r3, r0, r6, lsl #10
    2568:	05020400 	streq	r0, [r2, #-1024]	; 0xfffffc00
    256c:	00000148 	andeq	r0, r0, r8, asr #2
    2570:	3f050404 	svccc	0x00050404
    2574:	04000001 	streq	r0, [r0], #-1
    2578:	013a0508 	teqeq	sl, r8, lsl #10
    257c:	01040000 	mrseq	r0, (UNDEF: 4)
    2580:	00003308 	andeq	r3, r0, r8, lsl #6
    2584:	005b0500 	subseq	r0, fp, r0, lsl #10
    2588:	02040000 	andeq	r0, r4, #0
    258c:	00000007 	andeq	r0, r0, r7
    2590:	07040400 	streq	r0, [r4, -r0, lsl #8]
    2594:	00000081 	andeq	r0, r0, r1, lsl #1
    2598:	7c070804 	stcvc	8, cr0, [r7], {4}
    259c:	06000000 	streq	r0, [r0], -r0
    25a0:	00008904 	andeq	r8, r0, r4, lsl #18
    25a4:	08010400 	stmdaeq	r1, {sl}
    25a8:	0000003c 	andeq	r0, r0, ip, lsr r0
    25ac:	00008205 	andeq	r8, r0, r5, lsl #4
    25b0:	07670700 	strbeq	r0, [r7, -r0, lsl #14]!
    25b4:	04010000 	streq	r0, [r1], #-0
    25b8:	00002505 	andeq	r2, r0, r5, lsl #10
    25bc:	008e7400 	addeq	r7, lr, r0, lsl #8
    25c0:	00002c00 	andeq	r2, r0, r0, lsl #24
    25c4:	099c0100 	ldmibeq	ip, {r8}
    25c8:	08000001 	stmdaeq	r0, {r0}
    25cc:	0031735f 	eorseq	r7, r1, pc, asr r3
    25d0:	7c190401 	cfldrsvc	mvf0, [r9], {1}
    25d4:	e5000000 	str	r0, [r0, #-0]
    25d8:	e100000d 	tst	r0, sp
    25dc:	0800000d 	stmdaeq	r0, {r0, r2, r3}
    25e0:	0032735f 	eorseq	r7, r2, pc, asr r3
    25e4:	7c2a0401 	cfstrsvc	mvf0, [sl], #-4
    25e8:	0a000000 	beq	25f0 <__code_start__-0x5a10>
    25ec:	0600000e 	streq	r0, [r0], -lr
    25f0:	0800000e 	stmdaeq	r0, {r1, r2, r3}
    25f4:	0401006e 	streq	r0, [r1], #-110	; 0xffffff92
    25f8:	00002c36 	andeq	r2, r0, r6, lsr ip
    25fc:	000e3100 	andeq	r3, lr, r0, lsl #2
    2600:	000e2b00 	andeq	r2, lr, r0, lsl #22
    2604:	31730900 	cmncc	r3, r0, lsl #18
    2608:	1a050100 	bne	142a10 <__bss_end__+0x1395b8>
    260c:	00000109 	andeq	r0, r0, r9, lsl #2
    2610:	00000e64 	andeq	r0, r0, r4, ror #28
    2614:	00000e5c 	andeq	r0, r0, ip, asr lr
    2618:	00327309 	eorseq	r7, r2, r9, lsl #6
    261c:	092c0501 	stmdbeq	ip!, {r0, r8, sl}
    2620:	a0000001 	andge	r0, r0, r1
    2624:	9a00000e 	bls	2664 <__code_start__-0x599c>
    2628:	0000000e 	andeq	r0, r0, lr
    262c:	00620406 	rsbeq	r0, r2, r6, lsl #8
    2630:	81000000 	mrshi	r0, (UNDEF: 0)
    2634:	04000000 	streq	r0, [r0], #-0
    2638:	000e5a00 	andeq	r5, lr, r0, lsl #20
    263c:	8a010400 	bhi	43644 <__bss_end__+0x3a1ec>
    2640:	0c000003 	stceq	0, cr0, [r0], {3}
    2644:	00000a14 	andeq	r0, r0, r4, lsl sl
    2648:	0000054d 	andeq	r0, r0, sp, asr #10
    264c:	00008ea0 	andeq	r8, r0, r0, lsr #29
    2650:	00000004 	andeq	r0, r0, r4
    2654:	00001253 	andeq	r1, r0, r3, asr r2
    2658:	69050402 	stmdbvs	r5, {r1, sl}
    265c:	0300746e 	movweq	r7, #1134	; 0x46e
    2660:	00860704 	addeq	r0, r6, r4, lsl #14
    2664:	01030000 	mrseq	r0, (UNDEF: 3)
    2668:	00003506 	andeq	r3, r0, r6, lsl #10
    266c:	05020300 	streq	r0, [r2, #-768]	; 0xfffffd00
    2670:	00000148 	andeq	r0, r0, r8, asr #2
    2674:	3f050403 	svccc	0x00050403
    2678:	03000001 	movweq	r0, #1
    267c:	013a0508 	teqeq	sl, r8, lsl #10
    2680:	01030000 	mrseq	r0, (UNDEF: 3)
    2684:	00003308 	andeq	r3, r0, r8, lsl #6
    2688:	07020300 	streq	r0, [r2, -r0, lsl #6]
    268c:	00000000 	andeq	r0, r0, r0
    2690:	81070403 	tsthi	r7, r3, lsl #8
    2694:	03000000 	movweq	r0, #0
    2698:	007c0708 	rsbseq	r0, ip, r8, lsl #14
    269c:	01030000 	mrseq	r0, (UNDEF: 3)
    26a0:	00003c08 	andeq	r3, r0, r8, lsl #24
    26a4:	081d0400 	ldmdaeq	sp, {sl}
    26a8:	03010000 	movweq	r0, #4096	; 0x1000
    26ac:	008ea006 	addeq	sl, lr, r6
    26b0:	00000400 	andeq	r0, r0, r0, lsl #8
    26b4:	009c0100 	addseq	r0, ip, r0, lsl #2

Disassembly of section .debug_abbrev:

00000000 <.debug_abbrev>:
   0:	25011101 	strcs	r1, [r1, #-257]	; 0xfffffeff
   4:	030b130e 	movweq	r1, #45838	; 0xb30e
   8:	110e1b0e 	tstne	lr, lr, lsl #22
   c:	10061201 	andne	r1, r6, r1, lsl #4
  10:	02000017 	andeq	r0, r0, #23
  14:	0b0b0024 	bleq	2c00ac <__bss_end__+0x2b6c54>
  18:	08030b3e 	stmdaeq	r3, {r1, r2, r3, r4, r5, r8, r9, fp}
  1c:	24030000 	strcs	r0, [r3], #-0
  20:	3e0b0b00 	vmlacc.f64	d0, d11, d0
  24:	000e030b 	andeq	r0, lr, fp, lsl #6
  28:	012e0400 			; <UNDEFINED> instruction: 0x012e0400
  2c:	0e03193f 			; <UNDEFINED> instruction: 0x0e03193f
  30:	0b3b0b3a 	bleq	ec2d20 <__bss_end__+0xeb98c8>
  34:	19270b39 	stmdbne	r7!, {r0, r3, r4, r5, r8, r9, fp}
  38:	06120111 			; <UNDEFINED> instruction: 0x06120111
  3c:	42971840 	addsmi	r1, r7, #64, 16	; 0x400000
  40:	00130119 	andseq	r0, r3, r9, lsl r1
  44:	82890500 	addhi	r0, r9, #0, 10
  48:	01110001 	tsteq	r1, r1
  4c:	00001331 	andeq	r1, r0, r1, lsr r3
  50:	01828906 	orreq	r8, r2, r6, lsl #18
  54:	31011101 	tstcc	r1, r1, lsl #2
  58:	00130113 	andseq	r0, r3, r3, lsl r1
  5c:	828a0700 	addhi	r0, sl, #0, 14
  60:	18020001 	stmdane	r2, {r0}
  64:	00184291 	mulseq	r8, r1, r2
  68:	002e0800 	eoreq	r0, lr, r0, lsl #16
  6c:	193c193f 	ldmdbne	ip!, {r0, r1, r2, r3, r4, r5, r8, fp, ip}
  70:	0e030e6e 	cdpeq	14, 0, cr0, cr3, cr14, {3}
  74:	0b3b0b3a 	bleq	ec2d64 <__bss_end__+0xeb990c>
  78:	00000b39 	andeq	r0, r0, r9, lsr fp
  7c:	01110100 	tsteq	r1, r0, lsl #2
  80:	0b130e25 	bleq	4c391c <__bss_end__+0x4ba4c4>
  84:	0e1b0e03 	cdpeq	14, 1, cr0, cr11, cr3, {0}
  88:	06120111 			; <UNDEFINED> instruction: 0x06120111
  8c:	00001710 	andeq	r1, r0, r0, lsl r7
  90:	0b002402 	bleq	90a0 <buf.0+0x4c>
  94:	030b3e0b 	movweq	r3, #48651	; 0xbe0b
  98:	03000008 	movweq	r0, #8
  9c:	0b0b0024 	bleq	2c0134 <__bss_end__+0x2b6cdc>
  a0:	0e030b3e 	vmoveq.16	d3[0], r0
  a4:	26040000 	strcs	r0, [r4], -r0
  a8:	00134900 	andseq	r4, r3, r0, lsl #18
  ac:	00160500 	andseq	r0, r6, r0, lsl #10
  b0:	0b3a0e03 	bleq	e838c4 <__bss_end__+0xe7a46c>
  b4:	0b390b3b 	bleq	e42da8 <__bss_end__+0xe39950>
  b8:	00001349 	andeq	r1, r0, r9, asr #6
  bc:	3e010406 	cdpcc	4, 0, cr0, cr1, cr6, {0}
  c0:	490b0b0b 	stmdbmi	fp, {r0, r1, r3, r8, r9, fp}
  c4:	3b0b3a13 	blcc	2ce918 <__bss_end__+0x2c54c0>
  c8:	010b390b 	tsteq	fp, fp, lsl #18
  cc:	07000013 	smladeq	r0, r3, r0, r0
  d0:	0e030028 	cdpeq	0, 0, cr0, cr3, cr8, {1}
  d4:	00000b1c 	andeq	r0, r0, ip, lsl fp
  d8:	03003408 	movweq	r3, #1032	; 0x408
  dc:	3b0b3a0e 	blcc	2ce91c <__bss_end__+0x2c54c4>
  e0:	490b390b 	stmdbmi	fp, {r0, r1, r3, r8, fp, ip, sp}
  e4:	00061c13 	andeq	r1, r6, r3, lsl ip
  e8:	01130900 	tsteq	r3, r0, lsl #18
  ec:	0b0b0e03 	bleq	2c3900 <__bss_end__+0x2ba4a8>
  f0:	0b3b0b3a 	bleq	ec2de0 <__bss_end__+0xeb9988>
  f4:	13010b39 	movwne	r0, #6969	; 0x1b39
  f8:	0d0a0000 	stceq	0, cr0, [sl, #-0]
  fc:	3a0e0300 	bcc	380d04 <__bss_end__+0x3778ac>
 100:	390b3b0b 	stmdbcc	fp, {r0, r1, r3, r8, r9, fp, ip, sp}
 104:	0b13490b 	bleq	4d2538 <__bss_end__+0x4c90e0>
 108:	0c0b0d0b 	stceq	13, cr0, [fp], {11}
 10c:	000b380b 	andeq	r3, fp, fp, lsl #16
 110:	000d0b00 	andeq	r0, sp, r0, lsl #22
 114:	0b3a0e03 	bleq	e83928 <__bss_end__+0xe7a4d0>
 118:	0b39053b 	bleq	e4160c <__bss_end__+0xe381b4>
 11c:	0b0b1349 	bleq	2c4e48 <__bss_end__+0x2bb9f0>
 120:	0b0c0b0d 	bleq	302d5c <__bss_end__+0x2f9904>
 124:	00000b38 	andeq	r0, r0, r8, lsr fp
 128:	0300160c 	movweq	r1, #1548	; 0x60c
 12c:	3b0b3a0e 	blcc	2ce96c <__bss_end__+0x2c5514>
 130:	490b3905 	stmdbmi	fp, {r0, r2, r8, fp, ip, sp}
 134:	0d000013 	stceq	0, cr0, [r0, #-76]	; 0xffffffb4
 138:	0e030113 	mcreq	1, 0, r0, cr3, cr3, {0}
 13c:	0b3a0b0b 	bleq	e82d70 <__bss_end__+0xe79918>
 140:	0b39053b 	bleq	e41634 <__bss_end__+0xe381dc>
 144:	00001301 	andeq	r1, r0, r1, lsl #6
 148:	0b01170e 	bleq	45d88 <__bss_end__+0x3c930>
 14c:	3b0b3a0b 	blcc	2ce980 <__bss_end__+0x2c5528>
 150:	010b3905 	tsteq	fp, r5, lsl #18
 154:	0f000013 	svceq	0x00000013
 158:	0e03000d 	cdpeq	0, 0, cr0, cr3, cr13, {0}
 15c:	053b0b3a 	ldreq	r0, [fp, #-2874]!	; 0xfffff4c6
 160:	13490b39 	movtne	r0, #39737	; 0x9b39
 164:	0d100000 	ldceq	0, cr0, [r0, #-0]
 168:	38134900 	ldmdacc	r3, {r8, fp, lr}
 16c:	1100000b 	tstne	r0, fp
 170:	0803000d 	stmdaeq	r3, {r0, r2, r3}
 174:	053b0b3a 	ldreq	r0, [fp, #-2874]!	; 0xfffff4c6
 178:	13490b39 	movtne	r0, #39737	; 0x9b39
 17c:	00000b38 	andeq	r0, r0, r8, lsr fp
 180:	49010112 	stmdbmi	r1, {r1, r4, r8}
 184:	00130113 	andseq	r0, r3, r3, lsl r1
 188:	00211300 	eoreq	r1, r1, r0, lsl #6
 18c:	0b2f1349 	bleq	bc4eb8 <__bss_end__+0xbbba60>
 190:	34140000 	ldrcc	r0, [r4], #-0
 194:	3a0e0300 	bcc	380d9c <__bss_end__+0x377944>
 198:	39053b0b 	stmdbcc	r5, {r0, r1, r3, r8, r9, fp, ip, sp}
 19c:	0213490b 	andseq	r4, r3, #180224	; 0x2c000
 1a0:	15000018 	strne	r0, [r0, #-24]	; 0xffffffe8
 1a4:	0b0b000f 	bleq	2c01e8 <__bss_end__+0x2b6d90>
 1a8:	00001349 	andeq	r1, r0, r9, asr #6
 1ac:	3f012e16 	svccc	0x00012e16
 1b0:	3a0e0319 	bcc	380e1c <__bss_end__+0x3779c4>
 1b4:	39053b0b 	stmdbcc	r5, {r0, r1, r3, r8, r9, fp, ip, sp}
 1b8:	1119270b 	tstne	r9, fp, lsl #14
 1bc:	40061201 	andmi	r1, r6, r1, lsl #4
 1c0:	19429718 	stmdbne	r2, {r3, r4, r8, r9, sl, ip, pc}^
 1c4:	00001301 	andeq	r1, r0, r1, lsl #6
 1c8:	01828917 	orreq	r8, r2, r7, lsl r9
 1cc:	31011101 	tstcc	r1, r1, lsl #2
 1d0:	00130113 	andseq	r0, r3, r3, lsl r1
 1d4:	828a1800 	addhi	r1, sl, #0, 16
 1d8:	18020001 	stmdane	r2, {r0}
 1dc:	00184291 	mulseq	r8, r1, r2
 1e0:	82891900 	addhi	r1, r9, #0, 18
 1e4:	01110001 	tsteq	r1, r1
 1e8:	00001331 	andeq	r1, r0, r1, lsr r3
 1ec:	3f012e1a 	svccc	0x00012e1a
 1f0:	3a0e0319 	bcc	380e5c <__bss_end__+0x377a04>
 1f4:	39053b0b 	stmdbcc	r5, {r0, r1, r3, r8, r9, fp, ip, sp}
 1f8:	4919270b 	ldmdbmi	r9, {r0, r1, r3, r8, r9, sl, sp}
 1fc:	12011113 	andne	r1, r1, #-1073741820	; 0xc0000004
 200:	97184006 	ldrls	r4, [r8, -r6]
 204:	13011942 	movwne	r1, #6466	; 0x1942
 208:	341b0000 	ldrcc	r0, [fp], #-0
 20c:	3a080300 	bcc	200e14 <__bss_end__+0x1f79bc>
 210:	39053b0b 	stmdbcc	r5, {r0, r1, r3, r8, r9, fp, ip, sp}
 214:	0213490b 	andseq	r4, r3, #180224	; 0x2c000
 218:	1c000018 	stcne	0, cr0, [r0], {24}
 21c:	0e030034 	mcreq	0, 0, r0, cr3, cr4, {1}
 220:	053b0b3a 	ldreq	r0, [fp, #-2874]!	; 0xfffff4c6
 224:	13490b39 	movtne	r0, #39737	; 0x9b39
 228:	42b71702 	adcsmi	r1, r7, #524288	; 0x80000
 22c:	1d000017 	stcne	0, cr0, [r0, #-92]	; 0xffffffa4
 230:	01018289 	smlabbeq	r1, r9, r2, r8
 234:	13310111 	teqne	r1, #1073741828	; 0x40000004
 238:	051e0000 	ldreq	r0, [lr, #-0]
 23c:	3a080300 	bcc	200e44 <__bss_end__+0x1f79ec>
 240:	39053b0b 	stmdbcc	r5, {r0, r1, r3, r8, r9, fp, ip, sp}
 244:	0213490b 	andseq	r4, r3, #180224	; 0x2c000
 248:	1742b717 	smlaldne	fp, r2, r7, r7
 24c:	341f0000 	ldrcc	r0, [pc], #-0	; 254 <__code_start__-0x7dac>
 250:	3a080300 	bcc	200e58 <__bss_end__+0x1f7a00>
 254:	39053b0b 	stmdbcc	r5, {r0, r1, r3, r8, r9, fp, ip, sp}
 258:	0213490b 	andseq	r4, r3, #180224	; 0x2c000
 25c:	1742b717 	smlaldne	fp, r2, r7, r7
 260:	2e200000 	cdpcs	0, 2, cr0, cr0, cr0, {0}
 264:	3a0e0301 	bcc	380e70 <__bss_end__+0x377a18>
 268:	39053b0b 	stmdbcc	r5, {r0, r1, r3, r8, r9, fp, ip, sp}
 26c:	4919270b 	ldmdbmi	r9, {r0, r1, r3, r8, r9, sl, sp}
 270:	12011113 	andne	r1, r1, #-1073741820	; 0xc0000004
 274:	97184006 	ldrls	r4, [r8, -r6]
 278:	13011942 	movwne	r1, #6466	; 0x1942
 27c:	2e210000 	cdpcs	0, 2, cr0, cr1, cr0, {0}
 280:	3c193f00 	ldccc	15, cr3, [r9], {-0}
 284:	030e6e19 	movweq	r6, #60953	; 0xee19
 288:	3b0b3a0e 	blcc	2ceac8 <__bss_end__+0x2c5670>
 28c:	000b390b 	andeq	r3, fp, fp, lsl #18
 290:	11010000 	mrsne	r0, (UNDEF: 1)
 294:	130e2501 	movwne	r2, #58625	; 0xe501
 298:	1b0e030b 	blne	380ecc <__bss_end__+0x377a74>
 29c:	1201110e 	andne	r1, r1, #-2147483645	; 0x80000003
 2a0:	00171006 	andseq	r1, r7, r6
 2a4:	00160200 	andseq	r0, r6, r0, lsl #4
 2a8:	0b3a0e03 	bleq	e83abc <__bss_end__+0xe7a664>
 2ac:	0b390b3b 	bleq	e42fa0 <__bss_end__+0xe39b48>
 2b0:	00001349 	andeq	r1, r0, r9, asr #6
 2b4:	03011303 	movweq	r1, #4867	; 0x1303
 2b8:	3a0b0b0e 	bcc	2c2ef8 <__bss_end__+0x2b9aa0>
 2bc:	010b3b0b 	tsteq	fp, fp, lsl #22
 2c0:	04000013 	streq	r0, [r0], #-19	; 0xffffffed
 2c4:	0e03000d 	cdpeq	0, 0, cr0, cr3, cr13, {0}
 2c8:	0b381349 	bleq	e04ff4 <__bss_end__+0xdfbb9c>
 2cc:	00001934 	andeq	r1, r0, r4, lsr r9
 2d0:	0b000f05 	bleq	3eec <__code_start__-0x4114>
 2d4:	0600000b 	streq	r0, [r0], -fp
 2d8:	0b0b0024 	bleq	2c0370 <__bss_end__+0x2b6f18>
 2dc:	08030b3e 	stmdaeq	r3, {r1, r2, r3, r4, r5, r8, r9, fp}
 2e0:	24070000 	strcs	r0, [r7], #-0
 2e4:	3e0b0b00 	vmlacc.f64	d0, d11, d0
 2e8:	000e030b 	andeq	r0, lr, fp, lsl #6
 2ec:	01150800 	tsteq	r5, r0, lsl #16
 2f0:	13491927 	movtne	r1, #39207	; 0x9927
 2f4:	00001301 	andeq	r1, r0, r1, lsl #6
 2f8:	49000509 	stmdbmi	r0, {r0, r3, r8, sl}
 2fc:	0a000013 	beq	350 <__code_start__-0x7cb0>
 300:	0b0b000f 	bleq	2c0344 <__bss_end__+0x2b6eec>
 304:	00001349 	andeq	r1, r0, r9, asr #6
 308:	4900260b 	stmdbmi	r0, {r0, r1, r3, r9, sl, sp}
 30c:	0c000013 	stceq	0, cr0, [r0], {19}
 310:	0e030034 	mcreq	0, 0, r0, cr3, cr4, {1}
 314:	0b3b0b3a 	bleq	ec3004 <__bss_end__+0xeb9bac>
 318:	13490b39 	movtne	r0, #39737	; 0x9b39
 31c:	193c193f 	ldmdbne	ip!, {r0, r1, r2, r3, r4, r5, r8, fp, ip}
 320:	2e0d0000 	cdpcs	0, 0, cr0, cr13, cr0, {0}
 324:	03193f01 	tsteq	r9, #1, 30
 328:	3b0b3a0e 	blcc	2ceb68 <__bss_end__+0x2c5710>
 32c:	270b390b 	strcs	r3, [fp, -fp, lsl #18]
 330:	11134919 	tstne	r3, r9, lsl r9
 334:	40061201 	andmi	r1, r6, r1, lsl #4
 338:	19429718 	stmdbne	r2, {r3, r4, r8, r9, sl, ip, pc}^
 33c:	00001301 	andeq	r1, r0, r1, lsl #6
 340:	0300050e 	movweq	r0, #1294	; 0x50e
 344:	3b0b3a08 	blcc	2ceb6c <__bss_end__+0x2c5714>
 348:	490b390b 	stmdbmi	fp, {r0, r1, r3, r8, fp, ip, sp}
 34c:	00180213 	andseq	r0, r8, r3, lsl r2
 350:	00180f00 	andseq	r0, r8, r0, lsl #30
 354:	34100000 	ldrcc	r0, [r0], #-0
 358:	3a080300 	bcc	200f60 <__bss_end__+0x1f7b08>
 35c:	390b3b0b 	stmdbcc	fp, {r0, r1, r3, r8, r9, fp, ip, sp}
 360:	0213490b 	andseq	r4, r3, #180224	; 0x2c000
 364:	11000018 	tstne	r0, r8, lsl r0
 368:	0e030034 	mcreq	0, 0, r0, cr3, cr4, {1}
 36c:	0b3b0b3a 	bleq	ec305c <__bss_end__+0xeb9c04>
 370:	13490b39 	movtne	r0, #39737	; 0x9b39
 374:	00001802 	andeq	r1, r0, r2, lsl #16
 378:	03003412 	movweq	r3, #1042	; 0x412
 37c:	3b0b3a08 	blcc	2ceba4 <__bss_end__+0x2c574c>
 380:	490b390b 	stmdbmi	fp, {r0, r1, r3, r8, fp, ip, sp}
 384:	b7170213 			; <UNDEFINED> instruction: 0xb7170213
 388:	00001742 	andeq	r1, r0, r2, asr #14
 38c:	01828913 	orreq	r8, r2, r3, lsl r9
 390:	31011101 	tstcc	r1, r1, lsl #2
 394:	00130113 	andseq	r0, r3, r3, lsl r1
 398:	828a1400 	addhi	r1, sl, #0, 8
 39c:	18020001 	stmdane	r2, {r0}
 3a0:	00184291 	mulseq	r8, r1, r2
 3a4:	82891500 	addhi	r1, r9, #0, 10
 3a8:	01110101 	tsteq	r1, r1, lsl #2
 3ac:	01160000 	tsteq	r6, r0
 3b0:	01134901 	tsteq	r3, r1, lsl #18
 3b4:	17000013 	smladne	r0, r3, r0, r0
 3b8:	13490021 	movtne	r0, #36897	; 0x9021
 3bc:	0000052f 	andeq	r0, r0, pc, lsr #10
 3c0:	3f002e18 	svccc	0x00002e18
 3c4:	6e193c19 	mrcvs	12, 0, r3, cr9, cr9, {0}
 3c8:	3a0e030e 	bcc	381008 <__bss_end__+0x377bb0>
 3cc:	390b3b0b 	stmdbcc	fp, {r0, r1, r3, r8, r9, fp, ip, sp}
 3d0:	0000000b 	andeq	r0, r0, fp
 3d4:	25011101 	strcs	r1, [r1, #-257]	; 0xfffffeff
 3d8:	030b130e 	movweq	r1, #45838	; 0xb30e
 3dc:	110e1b0e 	tstne	lr, lr, lsl #22
 3e0:	10061201 	andne	r1, r6, r1, lsl #4
 3e4:	02000017 	andeq	r0, r0, #23
 3e8:	0b0b0024 	bleq	2c0480 <__bss_end__+0x2b7028>
 3ec:	08030b3e 	stmdaeq	r3, {r1, r2, r3, r4, r5, r8, r9, fp}
 3f0:	24030000 	strcs	r0, [r3], #-0
 3f4:	3e0b0b00 	vmlacc.f64	d0, d11, d0
 3f8:	000e030b 	andeq	r0, lr, fp, lsl #6
 3fc:	01150400 	tsteq	r5, r0, lsl #8
 400:	13491927 	movtne	r1, #39207	; 0x9927
 404:	00001301 	andeq	r1, r0, r1, lsl #6
 408:	49000505 	stmdbmi	r0, {r0, r2, r8, sl}
 40c:	06000013 			; <UNDEFINED> instruction: 0x06000013
 410:	0e030034 	mcreq	0, 0, r0, cr3, cr4, {1}
 414:	0b3b0b3a 	bleq	ec3104 <__bss_end__+0xeb9cac>
 418:	13490b39 	movtne	r0, #39737	; 0x9b39
 41c:	193c193f 	ldmdbne	ip!, {r0, r1, r2, r3, r4, r5, r8, fp, ip}
 420:	0f070000 	svceq	0x00070000
 424:	490b0b00 	stmdbmi	fp, {r8, r9, fp}
 428:	08000013 	stmdaeq	r0, {r0, r1, r4}
 42c:	13490026 	movtne	r0, #36902	; 0x9026
 430:	34090000 	strcc	r0, [r9], #-0
 434:	3a134700 	bcc	4d203c <__bss_end__+0x4c8be4>
 438:	390b3b0b 	stmdbcc	fp, {r0, r1, r3, r8, r9, fp, ip, sp}
 43c:	0018020b 	andseq	r0, r8, fp, lsl #4
 440:	012e0a00 			; <UNDEFINED> instruction: 0x012e0a00
 444:	0e03193f 			; <UNDEFINED> instruction: 0x0e03193f
 448:	0b3b0b3a 	bleq	ec3138 <__bss_end__+0xeb9ce0>
 44c:	19270b39 	stmdbne	r7!, {r0, r3, r4, r5, r8, r9, fp}
 450:	01111349 	tsteq	r1, r9, asr #6
 454:	18400612 	stmdane	r0, {r1, r4, r9, sl}^
 458:	00194296 	mulseq	r9, r6, r2
 45c:	00050b00 	andeq	r0, r5, r0, lsl #22
 460:	0b3a0803 	bleq	e82474 <__bss_end__+0xe7901c>
 464:	0b390b3b 	bleq	e43158 <__bss_end__+0xe39d00>
 468:	17021349 	strne	r1, [r2, -r9, asr #6]
 46c:	001742b7 			; <UNDEFINED> instruction: 0x001742b7
 470:	11010000 	mrsne	r0, (UNDEF: 1)
 474:	130e2501 	movwne	r2, #58625	; 0xe501
 478:	1b0e030b 	blne	3810ac <__bss_end__+0x377c54>
 47c:	1201110e 	andne	r1, r1, #-2147483645	; 0x80000003
 480:	00171006 	andseq	r1, r7, r6
 484:	00240200 	eoreq	r0, r4, r0, lsl #4
 488:	0b3e0b0b 	bleq	f830bc <__bss_end__+0xf79c64>
 48c:	00000803 	andeq	r0, r0, r3, lsl #16
 490:	0b002403 	bleq	94a4 <__bss_end__+0x4c>
 494:	030b3e0b 	movweq	r3, #48651	; 0xbe0b
 498:	0400000e 	streq	r0, [r0], #-14
 49c:	0e030016 	mcreq	0, 0, r0, cr3, cr6, {0}
 4a0:	0b3b0b3a 	bleq	ec3190 <__bss_end__+0xeb9d38>
 4a4:	13490b39 	movtne	r0, #39737	; 0x9b39
 4a8:	15050000 	strne	r0, [r5, #-0]
 4ac:	49192701 	ldmdbmi	r9, {r0, r8, r9, sl, sp}
 4b0:	00130113 	andseq	r0, r3, r3, lsl r1
 4b4:	00050600 	andeq	r0, r5, r0, lsl #12
 4b8:	00001349 	andeq	r1, r0, r9, asr #6
 4bc:	03003407 	movweq	r3, #1031	; 0x407
 4c0:	3b0b3a0e 	blcc	2ced00 <__bss_end__+0x2c58a8>
 4c4:	490b390b 	stmdbmi	fp, {r0, r1, r3, r8, fp, ip, sp}
 4c8:	3c193f13 	ldccc	15, cr3, [r9], {19}
 4cc:	08000019 	stmdaeq	r0, {r0, r3, r4}
 4d0:	0b0b000f 	bleq	2c0514 <__bss_end__+0x2b70bc>
 4d4:	00001349 	andeq	r1, r0, r9, asr #6
 4d8:	49002609 	stmdbmi	r0, {r0, r3, r9, sl, sp}
 4dc:	0a000013 	beq	530 <__code_start__-0x7ad0>
 4e0:	0e030113 	mcreq	1, 0, r0, cr3, cr3, {0}
 4e4:	0b3a0b0b 	bleq	e83118 <__bss_end__+0xe79cc0>
 4e8:	13010b3b 	movwne	r0, #6971	; 0x1b3b
 4ec:	0d0b0000 	stceq	0, cr0, [fp, #-0]
 4f0:	490e0300 	stmdbmi	lr, {r8, r9}
 4f4:	340b3813 	strcc	r3, [fp], #-2067	; 0xfffff7ed
 4f8:	0c000019 	stceq	0, cr0, [r0], {25}
 4fc:	0b0b000f 	bleq	2c0540 <__bss_end__+0x2b70e8>
 500:	2e0d0000 	cdpcs	0, 0, cr0, cr13, cr0, {0}
 504:	03193f01 	tsteq	r9, #1, 30
 508:	3b0b3a0e 	blcc	2ced48 <__bss_end__+0x2c58f0>
 50c:	270b390b 	strcs	r3, [fp, -fp, lsl #18]
 510:	11134919 	tstne	r3, r9, lsl r9
 514:	40061201 	andmi	r1, r6, r1, lsl #4
 518:	19429718 	stmdbne	r2, {r3, r4, r8, r9, sl, ip, pc}^
 51c:	00001301 	andeq	r1, r0, r1, lsl #6
 520:	0300050e 	movweq	r0, #1294	; 0x50e
 524:	3b0b3a08 	blcc	2ced4c <__bss_end__+0x2c58f4>
 528:	490b390b 	stmdbmi	fp, {r0, r1, r3, r8, fp, ip, sp}
 52c:	b7170213 			; <UNDEFINED> instruction: 0xb7170213
 530:	00001742 	andeq	r1, r0, r2, asr #14
 534:	0300050f 	movweq	r0, #1295	; 0x50f
 538:	3b0b3a0e 	blcc	2ced78 <__bss_end__+0x2c5920>
 53c:	490b390b 	stmdbmi	fp, {r0, r1, r3, r8, fp, ip, sp}
 540:	00180213 	andseq	r0, r8, r3, lsl r2
 544:	00341000 	eorseq	r1, r4, r0
 548:	0b3a0803 	bleq	e8255c <__bss_end__+0xe79104>
 54c:	0b390b3b 	bleq	e43240 <__bss_end__+0xe39de8>
 550:	17021349 	strne	r1, [r2, -r9, asr #6]
 554:	001742b7 			; <UNDEFINED> instruction: 0x001742b7
 558:	00341100 	eorseq	r1, r4, r0, lsl #2
 55c:	0b3a0803 	bleq	e82570 <__bss_end__+0xe79118>
 560:	0b390b3b 	bleq	e43254 <__bss_end__+0xe39dfc>
 564:	00001349 	andeq	r1, r0, r9, asr #6
 568:	03003412 	movweq	r3, #1042	; 0x412
 56c:	3b0b3a0e 	blcc	2cedac <__bss_end__+0x2c5954>
 570:	490b390b 	stmdbmi	fp, {r0, r1, r3, r8, fp, ip, sp}
 574:	b7170213 			; <UNDEFINED> instruction: 0xb7170213
 578:	00001742 	andeq	r1, r0, r2, asr #14
 57c:	03003413 	movweq	r3, #1043	; 0x413
 580:	3413490e 	ldrcc	r4, [r3], #-2318	; 0xfffff6f2
 584:	00180219 	andseq	r0, r8, r9, lsl r2
 588:	010b1400 	tsteq	fp, r0, lsl #8
 58c:	06120111 			; <UNDEFINED> instruction: 0x06120111
 590:	34150000 	ldrcc	r0, [r5], #-0
 594:	3a080300 	bcc	20119c <__bss_end__+0x1f7d44>
 598:	390b3b0b 	stmdbcc	fp, {r0, r1, r3, r8, r9, fp, ip, sp}
 59c:	0213490b 	andseq	r4, r3, #180224	; 0x2c000
 5a0:	16000018 			; <UNDEFINED> instruction: 0x16000018
 5a4:	0e030034 	mcreq	0, 0, r0, cr3, cr4, {1}
 5a8:	0b3b0b3a 	bleq	ec3298 <__bss_end__+0xeb9e40>
 5ac:	13490b39 	movtne	r0, #39737	; 0x9b39
 5b0:	00001802 	andeq	r1, r0, r2, lsl #16
 5b4:	11010b17 	tstne	r1, r7, lsl fp
 5b8:	01061201 	tsteq	r6, r1, lsl #4
 5bc:	18000013 	stmdane	r0, {r0, r1, r4}
 5c0:	01018289 	smlabbeq	r1, r9, r2, r8
 5c4:	13310111 	teqne	r1, #1073741828	; 0x40000004
 5c8:	00001301 	andeq	r1, r0, r1, lsl #6
 5cc:	01828a19 	orreq	r8, r2, r9, lsl sl
 5d0:	91180200 	tstls	r8, r0, lsl #4
 5d4:	00001842 	andeq	r1, r0, r2, asr #16
 5d8:	0182891a 	orreq	r8, r2, sl, lsl r9
 5dc:	31011100 	mrscc	r1, (UNDEF: 17)
 5e0:	1b000013 	blne	634 <__code_start__-0x79cc>
 5e4:	01018289 	smlabbeq	r1, r9, r2, r8
 5e8:	13010111 	movwne	r0, #4369	; 0x1111
 5ec:	011c0000 	tsteq	ip, r0
 5f0:	01134901 	tsteq	r3, r1, lsl #18
 5f4:	1d000013 	stcne	0, cr0, [r0, #-76]	; 0xffffffb4
 5f8:	13490021 	movtne	r0, #36897	; 0x9021
 5fc:	00000b2f 	andeq	r0, r0, pc, lsr #22
 600:	03012e1e 	movweq	r2, #7710	; 0x1e1e
 604:	3b0b3a0e 	blcc	2cee44 <__bss_end__+0x2c59ec>
 608:	270b390b 	strcs	r3, [fp, -fp, lsl #18]
 60c:	11134919 	tstne	r3, r9, lsl r9
 610:	40061201 	andmi	r1, r6, r1, lsl #4
 614:	19429718 	stmdbne	r2, {r3, r4, r8, r9, sl, ip, pc}^
 618:	00001301 	andeq	r1, r0, r1, lsl #6
 61c:	0300051f 	movweq	r0, #1311	; 0x51f
 620:	3b0b3a0e 	blcc	2cee60 <__bss_end__+0x2c5a08>
 624:	490b390b 	stmdbmi	fp, {r0, r1, r3, r8, fp, ip, sp}
 628:	b7170213 			; <UNDEFINED> instruction: 0xb7170213
 62c:	00001742 	andeq	r1, r0, r2, asr #14
 630:	03012e20 	movweq	r2, #7712	; 0x1e20
 634:	3b0b3a08 	blcc	2cee5c <__bss_end__+0x2c5a04>
 638:	270b390b 	strcs	r3, [fp, -fp, lsl #18]
 63c:	11134919 	tstne	r3, r9, lsl r9
 640:	40061201 	andmi	r1, r6, r1, lsl #4
 644:	19429718 	stmdbne	r2, {r3, r4, r8, r9, sl, ip, pc}^
 648:	00001301 	andeq	r1, r0, r1, lsl #6
 64c:	3f012e21 	svccc	0x00012e21
 650:	3a0e0319 	bcc	3812bc <__bss_end__+0x377e64>
 654:	390b3b0b 	stmdbcc	fp, {r0, r1, r3, r8, r9, fp, ip, sp}
 658:	1119270b 	tstne	r9, fp, lsl #14
 65c:	40061201 	andmi	r1, r6, r1, lsl #4
 660:	19429718 	stmdbne	r2, {r3, r4, r8, r9, sl, ip, pc}^
 664:	00001301 	andeq	r1, r0, r1, lsl #6
 668:	3f002e22 	svccc	0x00002e22
 66c:	6e193c19 	mrcvs	12, 0, r3, cr9, cr9, {0}
 670:	3a0e030e 	bcc	3812b0 <__bss_end__+0x377e58>
 674:	390b3b0b 	stmdbcc	fp, {r0, r1, r3, r8, r9, fp, ip, sp}
 678:	0000000b 	andeq	r0, r0, fp
 67c:	25011101 	strcs	r1, [r1, #-257]	; 0xfffffeff
 680:	030b130e 	movweq	r1, #45838	; 0xb30e
 684:	110e1b0e 	tstne	lr, lr, lsl #22
 688:	10061201 	andne	r1, r6, r1, lsl #4
 68c:	02000017 	andeq	r0, r0, #23
 690:	0b0b0024 	bleq	2c0728 <__bss_end__+0x2b72d0>
 694:	08030b3e 	stmdaeq	r3, {r1, r2, r3, r4, r5, r8, r9, fp}
 698:	24030000 	strcs	r0, [r3], #-0
 69c:	3e0b0b00 	vmlacc.f64	d0, d11, d0
 6a0:	000e030b 	andeq	r0, lr, fp, lsl #6
 6a4:	01150400 	tsteq	r5, r0, lsl #8
 6a8:	13491927 	movtne	r1, #39207	; 0x9927
 6ac:	00001301 	andeq	r1, r0, r1, lsl #6
 6b0:	49000505 	stmdbmi	r0, {r0, r2, r8, sl}
 6b4:	06000013 			; <UNDEFINED> instruction: 0x06000013
 6b8:	0b0b000f 	bleq	2c06fc <__bss_end__+0x2b72a4>
 6bc:	00001349 	andeq	r1, r0, r9, asr #6
 6c0:	49002607 	stmdbmi	r0, {r0, r1, r2, r9, sl, sp}
 6c4:	08000013 	stmdaeq	r0, {r0, r1, r4}
 6c8:	0e030034 	mcreq	0, 0, r0, cr3, cr4, {1}
 6cc:	0b3b0b3a 	bleq	ec33bc <__bss_end__+0xeb9f64>
 6d0:	13490b39 	movtne	r0, #39737	; 0x9b39
 6d4:	193c193f 	ldmdbne	ip!, {r0, r1, r2, r3, r4, r5, r8, fp, ip}
 6d8:	2e090000 	cdpcs	0, 0, cr0, cr9, cr0, {0}
 6dc:	03193f01 	tsteq	r9, #1, 30
 6e0:	3b0b3a0e 	blcc	2cef20 <__bss_end__+0x2c5ac8>
 6e4:	270b390b 	strcs	r3, [fp, -fp, lsl #18]
 6e8:	19018719 	stmdbne	r1, {r0, r3, r4, r8, r9, sl, pc}
 6ec:	06120111 			; <UNDEFINED> instruction: 0x06120111
 6f0:	42971840 	addsmi	r1, r7, #64, 16	; 0x400000
 6f4:	00130119 	andseq	r0, r3, r9, lsl r1
 6f8:	82890a00 	addhi	r0, r9, #0, 20
 6fc:	01110101 	tsteq	r1, r1, lsl #2
 700:	00001301 	andeq	r1, r0, r1, lsl #6
 704:	01828a0b 	orreq	r8, r2, fp, lsl #20
 708:	91180200 	tstls	r8, r0, lsl #4
 70c:	00001842 	andeq	r1, r0, r2, asr #16
 710:	0182890c 	orreq	r8, r2, ip, lsl #18
 714:	31011100 	mrscc	r1, (UNDEF: 17)
 718:	0d000013 	stceq	0, cr0, [r0, #-76]	; 0xffffffb4
 71c:	01018289 	smlabbeq	r1, r9, r2, r8
 720:	13310111 	teqne	r1, #1073741828	; 0x40000004
 724:	00001301 	andeq	r1, r0, r1, lsl #6
 728:	3f002e0e 	svccc	0x00002e0e
 72c:	6e193c19 	mrcvs	12, 0, r3, cr9, cr9, {0}
 730:	3a0e030e 	bcc	381370 <__bss_end__+0x377f18>
 734:	390b3b0b 	stmdbcc	fp, {r0, r1, r3, r8, r9, fp, ip, sp}
 738:	0000000b 	andeq	r0, r0, fp
 73c:	25011101 	strcs	r1, [r1, #-257]	; 0xfffffeff
 740:	030b130e 	movweq	r1, #45838	; 0xb30e
 744:	110e1b0e 	tstne	lr, lr, lsl #22
 748:	10061201 	andne	r1, r6, r1, lsl #4
 74c:	02000017 	andeq	r0, r0, #23
 750:	0b0b0024 	bleq	2c07e8 <__bss_end__+0x2b7390>
 754:	08030b3e 	stmdaeq	r3, {r1, r2, r3, r4, r5, r8, r9, fp}
 758:	24030000 	strcs	r0, [r3], #-0
 75c:	3e0b0b00 	vmlacc.f64	d0, d11, d0
 760:	000e030b 	andeq	r0, lr, fp, lsl #6
 764:	012e0400 			; <UNDEFINED> instruction: 0x012e0400
 768:	0e03193f 			; <UNDEFINED> instruction: 0x0e03193f
 76c:	0b3b0b3a 	bleq	ec345c <__bss_end__+0xeba004>
 770:	01110b39 	tsteq	r1, r9, lsr fp
 774:	18400612 	stmdane	r0, {r1, r4, r9, sl}^
 778:	01194297 			; <UNDEFINED> instruction: 0x01194297
 77c:	05000013 	streq	r0, [r0, #-19]	; 0xffffffed
 780:	0e030034 	mcreq	0, 0, r0, cr3, cr4, {1}
 784:	0b3b0b3a 	bleq	ec3474 <__bss_end__+0xeba01c>
 788:	13490b39 	movtne	r0, #39737	; 0x9b39
 78c:	193c193f 	ldmdbne	ip!, {r0, r1, r2, r3, r4, r5, r8, fp, ip}
 790:	2e060000 	cdpcs	0, 0, cr0, cr6, cr0, {0}
 794:	03193f00 	tsteq	r9, #0, 30
 798:	3b0b3a0e 	blcc	2cefd8 <__bss_end__+0x2c5b80>
 79c:	270b390b 	strcs	r3, [fp, -fp, lsl #18]
 7a0:	00193c19 	andseq	r3, r9, r9, lsl ip
 7a4:	00340700 	eorseq	r0, r4, r0, lsl #14
 7a8:	0b3a0803 	bleq	e827bc <__bss_end__+0xe79364>
 7ac:	0b390b3b 	bleq	e434a0 <__bss_end__+0xe3a048>
 7b0:	17021349 	strne	r1, [r2, -r9, asr #6]
 7b4:	001742b7 			; <UNDEFINED> instruction: 0x001742b7
 7b8:	00340800 	eorseq	r0, r4, r0, lsl #16
 7bc:	0b3a0e03 	bleq	e83fd0 <__bss_end__+0xe7ab78>
 7c0:	0b390b3b 	bleq	e434b4 <__bss_end__+0xe3a05c>
 7c4:	00001349 	andeq	r1, r0, r9, asr #6
 7c8:	11010b09 	tstne	r1, r9, lsl #22
 7cc:	01061201 	tsteq	r6, r1, lsl #4
 7d0:	0a000013 	beq	824 <__code_start__-0x77dc>
 7d4:	08030034 	stmdaeq	r3, {r2, r4, r5}
 7d8:	0b3b0b3a 	bleq	ec34c8 <__bss_end__+0xeba070>
 7dc:	13490b39 	movtne	r0, #39737	; 0x9b39
 7e0:	00000b1c 	andeq	r0, r0, ip, lsl fp
 7e4:	0182890b 	orreq	r8, r2, fp, lsl #18
 7e8:	31011100 	mrscc	r1, (UNDEF: 17)
 7ec:	0c000013 	stceq	0, cr0, [r0], {19}
 7f0:	0b0b000f 	bleq	2c0834 <__bss_end__+0x2b73dc>
 7f4:	00001349 	andeq	r1, r0, r9, asr #6
 7f8:	3f002e0d 	svccc	0x00002e0d
 7fc:	6e193c19 	mrcvs	12, 0, r3, cr9, cr9, {0}
 800:	3a0e030e 	bcc	381440 <__bss_end__+0x377fe8>
 804:	39053b0b 	stmdbcc	r5, {r0, r1, r3, r8, r9, fp, ip, sp}
 808:	0e00000b 	cdpeq	0, 0, cr0, cr0, cr11, {0}
 80c:	193f002e 	ldmdbne	pc!, {r1, r2, r3, r5}	; <UNPREDICTABLE>
 810:	0e6e193c 			; <UNDEFINED> instruction: 0x0e6e193c
 814:	0b3a0e03 	bleq	e84028 <__bss_end__+0xe7abd0>
 818:	0b390b3b 	bleq	e4350c <__bss_end__+0xe3a0b4>
 81c:	01000000 	mrseq	r0, (UNDEF: 0)
 820:	0e250111 	mcreq	1, 1, r0, cr5, cr1, {0}
 824:	0e030b13 	vmoveq.32	d3[0], r0
 828:	01110e1b 	tsteq	r1, fp, lsl lr
 82c:	17100612 			; <UNDEFINED> instruction: 0x17100612
 830:	24020000 	strcs	r0, [r2], #-0
 834:	3e0b0b00 	vmlacc.f64	d0, d11, d0
 838:	0008030b 	andeq	r0, r8, fp, lsl #6
 83c:	00240300 	eoreq	r0, r4, r0, lsl #6
 840:	0b3e0b0b 	bleq	f83474 <__bss_end__+0xf7a01c>
 844:	00000e03 	andeq	r0, r0, r3, lsl #28
 848:	3f002e04 	svccc	0x00002e04
 84c:	3a0e0319 	bcc	3814b8 <__bss_end__+0x378060>
 850:	390b3b0b 	stmdbcc	fp, {r0, r1, r3, r8, r9, fp, ip, sp}
 854:	1119270b 	tstne	r9, fp, lsl #14
 858:	40061201 	andmi	r1, r6, r1, lsl #4
 85c:	19429718 	stmdbne	r2, {r3, r4, r8, r9, sl, ip, pc}^
 860:	01000000 	mrseq	r0, (UNDEF: 0)
 864:	0e250111 	mcreq	1, 1, r0, cr5, cr1, {0}
 868:	0e030b13 	vmoveq.32	d3[0], r0
 86c:	17550e1b 	smmlane	r5, fp, lr, r0
 870:	17100111 			; <UNDEFINED> instruction: 0x17100111
 874:	24020000 	strcs	r0, [r2], #-0
 878:	3e0b0b00 	vmlacc.f64	d0, d11, d0
 87c:	0008030b 	andeq	r0, r8, fp, lsl #6
 880:	00260300 	eoreq	r0, r6, r0, lsl #6
 884:	00001349 	andeq	r1, r0, r9, asr #6
 888:	0b002404 	bleq	98a0 <__bss_end__+0x448>
 88c:	030b3e0b 	movweq	r3, #48651	; 0xbe0b
 890:	0500000e 	streq	r0, [r0, #-14]
 894:	0e030034 	mcreq	0, 0, r0, cr3, cr4, {1}
 898:	0b3b0b3a 	bleq	ec3588 <__bss_end__+0xeba130>
 89c:	13490b39 	movtne	r0, #39737	; 0x9b39
 8a0:	2e060000 	cdpcs	0, 0, cr0, cr6, cr0, {0}
 8a4:	03193f01 	tsteq	r9, #1, 30
 8a8:	3b0b3a0e 	blcc	2cf0e8 <__bss_end__+0x2c5c90>
 8ac:	270b390b 	strcs	r3, [fp, -fp, lsl #18]
 8b0:	19018719 	stmdbne	r1, {r0, r3, r4, r8, r9, sl, pc}
 8b4:	06120111 			; <UNDEFINED> instruction: 0x06120111
 8b8:	42971840 	addsmi	r1, r7, #64, 16	; 0x400000
 8bc:	00130119 	andseq	r0, r3, r9, lsl r1
 8c0:	00340700 	eorseq	r0, r4, r0, lsl #14
 8c4:	0b3a0e03 	bleq	e840d8 <__bss_end__+0xe7ac80>
 8c8:	0b390b3b 	bleq	e435bc <__bss_end__+0xe3a164>
 8cc:	17021349 	strne	r1, [r2, -r9, asr #6]
 8d0:	001742b7 			; <UNDEFINED> instruction: 0x001742b7
 8d4:	82890800 	addhi	r0, r9, #0, 16
 8d8:	01110001 	tsteq	r1, r1
 8dc:	00001331 	andeq	r1, r0, r1, lsr r3
 8e0:	01828909 	orreq	r8, r2, r9, lsl #18
 8e4:	31011101 	tstcc	r1, r1, lsl #2
 8e8:	00130113 	andseq	r0, r3, r3, lsl r1
 8ec:	828a0a00 	addhi	r0, sl, #0, 20
 8f0:	18020001 	stmdane	r2, {r0}
 8f4:	00184291 	mulseq	r8, r1, r2
 8f8:	012e0b00 			; <UNDEFINED> instruction: 0x012e0b00
 8fc:	0e03193f 			; <UNDEFINED> instruction: 0x0e03193f
 900:	0b3b0b3a 	bleq	ec35f0 <__bss_end__+0xeba198>
 904:	19270b39 	stmdbne	r7!, {r0, r3, r4, r5, r8, r9, fp}
 908:	06120111 			; <UNDEFINED> instruction: 0x06120111
 90c:	42971840 	addsmi	r1, r7, #64, 16	; 0x400000
 910:	00130119 	andseq	r0, r3, r9, lsl r1
 914:	012e0c00 			; <UNDEFINED> instruction: 0x012e0c00
 918:	0e03193f 			; <UNDEFINED> instruction: 0x0e03193f
 91c:	0b3b0b3a 	bleq	ec360c <__bss_end__+0xeba1b4>
 920:	19270b39 	stmdbne	r7!, {r0, r3, r4, r5, r8, r9, fp}
 924:	01111349 	tsteq	r1, r9, asr #6
 928:	18400612 	stmdane	r0, {r1, r4, r9, sl}^
 92c:	01194297 			; <UNDEFINED> instruction: 0x01194297
 930:	0d000013 	stceq	0, cr0, [r0, #-76]	; 0xffffffb4
 934:	193f002e 	ldmdbne	pc!, {r1, r2, r3, r5}	; <UNPREDICTABLE>
 938:	0e6e193c 			; <UNDEFINED> instruction: 0x0e6e193c
 93c:	0b3a0e03 	bleq	e84150 <__bss_end__+0xe7acf8>
 940:	0b39053b 	bleq	e41e34 <__bss_end__+0xe389dc>
 944:	2e0e0000 	cdpcs	0, 0, cr0, cr14, cr0, {0}
 948:	3c193f00 	ldccc	15, cr3, [r9], {-0}
 94c:	030e6e19 	movweq	r6, #60953	; 0xee19
 950:	3b0b3a0e 	blcc	2cf190 <__bss_end__+0x2c5d38>
 954:	000b390b 	andeq	r3, fp, fp, lsl #18
 958:	11010000 	mrsne	r0, (UNDEF: 1)
 95c:	130e2501 	movwne	r2, #58625	; 0xe501
 960:	1b0e030b 	blne	381594 <__bss_end__+0x37813c>
 964:	1201110e 	andne	r1, r1, #-2147483645	; 0x80000003
 968:	00171006 	andseq	r1, r7, r6
 96c:	00240200 	eoreq	r0, r4, r0, lsl #4
 970:	0b3e0b0b 	bleq	f835a4 <__bss_end__+0xf7a14c>
 974:	00000803 	andeq	r0, r0, r3, lsl #16
 978:	0b002403 	bleq	998c <__bss_end__+0x534>
 97c:	030b3e0b 	movweq	r3, #48651	; 0xbe0b
 980:	0400000e 	streq	r0, [r0], #-14
 984:	193f012e 	ldmdbne	pc!, {r1, r2, r3, r5, r8}	; <UNPREDICTABLE>
 988:	0b3a0e03 	bleq	e8419c <__bss_end__+0xe7ad44>
 98c:	0b390b3b 	bleq	e43680 <__bss_end__+0xe3a228>
 990:	01111927 	tsteq	r1, r7, lsr #18
 994:	18400612 	stmdane	r0, {r1, r4, r9, sl}^
 998:	01194297 			; <UNDEFINED> instruction: 0x01194297
 99c:	05000013 	streq	r0, [r0, #-19]	; 0xffffffed
 9a0:	08030005 	stmdaeq	r3, {r0, r2}
 9a4:	0b3b0b3a 	bleq	ec3694 <__bss_end__+0xeba23c>
 9a8:	13490b39 	movtne	r0, #39737	; 0x9b39
 9ac:	42b71702 	adcsmi	r1, r7, #524288	; 0x80000
 9b0:	06000017 			; <UNDEFINED> instruction: 0x06000017
 9b4:	01018289 	smlabbeq	r1, r9, r2, r8
 9b8:	13310111 	teqne	r1, #1073741828	; 0x40000004
 9bc:	8a070000 	bhi	1c09c4 <__bss_end__+0x1b756c>
 9c0:	02000182 	andeq	r0, r0, #-2147483616	; 0x80000020
 9c4:	18429118 	stmdane	r2, {r3, r4, r8, ip, pc}^
 9c8:	34080000 	strcc	r0, [r8], #-0
 9cc:	3a080300 	bcc	2015d4 <__bss_end__+0x1f817c>
 9d0:	390b3b0b 	stmdbcc	fp, {r0, r1, r3, r8, r9, fp, ip, sp}
 9d4:	0213490b 	andseq	r4, r3, #180224	; 0x2c000
 9d8:	1742b717 	smlaldne	fp, r2, r7, r7
 9dc:	0b090000 	bleq	2409e4 <__bss_end__+0x23758c>
 9e0:	12011101 	andne	r1, r1, #1073741824	; 0x40000000
 9e4:	00130106 	andseq	r0, r3, r6, lsl #2
 9e8:	82890a00 	addhi	r0, r9, #0, 20
 9ec:	01110001 	tsteq	r1, r1
 9f0:	00001331 	andeq	r1, r0, r1, lsr r3
 9f4:	3f012e0b 	svccc	0x00012e0b
 9f8:	3a0e0319 	bcc	381664 <__bss_end__+0x37820c>
 9fc:	390b3b0b 	stmdbcc	fp, {r0, r1, r3, r8, r9, fp, ip, sp}
 a00:	4919270b 	ldmdbmi	r9, {r0, r1, r3, r8, r9, sl, sp}
 a04:	12011113 	andne	r1, r1, #-1073741820	; 0xc0000004
 a08:	97184006 	ldrls	r4, [r8, -r6]
 a0c:	13011942 	movwne	r1, #6466	; 0x1942
 a10:	2e0c0000 	cdpcs	0, 0, cr0, cr12, cr0, {0}
 a14:	3c193f00 	ldccc	15, cr3, [r9], {-0}
 a18:	030e6e19 	movweq	r6, #60953	; 0xee19
 a1c:	3b0b3a0e 	blcc	2cf25c <__bss_end__+0x2c5e04>
 a20:	000b390b 	andeq	r3, fp, fp, lsl #18
 a24:	11010000 	mrsne	r0, (UNDEF: 1)
 a28:	130e2501 	movwne	r2, #58625	; 0xe501
 a2c:	1b0e030b 	blne	381660 <__bss_end__+0x378208>
 a30:	1201110e 	andne	r1, r1, #-2147483645	; 0x80000003
 a34:	00171006 	andseq	r1, r7, r6
 a38:	00240200 	eoreq	r0, r4, r0, lsl #4
 a3c:	0b3e0b0b 	bleq	f83670 <__bss_end__+0xf7a218>
 a40:	00000803 	andeq	r0, r0, r3, lsl #16
 a44:	0b002403 	bleq	9a58 <__bss_end__+0x600>
 a48:	030b3e0b 	movweq	r3, #48651	; 0xbe0b
 a4c:	0400000e 	streq	r0, [r0], #-14
 a50:	13490026 	movtne	r0, #36902	; 0x9026
 a54:	16050000 	strne	r0, [r5], -r0
 a58:	3a0e0300 	bcc	381660 <__bss_end__+0x378208>
 a5c:	390b3b0b 	stmdbcc	fp, {r0, r1, r3, r8, r9, fp, ip, sp}
 a60:	0013490b 	andseq	r4, r3, fp, lsl #18
 a64:	01040600 	tsteq	r4, r0, lsl #12
 a68:	0b0b0b3e 	bleq	2c3768 <__bss_end__+0x2ba310>
 a6c:	0b3a1349 	bleq	e85798 <__bss_end__+0xe7c340>
 a70:	0b390b3b 	bleq	e43764 <__bss_end__+0xe3a30c>
 a74:	00001301 	andeq	r1, r0, r1, lsl #6
 a78:	03002807 	movweq	r2, #2055	; 0x807
 a7c:	000b1c0e 	andeq	r1, fp, lr, lsl #24
 a80:	00340800 	eorseq	r0, r4, r0, lsl #16
 a84:	0b3a0e03 	bleq	e84298 <__bss_end__+0xe7ae40>
 a88:	0b390b3b 	bleq	e4377c <__bss_end__+0xe3a324>
 a8c:	061c1349 	ldreq	r1, [ip], -r9, asr #6
 a90:	2e090000 	cdpcs	0, 0, cr0, cr9, cr0, {0}
 a94:	03193f01 	tsteq	r9, #1, 30
 a98:	3b0b3a0e 	blcc	2cf2d8 <__bss_end__+0x2c5e80>
 a9c:	270b390b 	strcs	r3, [fp, -fp, lsl #18]
 aa0:	11134919 	tstne	r3, r9, lsl r9
 aa4:	40061201 	andmi	r1, r6, r1, lsl #4
 aa8:	19429718 	stmdbne	r2, {r3, r4, r8, r9, sl, ip, pc}^
 aac:	00001301 	andeq	r1, r0, r1, lsl #6
 ab0:	0300050a 	movweq	r0, #1290	; 0x50a
 ab4:	3b0b3a08 	blcc	2cf2dc <__bss_end__+0x2c5e84>
 ab8:	490b390b 	stmdbmi	fp, {r0, r1, r3, r8, fp, ip, sp}
 abc:	b7170213 			; <UNDEFINED> instruction: 0xb7170213
 ac0:	00001742 	andeq	r1, r0, r2, asr #14
 ac4:	0182890b 	orreq	r8, r2, fp, lsl #18
 ac8:	31011101 	tstcc	r1, r1, lsl #2
 acc:	0c000013 	stceq	0, cr0, [r0], {19}
 ad0:	0001828a 	andeq	r8, r1, sl, lsl #5
 ad4:	42911802 	addsmi	r1, r1, #131072	; 0x20000
 ad8:	0d000018 	stceq	0, cr0, [r0, #-96]	; 0xffffffa0
 adc:	193f012e 	ldmdbne	pc!, {r1, r2, r3, r5, r8}	; <UNPREDICTABLE>
 ae0:	0b3a0e03 	bleq	e842f4 <__bss_end__+0xe7ae9c>
 ae4:	0b390b3b 	bleq	e437d8 <__bss_end__+0xe3a380>
 ae8:	01111927 	tsteq	r1, r7, lsr #18
 aec:	18400612 	stmdane	r0, {r1, r4, r9, sl}^
 af0:	01194297 			; <UNDEFINED> instruction: 0x01194297
 af4:	0e000013 	mcreq	0, 0, r0, cr0, cr3, {0}
 af8:	01018289 	smlabbeq	r1, r9, r2, r8
 afc:	13310111 	teqne	r1, #1073741828	; 0x40000004
 b00:	00001301 	andeq	r1, r0, r1, lsl #6
 b04:	0182890f 	orreq	r8, r2, pc, lsl #18
 b08:	31011100 	mrscc	r1, (UNDEF: 17)
 b0c:	10000013 	andne	r0, r0, r3, lsl r0
 b10:	0e030034 	mcreq	0, 0, r0, cr3, cr4, {1}
 b14:	0b3b0b3a 	bleq	ec3804 <__bss_end__+0xeba3ac>
 b18:	13490b39 	movtne	r0, #39737	; 0x9b39
 b1c:	42b71702 	adcsmi	r1, r7, #524288	; 0x80000
 b20:	11000017 	tstne	r0, r7, lsl r0
 b24:	193f002e 	ldmdbne	pc!, {r1, r2, r3, r5}	; <UNPREDICTABLE>
 b28:	0e6e193c 			; <UNDEFINED> instruction: 0x0e6e193c
 b2c:	0b3a0e03 	bleq	e84340 <__bss_end__+0xe7aee8>
 b30:	0b390b3b 	bleq	e43824 <__bss_end__+0xe3a3cc>
 b34:	01000000 	mrseq	r0, (UNDEF: 0)
 b38:	0e250111 	mcreq	1, 1, r0, cr5, cr1, {0}
 b3c:	0e030b13 	vmoveq.32	d3[0], r0
 b40:	01110e1b 	tsteq	r1, fp, lsl lr
 b44:	17100612 			; <UNDEFINED> instruction: 0x17100612
 b48:	24020000 	strcs	r0, [r2], #-0
 b4c:	3e0b0b00 	vmlacc.f64	d0, d11, d0
 b50:	0008030b 	andeq	r0, r8, fp, lsl #6
 b54:	00240300 	eoreq	r0, r4, r0, lsl #6
 b58:	0b3e0b0b 	bleq	f8378c <__bss_end__+0xf7a334>
 b5c:	00000e03 	andeq	r0, r0, r3, lsl #28
 b60:	27011504 	strcs	r1, [r1, -r4, lsl #10]
 b64:	01134919 	tsteq	r3, r9, lsl r9
 b68:	05000013 	streq	r0, [r0, #-19]	; 0xffffffed
 b6c:	13490005 	movtne	r0, #36869	; 0x9005
 b70:	34060000 	strcc	r0, [r6], #-0
 b74:	3a0e0300 	bcc	38177c <__bss_end__+0x378324>
 b78:	390b3b0b 	stmdbcc	fp, {r0, r1, r3, r8, r9, fp, ip, sp}
 b7c:	3f13490b 	svccc	0x0013490b
 b80:	00193c19 	andseq	r3, r9, r9, lsl ip
 b84:	000f0700 	andeq	r0, pc, r0, lsl #14
 b88:	13490b0b 	movtne	r0, #39691	; 0x9b0b
 b8c:	34080000 	strcc	r0, [r8], #-0
 b90:	3a134700 	bcc	4d2798 <__bss_end__+0x4c9340>
 b94:	390b3b0b 	stmdbcc	fp, {r0, r1, r3, r8, r9, fp, ip, sp}
 b98:	0018020b 	andseq	r0, r8, fp, lsl #4
 b9c:	012e0900 			; <UNDEFINED> instruction: 0x012e0900
 ba0:	0e03193f 			; <UNDEFINED> instruction: 0x0e03193f
 ba4:	0b3b0b3a 	bleq	ec3894 <__bss_end__+0xeba43c>
 ba8:	19270b39 	stmdbne	r7!, {r0, r3, r4, r5, r8, r9, fp}
 bac:	06120111 			; <UNDEFINED> instruction: 0x06120111
 bb0:	42971840 	addsmi	r1, r7, #64, 16	; 0x400000
 bb4:	00130119 	andseq	r0, r3, r9, lsl r1
 bb8:	00050a00 	andeq	r0, r5, r0, lsl #20
 bbc:	0b3a0803 	bleq	e82bd0 <__bss_end__+0xe79778>
 bc0:	0b390b3b 	bleq	e438b4 <__bss_end__+0xe3a45c>
 bc4:	18021349 	stmdane	r2, {r0, r3, r6, r8, r9, ip}
 bc8:	2e0b0000 	cdpcs	0, 0, cr0, cr11, cr0, {0}
 bcc:	03193f00 	tsteq	r9, #0, 30
 bd0:	3b0b3a0e 	blcc	2cf410 <__bss_end__+0x2c5fb8>
 bd4:	270b390b 	strcs	r3, [fp, -fp, lsl #18]
 bd8:	12011119 	andne	r1, r1, #1073741830	; 0x40000006
 bdc:	97184006 	ldrls	r4, [r8, -r6]
 be0:	00001942 	andeq	r1, r0, r2, asr #18
 be4:	03012e0c 	movweq	r2, #7692	; 0x1e0c
 be8:	3b0b3a0e 	blcc	2cf428 <__bss_end__+0x2c5fd0>
 bec:	270b390b 	strcs	r3, [fp, -fp, lsl #18]
 bf0:	11134919 	tstne	r3, r9, lsl r9
 bf4:	40061201 	andmi	r1, r6, r1, lsl #4
 bf8:	19429718 	stmdbne	r2, {r3, r4, r8, r9, sl, ip, pc}^
 bfc:	00001301 	andeq	r1, r0, r1, lsl #6
 c00:	0300050d 	movweq	r0, #1293	; 0x50d
 c04:	3b0b3a08 	blcc	2cf42c <__bss_end__+0x2c5fd4>
 c08:	490b390b 	stmdbmi	fp, {r0, r1, r3, r8, fp, ip, sp}
 c0c:	b7170213 			; <UNDEFINED> instruction: 0xb7170213
 c10:	00001742 	andeq	r1, r0, r2, asr #14
 c14:	0182890e 	orreq	r8, r2, lr, lsl #18
 c18:	31011101 	tstcc	r1, r1, lsl #2
 c1c:	0f000013 	svceq	0x00000013
 c20:	0001828a 	andeq	r8, r1, sl, lsl #5
 c24:	42911802 	addsmi	r1, r1, #131072	; 0x20000
 c28:	10000018 	andne	r0, r0, r8, lsl r0
 c2c:	193f002e 	ldmdbne	pc!, {r1, r2, r3, r5}	; <UNPREDICTABLE>
 c30:	0e6e193c 			; <UNDEFINED> instruction: 0x0e6e193c
 c34:	0b3a0e03 	bleq	e84448 <__bss_end__+0xe7aff0>
 c38:	0b390b3b 	bleq	e4392c <__bss_end__+0xe3a4d4>
 c3c:	01000000 	mrseq	r0, (UNDEF: 0)
 c40:	0e250111 	mcreq	1, 1, r0, cr5, cr1, {0}
 c44:	0e030b13 	vmoveq.32	d3[0], r0
 c48:	01110e1b 	tsteq	r1, fp, lsl lr
 c4c:	17100612 			; <UNDEFINED> instruction: 0x17100612
 c50:	24020000 	strcs	r0, [r2], #-0
 c54:	3e0b0b00 	vmlacc.f64	d0, d11, d0
 c58:	0008030b 	andeq	r0, r8, fp, lsl #6
 c5c:	00240300 	eoreq	r0, r4, r0, lsl #6
 c60:	0b3e0b0b 	bleq	f83894 <__bss_end__+0xf7a43c>
 c64:	00000e03 	andeq	r0, r0, r3, lsl #28
 c68:	0b000f04 	bleq	4880 <__code_start__-0x3780>
 c6c:	0013490b 	andseq	r4, r3, fp, lsl #18
 c70:	00260500 	eoreq	r0, r6, r0, lsl #10
 c74:	00001349 	andeq	r1, r0, r9, asr #6
 c78:	3f012e06 	svccc	0x00012e06
 c7c:	3a0e0319 	bcc	3818e8 <__bss_end__+0x378490>
 c80:	390b3b0b 	stmdbcc	fp, {r0, r1, r3, r8, r9, fp, ip, sp}
 c84:	4919270b 	ldmdbmi	r9, {r0, r1, r3, r8, r9, sl, sp}
 c88:	12011113 	andne	r1, r1, #-1073741820	; 0xc0000004
 c8c:	97184006 	ldrls	r4, [r8, -r6]
 c90:	13011942 	movwne	r1, #6466	; 0x1942
 c94:	05070000 	streq	r0, [r7, #-0]
 c98:	3a0e0300 	bcc	3818a0 <__bss_end__+0x378448>
 c9c:	390b3b0b 	stmdbcc	fp, {r0, r1, r3, r8, r9, fp, ip, sp}
 ca0:	0213490b 	andseq	r4, r3, #180224	; 0x2c000
 ca4:	08000018 	stmdaeq	r0, {r3, r4}
 ca8:	08030005 	stmdaeq	r3, {r0, r2}
 cac:	0b3b0b3a 	bleq	ec399c <__bss_end__+0xeba544>
 cb0:	13490b39 	movtne	r0, #39737	; 0x9b39
 cb4:	42b71702 	adcsmi	r1, r7, #524288	; 0x80000
 cb8:	09000017 	stmdbeq	r0, {r0, r1, r2, r4}
 cbc:	08030034 	stmdaeq	r3, {r2, r4, r5}
 cc0:	0b3b0b3a 	bleq	ec39b0 <__bss_end__+0xeba558>
 cc4:	13490b39 	movtne	r0, #39737	; 0x9b39
 cc8:	42b71702 	adcsmi	r1, r7, #524288	; 0x80000
 ccc:	00000017 	andeq	r0, r0, r7, lsl r0
 cd0:	25011101 	strcs	r1, [r1, #-257]	; 0xfffffeff
 cd4:	030b130e 	movweq	r1, #45838	; 0xb30e
 cd8:	110e1b0e 	tstne	lr, lr, lsl #22
 cdc:	10061201 	andne	r1, r6, r1, lsl #4
 ce0:	02000017 	andeq	r0, r0, #23
 ce4:	0b0b0024 	bleq	2c0d7c <__bss_end__+0x2b7924>
 ce8:	08030b3e 	stmdaeq	r3, {r1, r2, r3, r4, r5, r8, r9, fp}
 cec:	24030000 	strcs	r0, [r3], #-0
 cf0:	3e0b0b00 	vmlacc.f64	d0, d11, d0
 cf4:	000e030b 	andeq	r0, lr, fp, lsl #6
 cf8:	000f0400 	andeq	r0, pc, r0, lsl #8
 cfc:	13490b0b 	movtne	r0, #39691	; 0x9b0b
 d00:	26050000 	strcs	r0, [r5], -r0
 d04:	00134900 	andseq	r4, r3, r0, lsl #18
 d08:	012e0600 			; <UNDEFINED> instruction: 0x012e0600
 d0c:	0e03193f 			; <UNDEFINED> instruction: 0x0e03193f
 d10:	0b3b0b3a 	bleq	ec3a00 <__bss_end__+0xeba5a8>
 d14:	19270b39 	stmdbne	r7!, {r0, r3, r4, r5, r8, r9, fp}
 d18:	01111349 	tsteq	r1, r9, asr #6
 d1c:	18400612 	stmdane	r0, {r1, r4, r9, sl}^
 d20:	00194297 	mulseq	r9, r7, r2
 d24:	00050700 	andeq	r0, r5, r0, lsl #14
 d28:	0b3a0803 	bleq	e82d3c <__bss_end__+0xe798e4>
 d2c:	0b390b3b 	bleq	e43a20 <__bss_end__+0xe3a5c8>
 d30:	17021349 	strne	r1, [r2, -r9, asr #6]
 d34:	001742b7 			; <UNDEFINED> instruction: 0x001742b7
 d38:	11010000 	mrsne	r0, (UNDEF: 1)
 d3c:	130e2501 	movwne	r2, #58625	; 0xe501
 d40:	1b0e030b 	blne	381974 <__bss_end__+0x37851c>
 d44:	1201110e 	andne	r1, r1, #-2147483645	; 0x80000003
 d48:	00171006 	andseq	r1, r7, r6
 d4c:	00240200 	eoreq	r0, r4, r0, lsl #4
 d50:	0b3e0b0b 	bleq	f83984 <__bss_end__+0xf7a52c>
 d54:	00000803 	andeq	r0, r0, r3, lsl #16
 d58:	0b002403 	bleq	9d6c <__bss_end__+0x914>
 d5c:	030b3e0b 	movweq	r3, #48651	; 0xbe0b
 d60:	0400000e 	streq	r0, [r0], #-14
 d64:	0b0b000f 	bleq	2c0da8 <__bss_end__+0x2b7950>
 d68:	00001349 	andeq	r1, r0, r9, asr #6
 d6c:	49002605 	stmdbmi	r0, {r0, r2, r9, sl, sp}
 d70:	06000013 			; <UNDEFINED> instruction: 0x06000013
 d74:	193f012e 	ldmdbne	pc!, {r1, r2, r3, r5, r8}	; <UNPREDICTABLE>
 d78:	0b3a0e03 	bleq	e8458c <__bss_end__+0xe7b134>
 d7c:	0b390b3b 	bleq	e43a70 <__bss_end__+0xe3a618>
 d80:	13491927 	movtne	r1, #39207	; 0x9927
 d84:	06120111 			; <UNDEFINED> instruction: 0x06120111
 d88:	42971840 	addsmi	r1, r7, #64, 16	; 0x400000
 d8c:	00130119 	andseq	r0, r3, r9, lsl r1
 d90:	00050700 	andeq	r0, r5, r0, lsl #14
 d94:	0b3a0803 	bleq	e82da8 <__bss_end__+0xe79950>
 d98:	0b390b3b 	bleq	e43a8c <__bss_end__+0xe3a634>
 d9c:	18021349 	stmdane	r2, {r0, r3, r6, r8, r9, ip}
 da0:	05080000 	streq	r0, [r8, #-0]
 da4:	3a080300 	bcc	2019ac <__bss_end__+0x1f8554>
 da8:	390b3b0b 	stmdbcc	fp, {r0, r1, r3, r8, r9, fp, ip, sp}
 dac:	0213490b 	andseq	r4, r3, #180224	; 0x2c000
 db0:	1742b717 	smlaldne	fp, r2, r7, r7
 db4:	34090000 	strcc	r0, [r9], #-0
 db8:	3a080300 	bcc	2019c0 <__bss_end__+0x1f8568>
 dbc:	390b3b0b 	stmdbcc	fp, {r0, r1, r3, r8, r9, fp, ip, sp}
 dc0:	0213490b 	andseq	r4, r3, #180224	; 0x2c000
 dc4:	1742b717 	smlaldne	fp, r2, r7, r7
 dc8:	01000000 	mrseq	r0, (UNDEF: 0)
 dcc:	0e250111 	mcreq	1, 1, r0, cr5, cr1, {0}
 dd0:	0e030b13 	vmoveq.32	d3[0], r0
 dd4:	17550e1b 	smmlane	r5, fp, lr, r0
 dd8:	17100111 			; <UNDEFINED> instruction: 0x17100111
 ddc:	24020000 	strcs	r0, [r2], #-0
 de0:	3e0b0b00 	vmlacc.f64	d0, d11, d0
 de4:	0008030b 	andeq	r0, r8, fp, lsl #6
 de8:	00160300 	andseq	r0, r6, r0, lsl #6
 dec:	0b3a0e03 	bleq	e84600 <__bss_end__+0xe7b1a8>
 df0:	0b390b3b 	bleq	e43ae4 <__bss_end__+0xe3a68c>
 df4:	00001349 	andeq	r1, r0, r9, asr #6
 df8:	0b002404 	bleq	9e10 <__bss_end__+0x9b8>
 dfc:	030b3e0b 	movweq	r3, #48651	; 0xbe0b
 e00:	0500000e 	streq	r0, [r0, #-14]
 e04:	13490026 	movtne	r0, #36902	; 0x9026
 e08:	0f060000 	svceq	0x00060000
 e0c:	490b0b00 	stmdbmi	fp, {r8, r9, fp}
 e10:	07000013 	smladeq	r0, r3, r0, r0
 e14:	193f012e 	ldmdbne	pc!, {r1, r2, r3, r5, r8}	; <UNPREDICTABLE>
 e18:	0b3a0e03 	bleq	e8462c <__bss_end__+0xe7b1d4>
 e1c:	0b390b3b 	bleq	e43b10 <__bss_end__+0xe3a6b8>
 e20:	13491927 	movtne	r1, #39207	; 0x9927
 e24:	06120111 			; <UNDEFINED> instruction: 0x06120111
 e28:	42971840 	addsmi	r1, r7, #64, 16	; 0x400000
 e2c:	00130119 	andseq	r0, r3, r9, lsl r1
 e30:	00050800 	andeq	r0, r5, r0, lsl #16
 e34:	0b3a0803 	bleq	e82e48 <__bss_end__+0xe799f0>
 e38:	0b390b3b 	bleq	e43b2c <__bss_end__+0xe3a6d4>
 e3c:	17021349 	strne	r1, [r2, -r9, asr #6]
 e40:	001742b7 			; <UNDEFINED> instruction: 0x001742b7
 e44:	00340900 	eorseq	r0, r4, r0, lsl #18
 e48:	0b3a0803 	bleq	e82e5c <__bss_end__+0xe79a04>
 e4c:	0b390b3b 	bleq	e43b40 <__bss_end__+0xe3a6e8>
 e50:	17021349 	strne	r1, [r2, -r9, asr #6]
 e54:	001742b7 			; <UNDEFINED> instruction: 0x001742b7
 e58:	11010000 	mrsne	r0, (UNDEF: 1)
 e5c:	130e2501 	movwne	r2, #58625	; 0xe501
 e60:	1b0e030b 	blne	381a94 <__bss_end__+0x37863c>
 e64:	1201110e 	andne	r1, r1, #-2147483645	; 0x80000003
 e68:	00171006 	andseq	r1, r7, r6
 e6c:	00240200 	eoreq	r0, r4, r0, lsl #4
 e70:	0b3e0b0b 	bleq	f83aa4 <__bss_end__+0xf7a64c>
 e74:	00000803 	andeq	r0, r0, r3, lsl #16
 e78:	0b002403 	bleq	9e8c <__bss_end__+0xa34>
 e7c:	030b3e0b 	movweq	r3, #48651	; 0xbe0b
 e80:	0400000e 	streq	r0, [r0], #-14
 e84:	193f002e 	ldmdbne	pc!, {r1, r2, r3, r5}	; <UNPREDICTABLE>
 e88:	0b3a0e03 	bleq	e8469c <__bss_end__+0xe7b244>
 e8c:	0b390b3b 	bleq	e43b80 <__bss_end__+0xe3a728>
 e90:	01111927 	tsteq	r1, r7, lsr #18
 e94:	18400612 	stmdane	r0, {r1, r4, r9, sl}^
 e98:	00194297 	mulseq	r9, r7, r2
	...

Disassembly of section .debug_aranges:

00000000 <.debug_aranges>:
   0:	0000001c 	andeq	r0, r0, ip, lsl r0
   4:	00000002 	andeq	r0, r0, r2
   8:	00040000 	andeq	r0, r4, r0
   c:	00000000 	andeq	r0, r0, r0
  10:	00008038 	andeq	r8, r0, r8, lsr r0
  14:	00000018 	andeq	r0, r0, r8, lsl r0
	...
  20:	0000001c 	andeq	r0, r0, ip, lsl r0
  24:	00d70002 	sbcseq	r0, r7, r2
  28:	00040000 	andeq	r0, r4, r0
  2c:	00000000 	andeq	r0, r0, r0
  30:	00008050 	andeq	r8, r0, r0, asr r0
  34:	00000354 	andeq	r0, r0, r4, asr r3
	...
  40:	0000001c 	andeq	r0, r0, ip, lsl r0
  44:	0a950002 	beq	fe540054 <__bss_end__+0xfe536bfc>
  48:	00040000 	andeq	r0, r4, r0
  4c:	00000000 	andeq	r0, r0, r0
  50:	000083a4 	andeq	r8, r0, r4, lsr #7
  54:	00000058 	andeq	r0, r0, r8, asr r0
	...
  60:	0000001c 	andeq	r0, r0, ip, lsl r0
  64:	0c150002 	ldceq	0, cr0, [r5], {2}
  68:	00040000 	andeq	r0, r4, r0
  6c:	00000000 	andeq	r0, r0, r0
  70:	000083fc 	strdeq	r8, [r0], -ip
  74:	00000034 	andeq	r0, r0, r4, lsr r0
	...
  80:	0000001c 	andeq	r0, r0, ip, lsl r0
  84:	0d0c0002 	stceq	0, cr0, [ip, #-8]
  88:	00040000 	andeq	r0, r4, r0
  8c:	00000000 	andeq	r0, r0, r0
  90:	00008430 	andeq	r8, r0, r0, lsr r4
  94:	00000728 	andeq	r0, r0, r8, lsr #14
	...
  a0:	0000001c 	andeq	r0, r0, ip, lsl r0
  a4:	17450002 	strbne	r0, [r5, -r2]
  a8:	00040000 	andeq	r0, r4, r0
  ac:	00000000 	andeq	r0, r0, r0
  b0:	00008b58 	andeq	r8, r0, r8, asr fp
  b4:	0000002c 	andeq	r0, r0, ip, lsr #32
	...
  c0:	0000001c 	andeq	r0, r0, ip, lsl r0
  c4:	18570002 	ldmdane	r7, {r1}^
  c8:	00040000 	andeq	r0, r4, r0
  cc:	00000000 	andeq	r0, r0, r0
  d0:	00008b84 	andeq	r8, r0, r4, lsl #23
  d4:	00000040 	andeq	r0, r0, r0, asr #32
	...
  e0:	0000001c 	andeq	r0, r0, ip, lsl r0
  e4:	19970002 	ldmibne	r7, {r1}
  e8:	00040000 	andeq	r0, r4, r0
  ec:	00000000 	andeq	r0, r0, r0
  f0:	00008bc4 	andeq	r8, r0, r4, asr #23
  f4:	00000004 	andeq	r0, r0, r4
	...
 100:	0000001c 	andeq	r0, r0, ip, lsl r0
 104:	1a1c0002 	bne	700114 <__bss_end__+0x6f6cbc>
 108:	00040000 	andeq	r0, r4, r0
 10c:	00000000 	andeq	r0, r0, r0
 110:	00008bc8 	andeq	r8, r0, r8, asr #23
 114:	00000080 	andeq	r0, r0, r0, lsl #1
	...
 120:	0000001c 	andeq	r0, r0, ip, lsl r0
 124:	1c090002 	stcne	0, cr0, [r9], {2}
 128:	00040000 	andeq	r0, r4, r0
 12c:	00000000 	andeq	r0, r0, r0
 130:	00008c48 	andeq	r8, r0, r8, asr #24
 134:	00000084 	andeq	r0, r0, r4, lsl #1
	...
 140:	0000001c 	andeq	r0, r0, ip, lsl r0
 144:	1e0d0002 	cdpne	0, 0, cr0, cr13, cr2, {0}
 148:	00040000 	andeq	r0, r4, r0
 14c:	00000000 	andeq	r0, r0, r0
 150:	00008ccc 	andeq	r8, r0, ip, asr #25
 154:	000000e8 	andeq	r0, r0, r8, ror #1
	...
 160:	0000001c 	andeq	r0, r0, ip, lsl r0
 164:	217f0002 	cmncs	pc, r2
 168:	00040000 	andeq	r0, r4, r0
 16c:	00000000 	andeq	r0, r0, r0
 170:	00008db4 			; <UNDEFINED> instruction: 0x00008db4
 174:	0000003c 	andeq	r0, r0, ip, lsr r0
	...
 180:	0000001c 	andeq	r0, r0, ip, lsl r0
 184:	22a00002 	adccs	r0, r0, #2
 188:	00040000 	andeq	r0, r4, r0
 18c:	00000000 	andeq	r0, r0, r0
 190:	00008df0 	strdeq	r8, [r0], -r0
 194:	00000034 	andeq	r0, r0, r4, lsr r0
	...
 1a0:	0000001c 	andeq	r0, r0, ip, lsl r0
 1a4:	23990002 	orrscs	r0, r9, #2
 1a8:	00040000 	andeq	r0, r4, r0
 1ac:	00000000 	andeq	r0, r0, r0
 1b0:	00008e24 	andeq	r8, r0, r4, lsr #28
 1b4:	00000030 	andeq	r0, r0, r0, lsr r0
	...
 1c0:	0000001c 	andeq	r0, r0, ip, lsl r0
 1c4:	24520002 	ldrbcs	r0, [r2], #-2
 1c8:	00040000 	andeq	r0, r4, r0
 1cc:	00000000 	andeq	r0, r0, r0
 1d0:	00008e54 	andeq	r8, r0, r4, asr lr
 1d4:	00000020 	andeq	r0, r0, r0, lsr #32
	...
 1e0:	0000001c 	andeq	r0, r0, ip, lsl r0
 1e4:	25230002 	strcs	r0, [r3, #-2]!
 1e8:	00040000 	andeq	r0, r4, r0
 1ec:	00000000 	andeq	r0, r0, r0
 1f0:	00008e74 	andeq	r8, r0, r4, ror lr
 1f4:	0000002c 	andeq	r0, r0, ip, lsr #32
	...
 200:	0000001c 	andeq	r0, r0, ip, lsl r0
 204:	26330002 	ldrtcs	r0, [r3], -r2
 208:	00040000 	andeq	r0, r4, r0
 20c:	00000000 	andeq	r0, r0, r0
 210:	00008ea0 	andeq	r8, r0, r0, lsr #29
 214:	00000004 	andeq	r0, r0, r4
	...

Disassembly of section .debug_line:

00000000 <.debug_line>:
       0:	0000006c 	andeq	r0, r0, ip, rrx
       4:	00520003 	subseq	r0, r2, r3
       8:	01020000 	mrseq	r0, (UNDEF: 2)
       c:	000d0efb 	strdeq	r0, [sp], -fp
      10:	01010101 	tsteq	r1, r1, lsl #2
      14:	01000000 	mrseq	r0, (UNDEF: 0)
      18:	2f010000 	svccs	0x00010000
      1c:	2f74706f 	svccs	0x0074706f
      20:	65303431 	ldrvs	r3, [r0, #-1073]!	; 0xfffffbcf
      24:	3173632f 	cmncc	r3, pc, lsr #6
      28:	2d653034 	stclcs	0, cr3, [r5, #-208]!	; 0xffffff30
      2c:	69773232 	ldmdbvs	r7!, {r1, r4, r5, r9, ip, sp}^
      30:	696c2f6e 	stmdbvs	ip!, {r1, r2, r3, r5, r6, r8, r9, sl, fp, sp}^
      34:	2f697062 	svccs	0x00697062
      38:	6c636e69 	stclvs	14, cr6, [r3], #-420	; 0xfffffe5c
      3c:	00656475 	rsbeq	r6, r5, r5, ror r4
      40:	65683200 	strbvs	r3, [r8, #-512]!	; 0xfffffe00
      44:	2d6f6c6c 	stclcs	12, cr6, [pc, #-432]!	; fffffe9c <__bss_end__+0xffff6a44>
      48:	65636e6f 	strbvs	r6, [r3, #-3695]!	; 0xfffff191
      4c:	0000632e 	andeq	r6, r0, lr, lsr #6
      50:	70720000 	rsbsvc	r0, r2, r0
      54:	00682e69 	rsbeq	r2, r8, r9, ror #28
      58:	00000001 	andeq	r0, r0, r1
      5c:	05001405 	streq	r1, [r0, #-1029]	; 0xfffffbfb
      60:	00803802 	addeq	r3, r0, r2, lsl #16
      64:	02051800 	andeq	r1, r5, #0, 16
      68:	024b2f2f 	subeq	r2, fp, #47, 30	; 0xbc
      6c:	01010004 	tsteq	r1, r4
      70:	0000031d 	andeq	r0, r0, sp, lsl r3
      74:	00b90003 	adcseq	r0, r9, r3
      78:	01020000 	mrseq	r0, (UNDEF: 2)
      7c:	000d0efb 	strdeq	r0, [sp], -fp
      80:	01010101 	tsteq	r1, r1, lsl #2
      84:	01000000 	mrseq	r0, (UNDEF: 0)
      88:	2e010000 	cdpcs	0, 0, cr0, cr1, cr0, {0}
      8c:	6372732f 	cmnvs	r2, #-1140850688	; 0xbc000000
      90:	706f2f00 	rsbvc	r2, pc, r0, lsl #30
      94:	34312f74 	ldrtcc	r2, [r1], #-3956	; 0xfffff08c
      98:	672f6530 			; <UNDEFINED> instruction: 0x672f6530
      9c:	612d6363 			; <UNDEFINED> instruction: 0x612d6363
      a0:	6e2d6d72 	mcrvs	13, 1, r6, cr13, cr2, {3}
      a4:	2d656e6f 	stclcs	14, cr6, [r5, #-444]!	; 0xfffffe44
      a8:	69626165 	stmdbvs	r2!, {r0, r2, r5, r6, r8, sp, lr}^
      ac:	2e30312d 	rsfcssp	f3, f0, #5.0
      b0:	30322d33 	eorscc	r2, r2, r3, lsr sp
      b4:	312e3132 			; <UNDEFINED> instruction: 0x312e3132
      b8:	696c2f30 	stmdbvs	ip!, {r4, r5, r8, r9, sl, fp, sp}^
      bc:	63672f62 	cmnvs	r7, #392	; 0x188
      c0:	72612f63 	rsbvc	r2, r1, #396	; 0x18c
      c4:	6f6e2d6d 	svcvs	0x006e2d6d
      c8:	652d656e 	strvs	r6, [sp, #-1390]!	; 0xfffffa92
      cc:	2f696261 	svccs	0x00696261
      d0:	332e3031 			; <UNDEFINED> instruction: 0x332e3031
      d4:	692f312e 	stmdbvs	pc!, {r1, r2, r3, r5, r8, ip, sp}	; <UNPREDICTABLE>
      d8:	756c636e 	strbvc	r6, [ip, #-878]!	; 0xfffffc92
      dc:	2f006564 	svccs	0x00006564
      e0:	2f74706f 	svccs	0x0074706f
      e4:	65303431 	ldrvs	r3, [r0, #-1073]!	; 0xfffffbcf
      e8:	3173632f 	cmncc	r3, pc, lsr #6
      ec:	2d653034 	stclcs	0, cr3, [r5, #-208]!	; 0xffffff30
      f0:	69773232 	ldmdbvs	r7!, {r1, r4, r5, r9, ip, sp}^
      f4:	696c2f6e 	stmdbvs	ip!, {r1, r2, r3, r5, r6, r8, r9, sl, fp, sp}^
      f8:	2f697062 	svccs	0x00697062
      fc:	6c636e69 	stclvs	14, cr6, [r3], #-420	; 0xfffffe5c
     100:	00656475 	rsbeq	r6, r5, r5, ror r4
     104:	72617500 	rsbvc	r7, r1, #0, 10
     108:	00632e74 	rsbeq	r2, r3, r4, ror lr
     10c:	73000001 	movwvc	r0, #1
     110:	6e696474 	mcrvs	4, 3, r6, cr9, cr4, {3}
     114:	63672d74 	cmnvs	r7, #116, 26	; 0x1d00
     118:	00682e63 	rsbeq	r2, r8, r3, ror #28
     11c:	72000002 	andvc	r0, r0, #2
     120:	682e6970 	stmdavs	lr!, {r4, r5, r6, r8, fp, sp, lr}
     124:	00000300 	andeq	r0, r0, r0, lsl #6
     128:	6f697067 	svcvs	0x00697067
     12c:	0300682e 	movweq	r6, #2094	; 0x82e
     130:	05000000 	streq	r0, [r0, #-0]
     134:	02050020 	andeq	r0, r5, #32
     138:	00008050 	andeq	r8, r0, r0, asr r0
     13c:	0102fd03 	tsteq	r2, r3, lsl #26	; <UNPREDICTABLE>
     140:	05510505 	ldrbeq	r0, [r1, #-1285]	; 0xfffffafb
     144:	05010614 	streq	r0, [r1, #-1556]	; 0xfffff9ec
     148:	05670605 	strbeq	r0, [r7, #-1541]!	; 0xfffff9fb
     14c:	05010612 	streq	r0, [r1, #-1554]	; 0xfffff9ee
     150:	05054a0e 	streq	r4, [r5, #-2574]	; 0xfffff5f2
     154:	02052f06 	andeq	r2, r5, #6, 30
     158:	06100513 			; <UNDEFINED> instruction: 0x06100513
     15c:	2f010501 	svccs	0x00010501
     160:	03061605 	movweq	r1, #26117	; 0x6605
     164:	0505ba43 	streq	fp, [r5, #-2627]	; 0xfffff5bd
     168:	0614052f 	ldreq	r0, [r4], -pc, lsr #10
     16c:	06050501 	streq	r0, [r5], -r1, lsl #10
     170:	05696768 	strbeq	r6, [r9, #-1896]!	; 0xfffff898
     174:	0501063e 	streq	r0, [r1, #-1598]	; 0xfffff9c2
     178:	1c052e1e 	stcne	14, cr2, [r5], {30}
     17c:	0605054a 	streq	r0, [r5], -sl, asr #10
     180:	0613052f 	ldreq	r0, [r3], -pc, lsr #10
     184:	2e2f0501 	cfsh64cs	mvdx0, mvdx15, #1
     188:	83060505 	movwhi	r0, #25861	; 0x6505
     18c:	063f054d 	ldrteq	r0, [pc], -sp, asr #10
     190:	2e1f0501 	cfmul32cs	mvfx0, mvfx15, mvfx1
     194:	054a1d05 	strbeq	r1, [sl, #-3333]	; 0xfffff2fb
     198:	052f0605 	streq	r0, [pc, #-1541]!	; fffffb9b <__bss_end__+0xffff6743>
     19c:	05010613 	streq	r0, [r1, #-1555]	; 0xfffff9ed
     1a0:	05052e33 	streq	r2, [r5, #-3635]	; 0xfffff1cd
     1a4:	33056706 	movwcc	r6, #22278	; 0x5706
     1a8:	05050106 	streq	r0, [r5, #-262]	; 0xfffffefa
     1ac:	054d8306 	strbeq	r8, [sp, #-774]	; 0xfffffcfa
     1b0:	0501063e 	streq	r0, [r1, #-1598]	; 0xfffff9c2
     1b4:	1c052e1e 	stcne	14, cr2, [r5], {30}
     1b8:	0605054a 	streq	r0, [r5], -sl, asr #10
     1bc:	0613052f 	ldreq	r0, [r3], -pc, lsr #10
     1c0:	2e340501 	cdpcs	5, 3, cr0, cr4, cr1, {0}
     1c4:	67060505 	strvs	r0, [r6, -r5, lsl #10]
     1c8:	01063405 	tsteq	r6, r5, lsl #8
     1cc:	83060505 	movwhi	r0, #25861	; 0x6505
     1d0:	063e054d 	ldrteq	r0, [lr], -sp, asr #10
     1d4:	2e1e0501 	cfmul32cs	mvfx0, mvfx14, mvfx1
     1d8:	054a1c05 	strbeq	r1, [sl, #-3077]	; 0xfffff3fb
     1dc:	052f0605 	streq	r0, [pc, #-1541]!	; fffffbdf <__bss_end__+0xffff6787>
     1e0:	05010613 	streq	r0, [r1, #-1555]	; 0xfffff9ed
     1e4:	05052e35 	streq	r2, [r5, #-3637]	; 0xfffff1cb
     1e8:	35056706 	strcc	r6, [r5, #-1798]	; 0xfffff8fa
     1ec:	05050106 	streq	r0, [r5, #-262]	; 0xfffffefa
     1f0:	05508306 	ldrbeq	r8, [r0, #-774]	; 0xfffffcfa
     1f4:	0501063f 	streq	r0, [r1, #-1599]	; 0xfffff9c1
     1f8:	1d052e1f 	stcne	14, cr2, [r5, #-124]	; 0xffffff84
     1fc:	0605054a 	streq	r0, [r5], -sl, asr #10
     200:	0613052f 	ldreq	r0, [r3], -pc, lsr #10
     204:	2e2e0501 	cfsh64cs	mvdx0, mvdx14, #1
     208:	67060505 	strvs	r0, [r6, -r5, lsl #10]
     20c:	063e054d 	ldrteq	r0, [lr], -sp, asr #10
     210:	2e1e0501 	cfmul32cs	mvfx0, mvfx14, mvfx1
     214:	054a1c05 	strbeq	r1, [sl, #-3077]	; 0xfffff3fb
     218:	052f0605 	streq	r0, [pc, #-1541]!	; fffffc1b <__bss_end__+0xffff67c3>
     21c:	05010613 	streq	r0, [r1, #-1555]	; 0xfffff9ed
     220:	05052e31 	streq	r2, [r5, #-3633]	; 0xfffff1cf
     224:	054d8306 	strbeq	r8, [sp, #-774]	; 0xfffffcfa
     228:	0501063f 	streq	r0, [r1, #-1599]	; 0xfffff9c1
     22c:	1d052e1f 	stcne	14, cr2, [r5, #-124]	; 0xffffff84
     230:	0605054a 	streq	r0, [r5], -sl, asr #10
     234:	0613052f 	ldreq	r0, [r3], -pc, lsr #10
     238:	2e330501 	cdpcs	5, 3, cr0, cr3, cr1, {0}
     23c:	67060505 	strvs	r0, [r6, -r5, lsl #10]
     240:	01063305 	tsteq	r6, r5, lsl #6
     244:	83060505 	movwhi	r0, #25861	; 0x6505
     248:	4b060105 	blmi	180664 <__bss_end__+0x17720c>
     24c:	03061505 	movweq	r1, #25861	; 0x6505
     250:	05058212 	streq	r8, [r5, #-530]	; 0xfffffdee
     254:	0614052f 	ldreq	r0, [r4], -pc, lsr #10
     258:	06050501 	streq	r0, [r5], -r1, lsl #10
     25c:	00090567 	andeq	r0, r9, r7, ror #10
     260:	13010402 	movwne	r0, #5122	; 0x1402
     264:	02000b05 	andeq	r0, r0, #5120	; 0x1400
     268:	05110104 	ldreq	r0, [r1, #-260]	; 0xfffffefc
     26c:	0402000d 	streq	r0, [r2], #-13
     270:	05010601 	streq	r0, [r1, #-1537]	; 0xfffff9ff
     274:	0402000b 	streq	r0, [r2], #-11
     278:	05052e01 	streq	r2, [r5, #-3585]	; 0xfffff1ff
     27c:	32054c06 	andcc	r4, r5, #1536	; 0x600
     280:	12050106 	andne	r0, r5, #-2147483647	; 0x80000001
     284:	0605054a 	streq	r0, [r5], -sl, asr #10
     288:	1302054b 	movwne	r0, #9547	; 0x254b
     28c:	13060105 	movwne	r0, #24837	; 0x6105
     290:	85061905 	strhi	r1, [r6, #-2309]	; 0xfffff6fb
     294:	054b0505 	strbeq	r0, [fp, #-1285]	; 0xfffffafb
     298:	05010614 	streq	r0, [r1, #-1556]	; 0xfffff9ec
     29c:	05670605 	strbeq	r0, [r7, #-1541]!	; 0xfffff9fb
     2a0:	05010612 	streq	r0, [r1, #-1554]	; 0xfffff9ee
     2a4:	05054a0e 	streq	r4, [r5, #-2574]	; 0xfffff5f2
     2a8:	02052f06 	andeq	r2, r5, #6, 30
     2ac:	06100513 			; <UNDEFINED> instruction: 0x06100513
     2b0:	4b010501 	blmi	416bc <__bss_end__+0x38264>
     2b4:	be061c05 	cdplt	12, 0, cr1, cr6, cr5, {0}
     2b8:	05050106 	streq	r0, [r5, #-262]	; 0xfffffefa
     2bc:	14054b06 	strne	r4, [r5], #-2822	; 0xfffff4fa
     2c0:	05050106 	streq	r0, [r5, #-262]	; 0xfffffefa
     2c4:	09056706 	stmdbeq	r5, {r1, r2, r8, r9, sl, sp, lr}
     2c8:	01040200 	mrseq	r0, R12_usr
     2cc:	000b0513 	andeq	r0, fp, r3, lsl r5
     2d0:	11010402 	tstne	r1, r2, lsl #8
     2d4:	02000d05 	andeq	r0, r0, #320	; 0x140
     2d8:	01060104 	tsteq	r6, r4, lsl #2
     2dc:	02000b05 	andeq	r0, r0, #5120	; 0x1400
     2e0:	052e0104 	streq	r0, [lr, #-260]!	; 0xfffffefc
     2e4:	054c0605 	strbeq	r0, [ip, #-1541]	; 0xfffff9fb
     2e8:	05010625 	streq	r0, [r1, #-1573]	; 0xfffff9db
     2ec:	01054a05 	tsteq	r5, r5, lsl #20
     2f0:	06190567 	ldreq	r0, [r9], -r7, ror #10
     2f4:	2f05056b 	svccs	0x0005056b
     2f8:	01060c05 	tsteq	r6, r5, lsl #24
     2fc:	052f0105 	streq	r0, [pc, #-261]!	; 1ff <__code_start__-0x7e01>
     300:	0531061b 	ldreq	r0, [r1, #-1563]!	; 0xfffff9e5
     304:	09052f05 	stmdbeq	r5, {r0, r2, r8, r9, sl, fp, sp}
     308:	07050106 	streq	r0, [r5, -r6, lsl #2]
     30c:	0605052e 	streq	r0, [r5], -lr, lsr #10
     310:	060c054c 	streq	r0, [ip], -ip, asr #10
     314:	49100501 	ldmdbmi	r0, {r0, r8, sl}
     318:	05300105 	ldreq	r0, [r0, #-261]!	; 0xfffffefb
     31c:	0531061c 	ldreq	r0, [r1, #-1564]!	; 0xfffff9e4
     320:	14054b05 	strne	r4, [r5], #-2821	; 0xfffff4fb
     324:	05050106 	streq	r0, [r5, #-262]	; 0xfffffefa
     328:	12056706 	andne	r6, r5, #1572864	; 0x180000
     32c:	0e050106 	adfeqs	f0, f5, f6
     330:	0605054a 	streq	r0, [r5], -sl, asr #10
     334:	1302052f 	movwne	r0, #9519	; 0x252f
     338:	01061005 	tsteq	r6, r5
     33c:	052f0105 	streq	r0, [pc, #-261]!	; 23f <__code_start__-0x7dc1>
     340:	05bc061a 	ldreq	r0, [ip, #1562]!	; 0x61a
     344:	04020009 	streq	r0, [r2], #-9
     348:	0a053001 	beq	14c354 <__bss_end__+0x142efc>
     34c:	01040200 	mrseq	r0, R12_usr
     350:	000c0511 	andeq	r0, ip, r1, lsl r5
     354:	06010402 	streq	r0, [r1], -r2, lsl #8
     358:	000a0501 	andeq	r0, sl, r1, lsl #10
     35c:	2e010402 	cdpcs	4, 0, cr0, cr1, cr2, {0}
     360:	6c060105 	stfvss	f0, [r6], {5}
     364:	052f0505 	streq	r0, [pc, #-1285]!	; fffffe67 <__bss_end__+0xffff6a0f>
     368:	0501063f 	streq	r0, [r1, #-1599]	; 0xfffff9c1
     36c:	1d054a1f 	vstrne	s8, [r5, #-124]	; 0xffffff84
     370:	0605054a 	streq	r0, [r5], -sl, asr #10
     374:	0613052f 	ldreq	r0, [r3], -pc, lsr #10
     378:	2e330501 	cdpcs	5, 3, cr0, cr3, cr1, {0}
     37c:	67060505 	strvs	r0, [r6, -r5, lsl #10]
     380:	01063305 	tsteq	r6, r5, lsl #6
     384:	83060505 	movwhi	r0, #25861	; 0x6505
     388:	4b060105 	blmi	1807a4 <__bss_end__+0x17734c>
     38c:	01000402 	tsteq	r0, r2, lsl #8
     390:	0000fd01 	andeq	pc, r0, r1, lsl #26
     394:	cb000300 	blgt	f9c <__code_start__-0x7064>
     398:	02000000 	andeq	r0, r0, #0
     39c:	0d0efb01 	vstreq	d15, [lr, #-4]
     3a0:	01010100 	mrseq	r0, (UNDEF: 17)
     3a4:	00000001 	andeq	r0, r0, r1
     3a8:	01000001 	tsteq	r0, r1
     3ac:	696c2f2e 	stmdbvs	ip!, {r1, r2, r3, r5, r8, r9, sl, fp, sp}^
     3b0:	2f006362 	svccs	0x00006362
     3b4:	2f74706f 	svccs	0x0074706f
     3b8:	65303431 	ldrvs	r3, [r0, #-1073]!	; 0xfffffbcf
     3bc:	6363672f 	cmnvs	r3, #12320768	; 0xbc0000
     3c0:	6d72612d 	ldfvse	f6, [r2, #-180]!	; 0xffffff4c
     3c4:	6e6f6e2d 	cdpvs	14, 6, cr6, cr15, cr13, {1}
     3c8:	61652d65 	cmnvs	r5, r5, ror #26
     3cc:	312d6962 			; <UNDEFINED> instruction: 0x312d6962
     3d0:	2d332e30 	ldccs	14, cr2, [r3, #-192]!	; 0xffffff40
     3d4:	31323032 	teqcc	r2, r2, lsr r0
     3d8:	2f30312e 	svccs	0x0030312e
     3dc:	2f62696c 	svccs	0x0062696c
     3e0:	2f636367 	svccs	0x00636367
     3e4:	2d6d7261 	sfmcs	f7, 2, [sp, #-388]!	; 0xfffffe7c
     3e8:	656e6f6e 	strbvs	r6, [lr, #-3950]!	; 0xfffff092
     3ec:	6261652d 	rsbvs	r6, r1, #188743680	; 0xb400000
     3f0:	30312f69 	eorscc	r2, r1, r9, ror #30
     3f4:	312e332e 			; <UNDEFINED> instruction: 0x312e332e
     3f8:	636e692f 	cmnvs	lr, #770048	; 0xbc000
     3fc:	6564756c 	strbvs	r7, [r4, #-1388]!	; 0xfffffa94
     400:	706f2f00 	rsbvc	r2, pc, r0, lsl #30
     404:	34312f74 	ldrtcc	r2, [r1], #-3956	; 0xfffff08c
     408:	632f6530 			; <UNDEFINED> instruction: 0x632f6530
     40c:	30343173 	eorscc	r3, r4, r3, ror r1
     410:	32322d65 	eorscc	r2, r2, #6464	; 0x1940
     414:	2f6e6977 	svccs	0x006e6977
     418:	7062696c 	rsbvc	r6, r2, ip, ror #18
     41c:	6e692f69 	cdpvs	15, 6, cr2, cr9, cr9, {3}
     420:	64756c63 	ldrbtvs	r6, [r5], #-3171	; 0xfffff39d
     424:	70000065 	andvc	r0, r0, r5, rrx
     428:	746e6972 	strbtvc	r6, [lr], #-2418	; 0xfffff68e
     42c:	00632e6b 	rsbeq	r2, r3, fp, ror #28
     430:	73000001 	movwvc	r0, #1
     434:	72616474 	rsbvc	r6, r1, #116, 8	; 0x74000000
     438:	00682e67 	rsbeq	r2, r8, r7, ror #28
     43c:	3c000002 	stccc	0, cr0, [r0], {2}
     440:	6c697562 	cfstr64vs	mvdx7, [r9], #-392	; 0xfffffe78
     444:	6e692d74 	mcrvs	13, 3, r2, cr9, cr4, {3}
     448:	0000003e 	andeq	r0, r0, lr, lsr r0
     44c:	69707200 	ldmdbvs	r0!, {r9, ip, sp, lr}^
     450:	0300682e 	movweq	r6, #2094	; 0x82e
     454:	61760000 	cmnvs	r6, r0
     458:	6972702d 	ldmdbvs	r2!, {r0, r2, r3, r5, ip, sp, lr}^
     45c:	2e6b746e 	cdpcs	4, 6, cr7, cr11, cr14, {3}
     460:	00010068 	andeq	r0, r1, r8, rrx
     464:	22050000 	andcs	r0, r5, #0
     468:	a4020500 	strge	r0, [r2], #-1280	; 0xfffffb00
     46c:	17000083 	strne	r0, [r0, -r3, lsl #1]
     470:	05050106 	streq	r0, [r5, #-262]	; 0xfffffefa
     474:	14136806 	ldrne	r6, [r3], #-2054	; 0xfffff7fa
     478:	054b0905 	strbeq	r0, [fp, #-2309]	; 0xfffff6fb
     47c:	05010612 	streq	r0, [r1, #-1554]	; 0xfffff9ee
     480:	16bb0605 	ldrtne	r0, [fp], r5, lsl #12
     484:	34066606 	strcc	r6, [r6], #-1542	; 0xfffff9fa
     488:	13060105 	movwne	r0, #24837	; 0x6105
     48c:	00080266 	andeq	r0, r8, r6, ror #4
     490:	00990101 	addseq	r0, r9, r1, lsl #2
     494:	00030000 	andeq	r0, r3, r0
     498:	00000052 	andeq	r0, r0, r2, asr r0
     49c:	0efb0102 	cdpeq	1, 15, cr0, cr11, cr2, {0}
     4a0:	0101000d 	tsteq	r1, sp
     4a4:	00000101 	andeq	r0, r0, r1, lsl #2
     4a8:	00000100 	andeq	r0, r0, r0, lsl #2
     4ac:	6c2f2e01 	stcvs	14, cr2, [pc], #-4	; 4b0 <__code_start__-0x7b50>
     4b0:	00636269 	rsbeq	r6, r3, r9, ror #4
     4b4:	74706f2f 	ldrbtvc	r6, [r0], #-3887	; 0xfffff0d1
     4b8:	3034312f 	eorscc	r3, r4, pc, lsr #2
     4bc:	73632f65 	cmnvc	r3, #404	; 0x194
     4c0:	65303431 	ldrvs	r3, [r0, #-1073]!	; 0xfffffbcf
     4c4:	7732322d 	ldrvc	r3, [r2, -sp, lsr #4]!
     4c8:	6c2f6e69 	stcvs	14, cr6, [pc], #-420	; 32c <__code_start__-0x7cd4>
     4cc:	69706269 	ldmdbvs	r0!, {r0, r3, r5, r6, r9, sp, lr}^
     4d0:	636e692f 	cmnvs	lr, #770048	; 0xbc000
     4d4:	6564756c 	strbvs	r7, [r4, #-1388]!	; 0xfffffa94
     4d8:	75700000 	ldrbvc	r0, [r0, #-0]!
     4dc:	632e6b74 			; <UNDEFINED> instruction: 0x632e6b74
     4e0:	00000100 	andeq	r0, r0, r0, lsl #2
     4e4:	2e697072 	mcrcs	0, 3, r7, cr9, cr2, {3}
     4e8:	00020068 	andeq	r0, r2, r8, rrx
     4ec:	22050000 	andcs	r0, r5, #0
     4f0:	fc020500 	stc2	5, cr0, [r2], {-0}
     4f4:	15000083 	strne	r0, [r0, #-131]	; 0xffffff7d
     4f8:	05050106 	streq	r0, [r5, #-262]	; 0xfffffefa
     4fc:	09054b06 	stmdbeq	r5, {r1, r2, r8, r9, fp, lr}
     500:	02040200 	andeq	r0, r4, #0, 4
     504:	000f052f 	andeq	r0, pc, pc, lsr #10
     508:	65020402 	strvs	r0, [r2, #-1026]	; 0xfffffbfe
     50c:	02001005 	andeq	r1, r0, #5
     510:	01060204 	tsteq	r6, r4, lsl #4
     514:	02000b05 	andeq	r0, r0, #5120	; 0x1400
     518:	2e060104 	adfcss	f0, f6, f4
     51c:	02000505 	andeq	r0, r0, #20971520	; 0x1400000
     520:	2e060104 	adfcss	f0, f6, f4
     524:	01054e06 	tsteq	r5, r6, lsl #28
     528:	06021306 	streq	r1, [r2], -r6, lsl #6
     52c:	c0010100 	andgt	r0, r1, r0, lsl #2
     530:	03000005 	movweq	r0, #5
     534:	0000cf00 	andeq	ip, r0, r0, lsl #30
     538:	fb010200 	blx	40d42 <__bss_end__+0x378ea>
     53c:	01000d0e 	tsteq	r0, lr, lsl #26
     540:	00010101 	andeq	r0, r1, r1, lsl #2
     544:	00010000 	andeq	r0, r1, r0
     548:	2f2e0100 	svccs	0x002e0100
     54c:	6362696c 	cmnvs	r2, #108, 18	; 0x1b0000
     550:	706f2f00 	rsbvc	r2, pc, r0, lsl #30
     554:	34312f74 	ldrtcc	r2, [r1], #-3956	; 0xfffff08c
     558:	672f6530 			; <UNDEFINED> instruction: 0x672f6530
     55c:	612d6363 			; <UNDEFINED> instruction: 0x612d6363
     560:	6e2d6d72 	mcrvs	13, 1, r6, cr13, cr2, {3}
     564:	2d656e6f 	stclcs	14, cr6, [r5, #-444]!	; 0xfffffe44
     568:	69626165 	stmdbvs	r2!, {r0, r2, r5, r6, r8, sp, lr}^
     56c:	2e30312d 	rsfcssp	f3, f0, #5.0
     570:	30322d33 	eorscc	r2, r2, r3, lsr sp
     574:	312e3132 			; <UNDEFINED> instruction: 0x312e3132
     578:	696c2f30 	stmdbvs	ip!, {r4, r5, r8, r9, sl, fp, sp}^
     57c:	63672f62 	cmnvs	r7, #392	; 0x188
     580:	72612f63 	rsbvc	r2, r1, #396	; 0x18c
     584:	6f6e2d6d 	svcvs	0x006e2d6d
     588:	652d656e 	strvs	r6, [sp, #-1390]!	; 0xfffffa92
     58c:	2f696261 	svccs	0x00696261
     590:	332e3031 			; <UNDEFINED> instruction: 0x332e3031
     594:	692f312e 	stmdbvs	pc!, {r1, r2, r3, r5, r8, ip, sp}	; <UNPREDICTABLE>
     598:	756c636e 	strbvc	r6, [ip, #-878]!	; 0xfffffc92
     59c:	2f006564 	svccs	0x00006564
     5a0:	2f74706f 	svccs	0x0074706f
     5a4:	65303431 	ldrvs	r3, [r0, #-1073]!	; 0xfffffbcf
     5a8:	3173632f 	cmncc	r3, pc, lsr #6
     5ac:	2d653034 	stclcs	0, cr3, [r5, #-208]!	; 0xffffff30
     5b0:	69773232 	ldmdbvs	r7!, {r1, r4, r5, r9, ip, sp}^
     5b4:	696c2f6e 	stmdbvs	ip!, {r1, r2, r3, r5, r6, r8, r9, sl, fp, sp}^
     5b8:	2f697062 	svccs	0x00697062
     5bc:	6c636e69 	stclvs	14, cr6, [r3], #-420	; 0xfffffe5c
     5c0:	00656475 	rsbeq	r6, r5, r5, ror r4
     5c4:	2d617600 	stclcs	6, cr7, [r1, #-0]
     5c8:	6e697270 	mcrvs	2, 3, r7, cr9, cr0, {3}
     5cc:	632e6b74 			; <UNDEFINED> instruction: 0x632e6b74
     5d0:	00000100 	andeq	r0, r0, r0, lsl #2
     5d4:	69647473 	stmdbvs	r4!, {r0, r1, r4, r5, r6, sl, ip, sp, lr}^
     5d8:	672d746e 	strvs	r7, [sp, -lr, ror #8]!
     5dc:	682e6363 	stmdavs	lr!, {r0, r1, r5, r6, r8, r9, sp, lr}
     5e0:	00000200 	andeq	r0, r0, r0, lsl #4
     5e4:	2e697072 	mcrcs	0, 3, r7, cr9, cr2, {3}
     5e8:	00030068 	andeq	r0, r3, r8, rrx
     5ec:	64747300 	ldrbtvs	r7, [r4], #-768	; 0xfffffd00
     5f0:	2e677261 	cdpcs	2, 6, cr7, cr7, cr1, {3}
     5f4:	00020068 	andeq	r0, r2, r8, rrx
     5f8:	75623c00 	strbvc	r3, [r2, #-3072]!	; 0xfffff400
     5fc:	2d746c69 	ldclcs	12, cr6, [r4, #-420]!	; 0xfffffe5c
     600:	003e6e69 	eorseq	r6, lr, r9, ror #28
     604:	00000000 	andeq	r0, r0, r0
     608:	05001b05 	streq	r1, [r0, #-2821]	; 0xfffff4fb
     60c:	00843002 	addeq	r3, r4, r2
     610:	01260300 			; <UNDEFINED> instruction: 0x01260300
     614:	05011d05 	streq	r1, [r1, #-3333]	; 0xfffff2fb
     618:	0501062d 	streq	r0, [r1, #-1581]	; 0xfffff9d3
     61c:	054a2e3a 	strbeq	r2, [sl, #-3642]	; 0xfffff1c6
     620:	05510633 	ldrbeq	r0, [r1, #-1587]	; 0xfffff9cd
     624:	06051302 	streq	r1, [r5], -r2, lsl #6
     628:	02050106 	andeq	r0, r5, #-2147483647	; 0x80000001
     62c:	03053006 	movweq	r3, #20486	; 0x5006
     630:	02040200 	andeq	r0, r4, #0, 4
     634:	0008052f 	andeq	r0, r8, pc, lsr #10
     638:	06020402 	streq	r0, [r2], -r2, lsl #8
     63c:	00150501 	andseq	r0, r5, r1, lsl #10
     640:	06020402 	streq	r0, [r2], -r2, lsl #8
     644:	00180549 	andseq	r0, r8, r9, asr #10
     648:	06020402 	streq	r0, [r2], -r2, lsl #8
     64c:	00080501 	andeq	r0, r8, r1, lsl #10
     650:	06010402 	streq	r0, [r1], -r2, lsl #8
     654:	0002052e 	andeq	r0, r2, lr, lsr #10
     658:	06010402 	streq	r0, [r1], -r2, lsl #8
     65c:	054c0601 	strbeq	r0, [ip, #-1537]	; 0xfffff9ff
     660:	05010605 	streq	r0, [r1, #-1541]	; 0xfffff9fb
     664:	054b0602 	strbeq	r0, [fp, #-1538]	; 0xfffff9fe
     668:	05130601 	ldreq	r0, [r3, #-1537]	; 0xfffff9ff
     66c:	0531063e 	ldreq	r0, [r1, #-1598]!	; 0xfffff9c2
     670:	0e051402 	cdpeq	4, 0, cr1, cr5, cr2, {0}
     674:	06050106 	streq	r0, [r5], -r6, lsl #2
     678:	0602052e 	streq	r0, [r2], -lr, lsr #10
     67c:	0604052f 	streq	r0, [r4], -pc, lsr #10
     680:	06030501 	streq	r0, [r3], -r1, lsl #10
     684:	0611052f 	ldreq	r0, [r1], -pc, lsr #10
     688:	2e090501 	cfsh32cs	mvfx0, mvfx9, #1
     68c:	30060205 	andcc	r0, r6, r5, lsl #4
     690:	06070515 			; <UNDEFINED> instruction: 0x06070515
     694:	2e020501 	cfsh32cs	mvfx0, mvfx2, #1
     698:	0003052e 	andeq	r0, r3, lr, lsr #10
     69c:	06030402 	streq	r0, [r3], -r2, lsl #8
     6a0:	000c052f 	andeq	r0, ip, pc, lsr #10
     6a4:	06030402 	streq	r0, [r3], -r2, lsl #8
     6a8:	000a0501 	andeq	r0, sl, r1, lsl #10
     6ac:	2e030402 	cdpcs	4, 0, cr0, cr3, cr2, {0}
     6b0:	02001705 	andeq	r1, r0, #1310720	; 0x140000
     6b4:	2d060304 	stccs	3, cr0, [r6, #-16]
     6b8:	02000b05 	andeq	r0, r0, #5120	; 0x1400
     6bc:	05010104 	streq	r0, [r1, #-260]	; 0xfffffefc
     6c0:	04020002 	streq	r0, [r2], #-2
     6c4:	06010601 	streq	r0, [r1], -r1, lsl #12
     6c8:	0609054c 	streq	r0, [r9], -ip, asr #10
     6cc:	02052e01 	andeq	r2, r5, #1, 28
     6d0:	01053006 	tsteq	r5, r6
     6d4:	49051306 	stmdbmi	r5, {r1, r2, r8, r9, ip}
     6d8:	01063106 	tsteq	r6, r6, lsl #2
     6dc:	a0060205 	andge	r0, r6, r5, lsl #4
     6e0:	01060405 	tsteq	r6, r5, lsl #8
     6e4:	2f060305 	svccs	0x00060305
     6e8:	01060905 	tsteq	r6, r5, lsl #18
     6ec:	30060205 	andcc	r0, r6, r5, lsl #4
     6f0:	060b0513 			; <UNDEFINED> instruction: 0x060b0513
     6f4:	06020501 	streq	r0, [r2], -r1, lsl #10
     6f8:	052e0630 	streq	r0, [lr, #-1584]!	; 0xfffff9d0
     6fc:	24020604 	strcs	r0, [r2], #-1540	; 0xfffff9fc
     700:	0f051315 	svceq	0x00051315
     704:	052e0106 	streq	r0, [lr, #-262]!	; 0xfffffefa
     708:	05054a06 	streq	r4, [r5, #-2566]	; 0xfffff5fa
     70c:	05134b06 	ldreq	r4, [r3, #-2822]	; 0xfffff4fa
     710:	05010609 	streq	r0, [r1, #-1545]	; 0xfffff9f7
     714:	052f0605 	streq	r0, [pc, #-1541]!	; 117 <__code_start__-0x7ee9>
     718:	0510060b 	ldreq	r0, [r0, #-1547]	; 0xfffff9f5
     71c:	0402000d 	streq	r0, [r2], #-13
     720:	04052c01 	streq	r2, [r5], #-3073	; 0xfffff3ff
     724:	01040200 	mrseq	r0, R12_usr
     728:	05053406 	streq	r3, [r5, #-1030]	; 0xfffffbfa
     72c:	01040200 	mrseq	r0, R12_usr
     730:	001b0513 	andseq	r0, fp, r3, lsl r5
     734:	06010402 	streq	r0, [r1], -r2, lsl #8
     738:	00070501 	andeq	r0, r7, r1, lsl #10
     73c:	d6010402 	strle	r0, [r1], -r2, lsl #8
     740:	02001805 	andeq	r1, r0, #327680	; 0x50000
     744:	052e0104 	streq	r0, [lr, #-260]!	; 0xfffffefc
     748:	0402000a 	streq	r0, [r2], #-10
     74c:	0b054a01 	bleq	152f58 <__bss_end__+0x149b00>
     750:	01040200 	mrseq	r0, R12_usr
     754:	0e052f06 	cdpeq	15, 0, cr2, cr5, cr6, {0}
     758:	01040200 	mrseq	r0, R12_usr
     75c:	04052e06 	streq	r2, [r5], #-3590	; 0xfffff1fa
     760:	01040200 	mrseq	r0, R12_usr
     764:	054b062e 	strbeq	r0, [fp, #-1582]	; 0xfffff9d2
     768:	05010606 	streq	r0, [r1, #-1542]	; 0xfffff9fa
     76c:	052f0605 	streq	r0, [pc, #-1541]!	; 16f <__code_start__-0x7e91>
     770:	0501060a 	streq	r0, [r1, #-1546]	; 0xfffff9f6
     774:	052e4a07 	streq	r4, [lr, #-2567]!	; 0xfffff5f9
     778:	2e76030d 	cdpcs	3, 7, cr0, cr6, cr13, {0}
     77c:	0f02054a 	svceq	0x0002054a
     780:	02000d05 	andeq	r0, r0, #320	; 0x140
     784:	03060104 	movweq	r0, #24836	; 0x6104
     788:	11052e12 	tstne	r5, r2, lsl lr
     78c:	01040200 	mrseq	r0, R12_usr
     790:	002d0513 	eoreq	r0, sp, r3, lsl r5
     794:	06010402 	streq	r0, [r1], -r2, lsl #8
     798:	002a0501 	eoreq	r0, sl, r1, lsl #10
     79c:	2e010402 	cdpcs	4, 0, cr0, cr1, cr2, {0}
     7a0:	02001605 	andeq	r1, r0, #5242880	; 0x500000
     7a4:	054a0104 	strbeq	r0, [sl, #-260]	; 0xfffffefc
     7a8:	04020014 	streq	r0, [r2], #-20	; 0xffffffec
     7ac:	054b0601 	strbeq	r0, [fp, #-1537]	; 0xfffff9ff
     7b0:	0402000d 	streq	r0, [r2], #-13
     7b4:	00010601 	andeq	r0, r1, r1, lsl #12
     7b8:	4a010402 	bmi	417c8 <__bss_end__+0x38370>
     7bc:	12052f06 	andne	r2, r5, #6, 30
     7c0:	054a0106 	strbeq	r0, [sl, #-262]	; 0xfffffefa
     7c4:	052f060d 	streq	r0, [pc, #-1549]!	; 1bf <__code_start__-0x7e41>
     7c8:	05010612 	streq	r0, [r1, #-1554]	; 0xfffff9ee
     7cc:	054b0619 	strbeq	r0, [fp, #-1561]	; 0xfffff9e7
     7d0:	04020004 	streq	r0, [r2], #-4
     7d4:	01110302 	tsteq	r1, r2, lsl #6
     7d8:	02040200 	andeq	r0, r4, #0, 4
     7dc:	00020501 	andeq	r0, r2, r1, lsl #10
     7e0:	15020402 	strne	r0, [r2, #-1026]	; 0xfffffbfe
     7e4:	02000905 	andeq	r0, r0, #81920	; 0x14000
     7e8:	01060204 	tsteq	r6, r4, lsl #4
     7ec:	02040200 	andeq	r0, r4, #0, 4
     7f0:	0001054a 	andeq	r0, r1, sl, asr #10
     7f4:	9f020402 	svcls	0x00020402
     7f8:	03060405 	movweq	r0, #25605	; 0x6405
     7fc:	09054a6e 	stmdbeq	r5, {r1, r2, r3, r5, r6, r9, fp, lr}
     800:	04050106 	streq	r0, [r5], #-262	; 0xfffffefa
     804:	06052f06 	streq	r2, [r5], -r6, lsl #30
     808:	04051106 	streq	r1, [r5], #-262	; 0xfffffefa
     80c:	0302052f 	movweq	r0, #9519	; 0x252f
     810:	19052e65 	stmdbne	r5, {r0, r2, r5, r6, r9, sl, fp, sp}
     814:	01040200 	mrseq	r0, R12_usr
     818:	2e220306 	cdpcs	3, 2, cr0, cr2, cr6, {0}
     81c:	02001a05 	andeq	r1, r0, #20480	; 0x5000
     820:	05130104 	ldreq	r0, [r3, #-260]	; 0xfffffefc
     824:	04020028 	streq	r0, [r2], #-40	; 0xffffffd8
     828:	05010601 	streq	r0, [r1, #-1537]	; 0xfffff9ff
     82c:	04020025 	streq	r0, [r2], #-37	; 0xffffffdb
     830:	1f052e01 	svcne	0x00052e01
     834:	01040200 	mrseq	r0, R12_usr
     838:	000b054a 	andeq	r0, fp, sl, asr #10
     83c:	06010402 	streq	r0, [r1], -r2, lsl #8
     840:	0004054b 	andeq	r0, r4, fp, asr #10
     844:	06010402 	streq	r0, [r1], -r2, lsl #8
     848:	04020001 	streq	r0, [r2], #-1
     84c:	02004a01 	andeq	r4, r0, #4096	; 0x1000
     850:	4e060104 	adfmis	f0, f6, f4
     854:	01040200 	mrseq	r0, R12_usr
     858:	04020001 	streq	r0, [r2], #-1
     85c:	02000101 	andeq	r0, r0, #1073741824	; 0x40000000
     860:	00010104 	andeq	r0, r1, r4, lsl #2
     864:	06010402 	streq	r0, [r1], -r2, lsl #8
     868:	0402002e 	streq	r0, [r2], #-46	; 0xffffffd2
     86c:	02006601 	andeq	r6, r0, #1048576	; 0x100000
     870:	002e0104 	eoreq	r0, lr, r4, lsl #2
     874:	06010402 	streq	r0, [r1], -r2, lsl #8
     878:	0348054a 	movteq	r0, #34122	; 0x854a
     87c:	20087fa6 	andcs	r7, r8, r6, lsr #31
     880:	01130505 	tsteq	r3, r5, lsl #10
     884:	02002e06 	andeq	r2, r0, #6, 28	; 0x60
     888:	2e060204 	cdpcs	2, 0, cr0, cr6, cr4, {0}
     88c:	02040200 	andeq	r0, r4, #0, 4
     890:	04020001 	streq	r0, [r2], #-1
     894:	11051302 	tstne	r5, r2, lsl #6
     898:	02040200 	andeq	r0, r4, #0, 4
     89c:	05050106 	streq	r0, [r5, #-262]	; 0xfffffefa
     8a0:	02040200 	andeq	r0, r4, #0, 4
     8a4:	07054b06 	streq	r4, [r5, -r6, lsl #22]
     8a8:	02040200 	andeq	r0, r4, #0, 4
     8ac:	09050106 	stmdbeq	r5, {r1, r2, r8}
     8b0:	0e054b06 	vmlaeq.f64	d4, d5, d6
     8b4:	48050106 	stmdami	r5, {r1, r2, r8}
     8b8:	01040200 	mrseq	r0, R12_usr
     8bc:	00050562 	andeq	r0, r5, r2, ror #10
     8c0:	06010402 	streq	r0, [r1], -r2, lsl #8
     8c4:	0402004b 	streq	r0, [r2], #-75	; 0xffffffb5
     8c8:	02000101 	andeq	r0, r0, #1073741824	; 0x40000000
     8cc:	9e060104 	adflss	f0, f6, f4
     8d0:	01040200 	mrseq	r0, R12_usr
     8d4:	0402002e 	streq	r0, [r2], #-46	; 0xffffffd2
     8d8:	052e0601 	streq	r0, [lr, #-1537]!	; 0xfffff9ff
     8dc:	00e10340 	rsceq	r0, r1, r0, asr #6
     8e0:	050106d6 	streq	r0, [r1, #-1750]	; 0xfffff92a
     8e4:	059f0602 	ldreq	r0, [pc, #1538]	; eee <__code_start__-0x7112>
     8e8:	0501061e 	streq	r0, [r1, #-1566]	; 0xfffff9e2
     8ec:	05052e12 	streq	r2, [r5, #-3602]	; 0xfffff1ee
     8f0:	02052f06 	andeq	r2, r5, #6, 30
     8f4:	06090514 			; <UNDEFINED> instruction: 0x06090514
     8f8:	06050501 	streq	r0, [r5], -r1, lsl #10
     8fc:	1302054b 	movwne	r0, #9547	; 0x254b
     900:	0d060805 	stceq	8, cr0, [r6, #-20]	; 0xffffffec
     904:	05330205 	ldreq	r0, [r3, #-517]!	; 0xfffffdfb
     908:	054e0608 	strbeq	r0, [lr, #-1544]	; 0xfffff9f8
     90c:	0501060e 	streq	r0, [r1, #-1550]	; 0xfffff9f2
     910:	04052e0a 	streq	r2, [r5], #-3594	; 0xfffff1f6
     914:	09054b06 	stmdbeq	r5, {r1, r2, r8, r9, fp, lr}
     918:	04050106 	streq	r0, [r5], #-262	; 0xfffffefa
     91c:	07052f06 	streq	r2, [r5, -r6, lsl #30]
     920:	08050106 	stmdaeq	r5, {r1, r2, r8}
     924:	2e7a0306 	cdpcs	3, 7, cr0, cr10, cr6, {0}
     928:	2e060205 	cdpcs	2, 0, cr0, cr6, cr5, {0}
     92c:	02000d05 	andeq	r0, r0, #320	; 0x140
     930:	054a0104 	strbeq	r0, [sl, #-260]	; 0xfffffefc
     934:	054b0603 	strbeq	r0, [fp, #-1539]	; 0xfffff9fd
     938:	05010605 	streq	r0, [r1, #-1541]	; 0xfffff9fb
     93c:	054b0604 	strbeq	r0, [fp, #-1540]	; 0xfffff9fc
     940:	0501060f 	streq	r0, [r1, #-1551]	; 0xfffff9f1
     944:	052e2e09 	streq	r2, [lr, #-3593]!	; 0xfffff1f7
     948:	05340604 	ldreq	r0, [r4, #-1540]!	; 0xfffff9fc
     94c:	05010607 	streq	r0, [r1, #-1543]	; 0xfffff9f9
     950:	13300604 	teqne	r0, #4, 12	; 0x400000
     954:	060d0514 			; <UNDEFINED> instruction: 0x060d0514
     958:	30090510 	andcc	r0, r9, r0, lsl r5
     95c:	2f060505 	svccs	0x00060505
     960:	01061205 	tsteq	r6, r5, lsl #4
     964:	052e1605 	streq	r1, [lr, #-1541]!	; 0xfffff9fb
     968:	05052e0b 	streq	r2, [r5, #-3595]	; 0xfffff1f5
     96c:	08052f06 	stmdaeq	r5, {r1, r2, r8, r9, sl, fp, sp}
     970:	09050106 	stmdbeq	r5, {r1, r2, r8}
     974:	12052c06 	andne	r2, r5, #1536	; 0x600
     978:	0a050106 	beq	140d98 <__bss_end__+0x137940>
     97c:	4a09052e 	bmi	241e3c <__bss_end__+0x2389e4>
     980:	4e060405 	cdpmi	4, 0, cr0, cr6, cr5, {0}
     984:	15014a01 	strne	r4, [r1, #-2561]	; 0xfffff5ff
     988:	01040200 	mrseq	r0, R12_usr
     98c:	000f3602 	andeq	r3, pc, r2, lsl #12
     990:	01010402 	tsteq	r1, r2, lsl #8
     994:	01040200 	mrseq	r0, R12_usr
     998:	341105d6 	ldrcc	r0, [r1], #-1494	; 0xfffffa2a
     99c:	02000113 	andeq	r0, r0, #-1073741820	; 0xc0000004
     9a0:	ba060204 	blt	1811b8 <__bss_end__+0x177d60>
     9a4:	03040200 	movweq	r0, #16896	; 0x4200
     9a8:	0200ba06 	andeq	fp, r0, #24576	; 0x6000
     9ac:	00010304 	andeq	r0, r1, r4, lsl #6
     9b0:	14030402 	strne	r0, [r3], #-1026	; 0xfffffbfe
     9b4:	02001505 	andeq	r1, r0, #20971520	; 0x1400000
     9b8:	01060304 	tsteq	r6, r4, lsl #6
     9bc:	02001105 	andeq	r1, r0, #1073741825	; 0x40000001
     9c0:	2f060304 	svccs	0x00060304
     9c4:	02001a05 	andeq	r1, r0, #20480	; 0x5000
     9c8:	01060304 	tsteq	r6, r4, lsl #6
     9cc:	02001105 	andeq	r1, r0, #1073741825	; 0x40000001
     9d0:	d7060304 	strle	r0, [r6, -r4, lsl #6]
     9d4:	03040200 	movweq	r0, #16896	; 0x4200
     9d8:	04020013 	streq	r0, [r2], #-19	; 0xffffffed
     9dc:	14051703 	strne	r1, [r5], #-1795	; 0xfffff8fd
     9e0:	03040200 	movweq	r0, #16896	; 0x4200
     9e4:	13050106 	movwne	r0, #20742	; 0x5106
     9e8:	03040200 	movweq	r0, #16896	; 0x4200
     9ec:	06180582 	ldreq	r0, [r8], -r2, lsl #11
     9f0:	061b054e 	ldreq	r0, [fp], -lr, asr #10
     9f4:	821a0501 	andshi	r0, sl, #4194304	; 0x400000
     9f8:	4b060905 	blmi	182e14 <__bss_end__+0x1799bc>
     9fc:	01060d05 	tsteq	r6, r5, lsl #26
     a00:	0609052e 	streq	r0, [r9], -lr, lsr #10
     a04:	05ba06f3 	ldreq	r0, [sl, #1779]!	; 0x6f3
     a08:	05300615 	ldreq	r0, [r0, #-1557]!	; 0xfffff9eb
     a0c:	05010618 	streq	r0, [r1, #-1560]	; 0xfffff9e8
     a10:	19056617 	stmdbne	r5, {r0, r1, r2, r4, r9, sl, sp, lr}
     a14:	15054b06 	strne	r4, [r5, #-2822]	; 0xfffff4fa
     a18:	666f0306 	strbtvs	r0, [pc], -r6, lsl #6
     a1c:	48061105 	stmdami	r6, {r0, r2, r8, ip}
     a20:	0905d601 	stmdbeq	r5, {r0, r9, sl, ip, lr, pc}
     a24:	052e0b03 	streq	r0, [lr, #-2819]!	; 0xfffff4fd
     a28:	2e01060d 	cfmadd32cs	mvax0, mvfx0, mvfx1, mvfx13
     a2c:	f3060905 	vmls.i8	d0, d6, d5
     a30:	1505ba06 	strne	fp, [r5, #-2566]	; 0xfffff5fa
     a34:	03062f06 	movweq	r2, #28422	; 0x6f06
     a38:	19056675 	stmdbne	r5, {r0, r2, r4, r5, r6, r9, sl, sp, lr}
     a3c:	4a130306 	bmi	4c165c <__bss_end__+0x4b8204>
     a40:	03061505 	movweq	r1, #25861	; 0x6505
     a44:	0306666d 	movweq	r6, #26221	; 0x666d
     a48:	ba014a15 	blt	532a4 <__bss_end__+0x49e4c>
     a4c:	05052e06 	streq	r2, [r5, #-3590]	; 0xfffff1fa
     a50:	9e011a06 	vmlals.f32	s2, s2, s12
     a54:	010e032e 	tsteq	lr, lr, lsr #6
     a58:	01060905 	tsteq	r6, r5, lsl #18
     a5c:	08060505 	stmdaeq	r6, {r0, r2, r8, sl}
     a60:	03040575 	movweq	r0, #17781	; 0x4575
     a64:	07050118 	smladeq	r5, r8, r1, r0
     a68:	04050106 	streq	r0, [r5], #-262	; 0xfffffefa
     a6c:	05053106 	streq	r3, [r5, #-262]	; 0xfffffefa
     a70:	052e6703 	streq	r6, [lr, #-1795]!	; 0xfffff8fd
     a74:	0501061c 	streq	r0, [r1, #-1564]	; 0xfffff9e4
     a78:	05058209 	streq	r8, [r5, #-521]	; 0xfffffdf7
     a7c:	0531f306 	ldreq	pc, [r1, #-774]!	; 0xfffffcfa
     a80:	0501061c 	streq	r0, [r1, #-1564]	; 0xfffff9e4
     a84:	05058209 	streq	r8, [r5, #-521]	; 0xfffffdf7
     a88:	0530f306 	ldreq	pc, [r0, #-774]!	; 0xfffffcfa
     a8c:	0501061b 	streq	r0, [r1, #-1563]	; 0xfffff9e5
     a90:	05058209 	streq	r8, [r5, #-521]	; 0xfffffdf7
     a94:	0530f306 	ldreq	pc, [r0, #-774]!	; 0xfffffcfa
     a98:	05010607 	streq	r0, [r1, #-1543]	; 0xfffff9f9
     a9c:	30830605 	addcc	r0, r3, r5, lsl #12
     aa0:	01060905 	tsteq	r6, r5, lsl #18
     aa4:	08060505 	stmdaeq	r6, {r0, r2, r8, sl}
     aa8:	30110575 	andscc	r0, r1, r5, ror r5
     aac:	01062205 	tsteq	r6, r5, lsl #4
     ab0:	4b060505 	blmi	181ecc <__bss_end__+0x178a74>
     ab4:	05831105 	streq	r1, [r3, #261]	; 0x105
     ab8:	9e018305 	cdpls	3, 0, cr8, cr1, cr5, {0}
     abc:	060e0535 			; <UNDEFINED> instruction: 0x060e0535
     ac0:	2e0a0501 	cfsh32cs	mvfx0, mvfx10, #1
     ac4:	04052d06 	streq	r2, [r5], #-3334	; 0xfffff2fa
     ac8:	13050106 	movwne	r0, #20742	; 0x5106
     acc:	01040200 	mrseq	r0, R12_usr
     ad0:	0010054a 	andseq	r0, r0, sl, asr #10
     ad4:	2e010402 	cdpcs	4, 0, cr0, cr1, cr2, {0}
     ad8:	01040200 	mrseq	r0, R12_usr
     adc:	06020566 	streq	r0, [r2], -r6, ror #10
     ae0:	06070516 			; <UNDEFINED> instruction: 0x06070516
     ae4:	06020501 	streq	r0, [r2], -r1, lsl #10
     ae8:	0601054b 	streq	r0, [r1], -fp, asr #10
     aec:	1a026613 	bne	9a340 <__bss_end__+0x90ee8>
     af0:	7a010100 	bvc	40ef8 <__bss_end__+0x37aa0>
     af4:	03000000 	movweq	r0, #0
     af8:	00005f00 	andeq	r5, r0, r0, lsl #30
     afc:	fb010200 	blx	41306 <__bss_end__+0x37eae>
     b00:	01000d0e 	tsteq	r0, lr, lsl #26
     b04:	00010101 	andeq	r0, r1, r1, lsl #2
     b08:	00010000 	andeq	r0, r1, r0
     b0c:	2f2e0100 	svccs	0x002e0100
     b10:	66617473 			; <UNDEFINED> instruction: 0x66617473
     b14:	72732d66 	rsbsvc	r2, r3, #6528	; 0x1980
     b18:	6f2f0063 	svcvs	0x002f0063
     b1c:	312f7470 			; <UNDEFINED> instruction: 0x312f7470
     b20:	2f653034 	svccs	0x00653034
     b24:	34317363 	ldrtcc	r7, [r1], #-867	; 0xfffffc9d
     b28:	322d6530 	eorcc	r6, sp, #48, 10	; 0xc000000
     b2c:	6e697732 	mcrvs	7, 3, r7, cr9, cr2, {1}
     b30:	62696c2f 	rsbvs	r6, r9, #12032	; 0x2f00
     b34:	692f6970 	stmdbvs	pc!, {r4, r5, r6, r8, fp, sp, lr}	; <UNPREDICTABLE>
     b38:	756c636e 	strbvc	r6, [ip, #-878]!	; 0xfffffc92
     b3c:	00006564 	andeq	r6, r0, r4, ror #10
     b40:	61656c63 	cmnvs	r5, r3, ror #24
     b44:	65722d6e 	ldrbvs	r2, [r2, #-3438]!	; 0xfffff292
     b48:	746f6f62 	strbtvc	r6, [pc], #-3938	; b50 <__code_start__-0x74b0>
     b4c:	0100632e 	tsteq	r0, lr, lsr #6
     b50:	70720000 	rsbsvc	r0, r2, r0
     b54:	00682e69 	rsbeq	r2, r8, r9, ror #28
     b58:	00000002 	andeq	r0, r0, r2
     b5c:	05001905 	streq	r1, [r0, #-2309]	; 0xfffff6fb
     b60:	008b5802 	addeq	r5, fp, r2, lsl #16
     b64:	05051500 	streq	r1, [r5, #-1280]	; 0xfffffb00
     b68:	4b2f832f 	blmi	be182c <__bss_end__+0xbd83d4>
     b6c:	01000602 	tsteq	r0, r2, lsl #12
     b70:	00009601 	andeq	r9, r0, r1, lsl #12
     b74:	59000300 	stmdbpl	r0, {r8, r9}
     b78:	02000000 	andeq	r0, r0, #0
     b7c:	0d0efb01 	vstreq	d15, [lr, #-4]
     b80:	01010100 	mrseq	r0, (UNDEF: 17)
     b84:	00000001 	andeq	r0, r0, r1
     b88:	01000001 	tsteq	r0, r1
     b8c:	74732f2e 	ldrbtvc	r2, [r3], #-3886	; 0xfffff0d2
     b90:	2d666661 	stclcs	6, cr6, [r6, #-388]!	; 0xfffffe7c
     b94:	00637273 	rsbeq	r7, r3, r3, ror r2
     b98:	74706f2f 	ldrbtvc	r6, [r0], #-3887	; 0xfffff0d1
     b9c:	3034312f 	eorscc	r3, r4, pc, lsr #2
     ba0:	73632f65 	cmnvc	r3, #404	; 0x194
     ba4:	65303431 	ldrvs	r3, [r0, #-1073]!	; 0xfffffbcf
     ba8:	7732322d 	ldrvc	r3, [r2, -sp, lsr #4]!
     bac:	6c2f6e69 	stcvs	14, cr6, [pc], #-420	; a10 <__code_start__-0x75f0>
     bb0:	69706269 	ldmdbvs	r0!, {r0, r3, r5, r6, r9, sp, lr}^
     bb4:	636e692f 	cmnvs	lr, #770048	; 0xbc000
     bb8:	6564756c 	strbvs	r7, [r4, #-1388]!	; 0xfffffa94
     bbc:	73630000 	cmnvc	r3, #0
     bc0:	74726174 	ldrbtvc	r6, [r2], #-372	; 0xfffffe8c
     bc4:	0100632e 	tsteq	r0, lr, lsr #6
     bc8:	70720000 	rsbsvc	r0, r2, r0
     bcc:	00682e69 	rsbeq	r2, r8, r9, ror #28
     bd0:	00000002 	andeq	r0, r0, r2
     bd4:	05001005 	streq	r1, [r0, #-5]
     bd8:	008b8402 	addeq	r8, fp, r2, lsl #8
     bdc:	05051500 	streq	r1, [r5, #-1280]	; 0xfffffb00
     be0:	1302052f 	movwne	r0, #9519	; 0x252f
     be4:	30140505 	andscc	r0, r4, r5, lsl #10
     be8:	0a051413 	beq	145c3c <__bss_end__+0x13c7e4>
     bec:	05310f06 	ldreq	r0, [r1, #-3846]!	; 0xfffff0fa
     bf0:	052f0609 	streq	r0, [pc, #-1545]!	; 5ef <__code_start__-0x7a11>
     bf4:	05010610 	streq	r0, [r1, #-1552]	; 0xfffff9f0
     bf8:	0549060a 	strbeq	r0, [r9, #-1546]	; 0xfffff9f6
     bfc:	01326905 	teqeq	r2, r5, lsl #18
     c00:	05144a01 	ldreq	r4, [r4, #-2561]	; 0xfffff5ff
     c04:	06022f02 	streq	r2, [r2], -r2, lsl #30
     c08:	4a010100 	bmi	41010 <__bss_end__+0x37bb8>
     c0c:	03000000 	movweq	r0, #0
     c10:	00003200 	andeq	r3, r0, r0, lsl #4
     c14:	fb010200 	blx	4141e <__bss_end__+0x37fc6>
     c18:	01000d0e 	tsteq	r0, lr, lsl #26
     c1c:	00010101 	andeq	r0, r1, r1, lsl #2
     c20:	00010000 	andeq	r0, r1, r0
     c24:	2f2e0100 	svccs	0x002e0100
     c28:	66617473 			; <UNDEFINED> instruction: 0x66617473
     c2c:	72732d66 	rsbsvc	r2, r3, #6528	; 0x1980
     c30:	63000063 	movwvs	r0, #99	; 0x63
     c34:	6f747375 	svcvs	0x00747375
     c38:	6f6c2d6d 	svcvs	0x006c2d6d
     c3c:	72656461 	rsbvc	r6, r5, #1627389952	; 0x61000000
     c40:	0100632e 	tsteq	r0, lr, lsr #6
     c44:	05000000 	streq	r0, [r0, #-0]
     c48:	0205001a 	andeq	r0, r5, #26
     c4c:	00008bc4 	andeq	r8, r0, r4, asr #23
     c50:	14010515 	strne	r0, [r1], #-1301	; 0xfffffaeb
     c54:	01000202 	tsteq	r0, r2, lsl #4
     c58:	0000c801 	andeq	ip, r0, r1, lsl #16
     c5c:	59000300 	stmdbpl	r0, {r8, r9}
     c60:	02000000 	andeq	r0, r0, #0
     c64:	0d0efb01 	vstreq	d15, [lr, #-4]
     c68:	01010100 	mrseq	r0, (UNDEF: 17)
     c6c:	00000001 	andeq	r0, r0, r1
     c70:	01000001 	tsteq	r0, r1
     c74:	74732f2e 	ldrbtvc	r2, [r3], #-3886	; 0xfffff0d2
     c78:	2d666661 	stclcs	6, cr6, [r6, #-388]!	; 0xfffffe7c
     c7c:	00637273 	rsbeq	r7, r3, r3, ror r2
     c80:	74706f2f 	ldrbtvc	r6, [r0], #-3887	; 0xfffff0d1
     c84:	3034312f 	eorscc	r3, r4, pc, lsr #2
     c88:	73632f65 	cmnvc	r3, #404	; 0x194
     c8c:	65303431 	ldrvs	r3, [r0, #-1073]!	; 0xfffffbcf
     c90:	7732322d 	ldrvc	r3, [r2, -sp, lsr #4]!
     c94:	6c2f6e69 	stcvs	14, cr6, [pc], #-420	; af8 <__code_start__-0x7508>
     c98:	69706269 	ldmdbvs	r0!, {r0, r3, r5, r6, r9, sp, lr}^
     c9c:	636e692f 	cmnvs	lr, #770048	; 0xbc000
     ca0:	6564756c 	strbvs	r7, [r4, #-1388]!	; 0xfffffa94
     ca4:	65720000 	ldrbvs	r0, [r2, #-0]!
     ca8:	746f6f62 	strbtvc	r6, [pc], #-3938	; cb0 <__code_start__-0x7350>
     cac:	0100632e 	tsteq	r0, lr, lsr #6
     cb0:	70720000 	rsbsvc	r0, r2, r0
     cb4:	00682e69 	rsbeq	r2, r8, r9, ror #28
     cb8:	00000002 	andeq	r0, r0, r2
     cbc:	05001905 	streq	r1, [r0, #-2309]	; 0xfffff6fb
     cc0:	008bc802 	addeq	ip, fp, r2, lsl #16
     cc4:	010d0300 	mrseq	r0, SP_mon
     cc8:	13130505 	tstne	r3, #20971520	; 0x1400000
     ccc:	06130531 			; <UNDEFINED> instruction: 0x06130531
     cd0:	2f010501 	svccs	0x00010501
     cd4:	85061b05 	strhi	r1, [r6, #-2821]	; 0xfffff4fb
     cd8:	14130505 	ldrne	r0, [r3], #-1285	; 0xfffffafb
     cdc:	052f0905 	streq	r0, [pc, #-2309]!	; 3df <__code_start__-0x7c21>
     ce0:	05010616 	streq	r0, [r1, #-1558]	; 0xfffff9ea
     ce4:	05052e0e 	streq	r2, [r5, #-3598]	; 0xfffff1f2
     ce8:	01052f06 	tsteq	r5, r6, lsl #30
     cec:	17052f06 	strne	r2, [r5, -r6, lsl #30]
     cf0:	05053006 	streq	r3, [r5, #-6]
     cf4:	0608052f 	streq	r0, [r8], -pc, lsr #10
     cf8:	2e070501 	cfsh32cs	mvfx0, mvfx7, #1
     cfc:	50060505 	andpl	r0, r6, r5, lsl #10
     d00:	134d2f30 	movtne	r2, #57136	; 0xdf30
     d04:	67151313 			; <UNDEFINED> instruction: 0x67151313
     d08:	01040200 	mrseq	r0, R12_usr
     d0c:	000d0567 	andeq	r0, sp, r7, ror #10
     d10:	01010402 	tsteq	r1, r2, lsl #8
     d14:	02000a05 	andeq	r0, r0, #20480	; 0x5000
     d18:	05010104 	streq	r0, [r1, #-260]	; 0xfffffefc
     d1c:	2e6d0309 	cdpcs	3, 6, cr0, cr13, cr9, {0}
     d20:	01000c02 	tsteq	r0, r2, lsl #24
     d24:	0000cf01 	andeq	ip, r0, r1, lsl #30
     d28:	58000300 	stmdapl	r0, {r8, r9}
     d2c:	02000000 	andeq	r0, r0, #0
     d30:	0d0efb01 	vstreq	d15, [lr, #-4]
     d34:	01010100 	mrseq	r0, (UNDEF: 17)
     d38:	00000001 	andeq	r0, r0, r1
     d3c:	01000001 	tsteq	r0, r1
     d40:	74732f2e 	ldrbtvc	r2, [r3], #-3886	; 0xfffff0d2
     d44:	2d666661 	stclcs	6, cr6, [r6, #-388]!	; 0xfffffe7c
     d48:	00637273 	rsbeq	r7, r3, r3, ror r2
     d4c:	74706f2f 	ldrbtvc	r6, [r0], #-3887	; 0xfffff0d1
     d50:	3034312f 	eorscc	r3, r4, pc, lsr #2
     d54:	73632f65 	cmnvc	r3, #404	; 0x194
     d58:	65303431 	ldrvs	r3, [r0, #-1073]!	; 0xfffffbcf
     d5c:	7732322d 	ldrvc	r3, [r2, -sp, lsr #4]!
     d60:	6c2f6e69 	stcvs	14, cr6, [pc], #-420	; bc4 <__code_start__-0x743c>
     d64:	69706269 	ldmdbvs	r0!, {r0, r3, r5, r6, r9, sp, lr}^
     d68:	636e692f 	cmnvs	lr, #770048	; 0xbc000
     d6c:	6564756c 	strbvs	r7, [r4, #-1388]!	; 0xfffffa94
     d70:	69740000 	ldmdbvs	r4!, {}^	; <UNPREDICTABLE>
     d74:	2e72656d 	cdpcs	5, 7, cr6, cr2, cr13, {3}
     d78:	00010063 	andeq	r0, r1, r3, rrx
     d7c:	69707200 	ldmdbvs	r0!, {r9, ip, sp, lr}^
     d80:	0200682e 	andeq	r6, r0, #3014656	; 0x2e0000
     d84:	05000000 	streq	r0, [r0, #-0]
     d88:	02050023 	andeq	r0, r5, #35	; 0x23
     d8c:	00008c48 	andeq	r8, r0, r8, asr #24
     d90:	2f050515 	svccs	0x00050515
     d94:	01060c05 	tsteq	r6, r5, lsl #24
     d98:	054b0105 	strbeq	r0, [fp, #-261]	; 0xfffffefb
     d9c:	054d061f 	strbeq	r0, [sp, #-1567]	; 0xfffff9e1
     da0:	052f3105 	streq	r3, [pc, #-261]!	; ca3 <__code_start__-0x735d>
     da4:	05010612 	streq	r0, [r1, #-1554]	; 0xfffff9ee
     da8:	2f4b0605 	svccs	0x004b0605
     dac:	13060105 	movwne	r0, #24837	; 0x6105
     db0:	4c061c05 	stcmi	12, cr1, [r6], {5}
     db4:	05050106 	streq	r0, [r5, #-262]	; 0xfffffefa
     db8:	13054b06 	movwne	r4, #23302	; 0x5b06
     dbc:	052e0106 	streq	r0, [lr, #-262]!	; 0xfffffefa
     dc0:	052f0605 	streq	r0, [pc, #-1541]!	; 7c3 <__code_start__-0x783d>
     dc4:	17051309 	strne	r1, [r5, -r9, lsl #6]
     dc8:	09050106 	stmdbeq	r5, {r1, r2, r8}
     dcc:	11052f06 	tstne	r5, r6, lsl #30
     dd0:	0c050106 	stfeqs	f0, [r5], {6}
     dd4:	061c052e 	ldreq	r0, [ip], -lr, lsr #10
     dd8:	0501066b 	streq	r0, [r1, #-1643]	; 0xfffff995
     ddc:	062f0605 	strteq	r0, [pc], -r5, lsl #12
     de0:	4b01054a 	blmi	42310 <__bss_end__+0x38eb8>
     de4:	2f061e05 	svccs	0x00061e05
     de8:	05050106 	streq	r0, [r5, #-262]	; 0xfffffefa
     dec:	4a062f06 	bmi	18ca0c <__bss_end__+0x1835b4>
     df0:	024b0105 	subeq	r0, fp, #1073741825	; 0x40000001
     df4:	01010002 	tsteq	r1, r2
     df8:	0000016c 	andeq	r0, r0, ip, ror #2
     dfc:	00b90003 	adcseq	r0, r9, r3
     e00:	01020000 	mrseq	r0, (UNDEF: 2)
     e04:	000d0efb 	strdeq	r0, [sp], -fp
     e08:	01010101 	tsteq	r1, r1, lsl #2
     e0c:	01000000 	mrseq	r0, (UNDEF: 0)
     e10:	2e010000 	cdpcs	0, 0, cr0, cr1, cr0, {0}
     e14:	6372732f 	cmnvs	r2, #-1140850688	; 0xbc000000
     e18:	706f2f00 	rsbvc	r2, pc, r0, lsl #30
     e1c:	34312f74 	ldrtcc	r2, [r1], #-3956	; 0xfffff08c
     e20:	672f6530 			; <UNDEFINED> instruction: 0x672f6530
     e24:	612d6363 			; <UNDEFINED> instruction: 0x612d6363
     e28:	6e2d6d72 	mcrvs	13, 1, r6, cr13, cr2, {3}
     e2c:	2d656e6f 	stclcs	14, cr6, [r5, #-444]!	; 0xfffffe44
     e30:	69626165 	stmdbvs	r2!, {r0, r2, r5, r6, r8, sp, lr}^
     e34:	2e30312d 	rsfcssp	f3, f0, #5.0
     e38:	30322d33 	eorscc	r2, r2, r3, lsr sp
     e3c:	312e3132 			; <UNDEFINED> instruction: 0x312e3132
     e40:	696c2f30 	stmdbvs	ip!, {r4, r5, r8, r9, sl, fp, sp}^
     e44:	63672f62 	cmnvs	r7, #392	; 0x188
     e48:	72612f63 	rsbvc	r2, r1, #396	; 0x18c
     e4c:	6f6e2d6d 	svcvs	0x006e2d6d
     e50:	652d656e 	strvs	r6, [sp, #-1390]!	; 0xfffffa92
     e54:	2f696261 	svccs	0x00696261
     e58:	332e3031 			; <UNDEFINED> instruction: 0x332e3031
     e5c:	692f312e 	stmdbvs	pc!, {r1, r2, r3, r5, r8, ip, sp}	; <UNPREDICTABLE>
     e60:	756c636e 	strbvc	r6, [ip, #-878]!	; 0xfffffc92
     e64:	2f006564 	svccs	0x00006564
     e68:	2f74706f 	svccs	0x0074706f
     e6c:	65303431 	ldrvs	r3, [r0, #-1073]!	; 0xfffffbcf
     e70:	3173632f 	cmncc	r3, pc, lsr #6
     e74:	2d653034 	stclcs	0, cr3, [r5, #-208]!	; 0xffffff30
     e78:	69773232 	ldmdbvs	r7!, {r1, r4, r5, r9, ip, sp}^
     e7c:	696c2f6e 	stmdbvs	ip!, {r1, r2, r3, r5, r6, r8, r9, sl, fp, sp}^
     e80:	2f697062 	svccs	0x00697062
     e84:	6c636e69 	stclvs	14, cr6, [r3], #-420	; 0xfffffe5c
     e88:	00656475 	rsbeq	r6, r5, r5, ror r4
     e8c:	69706700 	ldmdbvs	r0!, {r8, r9, sl, sp, lr}^
     e90:	00632e6f 	rsbeq	r2, r3, pc, ror #28
     e94:	73000001 	movwvc	r0, #1
     e98:	6e696474 	mcrvs	4, 3, r6, cr9, cr4, {3}
     e9c:	63672d74 	cmnvs	r7, #116, 26	; 0x1d00
     ea0:	00682e63 	rsbeq	r2, r8, r3, ror #28
     ea4:	67000002 	strvs	r0, [r0, -r2]
     ea8:	2e6f6970 			; <UNDEFINED> instruction: 0x2e6f6970
     eac:	00030068 	andeq	r0, r3, r8, rrx
     eb0:	69707200 	ldmdbvs	r0!, {r9, ip, sp, lr}^
     eb4:	0300682e 	movweq	r6, #2094	; 0x82e
     eb8:	05000000 	streq	r0, [r0, #-0]
     ebc:	02050036 	andeq	r0, r5, #54	; 0x36
     ec0:	00008ccc 	andeq	r8, r0, ip, asr #25
     ec4:	0101a403 	tsteq	r1, r3, lsl #8
     ec8:	05050106 	streq	r0, [r5, #-262]	; 0xfffffefa
     ecc:	28056706 	stmdacs	r5, {r1, r2, r8, r9, sl, sp, lr}
     ed0:	22050106 	andcs	r0, r5, #-2147483647	; 0x80000001
     ed4:	4a0e0566 	bmi	382474 <__bss_end__+0x37901c>
     ed8:	2f060505 	svccs	0x00060505
     edc:	01061805 	tsteq	r6, r5, lsl #16
     ee0:	0605052e 	streq	r0, [r5], -lr, lsr #10
     ee4:	061f052f 	ldreq	r0, [pc], -pc, lsr #10
     ee8:	4a0e0501 	bmi	3822f4 <__bss_end__+0x378e9c>
     eec:	2f060505 	svccs	0x00060505
     ef0:	01061d05 	tsteq	r6, r5, lsl #26
     ef4:	4a4a0505 	bmi	1282310 <__bss_end__+0x1278eb8>
     ef8:	052f0105 	streq	r0, [pc, #-261]!	; dfb <__code_start__-0x7205>
     efc:	0a030624 	beq	c2794 <__bss_end__+0xb933c>
     f00:	0501064a 	streq	r0, [r1, #-1610]	; 0xfffff9b6
     f04:	052f0605 	streq	r0, [pc, #-1541]!	; 907 <__code_start__-0x76f9>
     f08:	054b0601 	strbeq	r0, [fp, #-1537]	; 0xfffff9ff
     f0c:	06310620 	ldrteq	r0, [r1], -r0, lsr #12
     f10:	06050501 	streq	r0, [r5], -r1, lsl #10
     f14:	0566062f 	strbeq	r0, [r6, #-1583]!	; 0xfffff9d1
     f18:	21052f01 	tstcs	r5, r1, lsl #30
     f1c:	01064d06 	tsteq	r6, r6, lsl #26
     f20:	2f060505 	svccs	0x00060505
     f24:	01056606 	tsteq	r5, r6, lsl #12
     f28:	062b052f 	strteq	r0, [fp], -pc, lsr #10
     f2c:	0501064d 	streq	r0, [r1, #-1613]	; 0xfffff9b3
     f30:	052f0605 	streq	r0, [pc, #-1541]!	; 933 <__code_start__-0x76cd>
     f34:	05010607 	streq	r0, [r1, #-1543]	; 0xfffff9f9
     f38:	064b0608 	strbeq	r0, [fp], -r8, lsl #12
     f3c:	0530062e 	ldreq	r0, [r0, #-1582]!	; 0xfffff9d2
     f40:	052f0601 	streq	r0, [pc, #-1537]!	; 947 <__code_start__-0x76b9>
     f44:	06350623 	ldrteq	r0, [r5], -r3, lsr #12
     f48:	06050501 	streq	r0, [r5], -r1, lsl #10
     f4c:	0601052f 	streq	r0, [r1], -pc, lsr #10
     f50:	061d054b 	ldreq	r0, [sp], -fp, asr #10
     f54:	05010631 	streq	r0, [r1, #-1585]	; 0xfffff9cf
     f58:	054d0605 	strbeq	r0, [sp, #-1541]	; 0xfffff9fb
     f5c:	2e01060c 	cfmadd32cs	mvax0, mvfx0, mvfx1, mvfx12
     f60:	022f0105 	eoreq	r0, pc, #1073741825	; 0x40000001
     f64:	01010008 	tsteq	r1, r8
     f68:	00000093 	muleq	r0, r3, r0
     f6c:	00550003 	subseq	r0, r5, r3
     f70:	01020000 	mrseq	r0, (UNDEF: 2)
     f74:	000d0efb 	strdeq	r0, [sp], -fp
     f78:	01010101 	tsteq	r1, r1, lsl #2
     f7c:	01000000 	mrseq	r0, (UNDEF: 0)
     f80:	2e010000 	cdpcs	0, 0, cr0, cr1, cr0, {0}
     f84:	62696c2f 	rsbvs	r6, r9, #12032	; 0x2f00
     f88:	6f2f0063 	svcvs	0x002f0063
     f8c:	312f7470 			; <UNDEFINED> instruction: 0x312f7470
     f90:	2f653034 	svccs	0x00653034
     f94:	34317363 	ldrtcc	r7, [r1], #-867	; 0xfffffc9d
     f98:	322d6530 	eorcc	r6, sp, #48, 10	; 0xc000000
     f9c:	6e697732 	mcrvs	7, 3, r7, cr9, cr2, {1}
     fa0:	62696c2f 	rsbvs	r6, r9, #12032	; 0x2f00
     fa4:	692f6970 	stmdbvs	pc!, {r4, r5, r6, r8, fp, sp, lr}	; <UNPREDICTABLE>
     fa8:	756c636e 	strbvc	r6, [ip, #-878]!	; 0xfffffc92
     fac:	00006564 	andeq	r6, r0, r4, ror #10
     fb0:	63747570 	cmnvs	r4, #112, 10	; 0x1c000000
     fb4:	2e726168 	rpwcssz	f6, f2, #0.0
     fb8:	00010063 	andeq	r0, r1, r3, rrx
     fbc:	69707200 	ldmdbvs	r0!, {r9, ip, sp, lr}^
     fc0:	0200682e 	andeq	r6, r0, #3014656	; 0x2e0000
     fc4:	05000000 	streq	r0, [r0, #-0]
     fc8:	02050024 	andeq	r0, r5, #36	; 0x24
     fcc:	00008db4 			; <UNDEFINED> instruction: 0x00008db4
     fd0:	05010614 	streq	r0, [r1, #-1556]	; 0xfffff9ec
     fd4:	054a0626 	strbeq	r0, [sl, #-1574]	; 0xfffff9da
     fd8:	3e052e34 	mcrcc	14, 0, r2, cr5, cr4, {1}
     fdc:	1b050106 	blne	1413fc <__bss_end__+0x137fa4>
     fe0:	05054f06 	streq	r4, [r5, #-3846]	; 0xfffff0fa
     fe4:	06110513 			; <UNDEFINED> instruction: 0x06110513
     fe8:	67010501 	strvs	r0, [r1, -r1, lsl #10]
     fec:	67062305 	strvs	r2, [r6, -r5, lsl #6]
     ff0:	05130505 	ldreq	r0, [r3, #-1285]	; 0xfffffafb
     ff4:	05010611 	streq	r0, [r1, #-1553]	; 0xfffff9ef
     ff8:	04024b01 	streq	r4, [r2], #-2817	; 0xfffff4ff
     ffc:	b1010100 	mrslt	r0, (UNDEF: 17)
    1000:	03000000 	movweq	r0, #0
    1004:	00002600 	andeq	r2, r0, r0, lsl #12
    1008:	fb010200 	blx	41812 <__bss_end__+0x383ba>
    100c:	01000d0e 	tsteq	r0, lr, lsl #26
    1010:	00010101 	andeq	r0, r1, r1, lsl #2
    1014:	00010000 	andeq	r0, r1, r0
    1018:	2f2e0100 	svccs	0x002e0100
    101c:	6362696c 	cmnvs	r2, #108, 18	; 0x1b0000
    1020:	74730000 	ldrbtvc	r0, [r3], #-0
    1024:	74616372 	strbtvc	r6, [r1], #-882	; 0xfffffc8e
    1028:	0100632e 	tsteq	r0, lr, lsr #6
    102c:	05000000 	streq	r0, [r0, #-0]
    1030:	0205002c 	andeq	r0, r5, #44	; 0x2c
    1034:	00008df0 	strdeq	r8, [r0], -r0
    1038:	13050515 	movwne	r0, #21781	; 0x5515
    103c:	060b0513 			; <UNDEFINED> instruction: 0x060b0513
    1040:	00050511 	andeq	r0, r5, r1, lsl r5
    1044:	06010402 	streq	r0, [r1], -r2, lsl #8
    1048:	04020030 	streq	r0, [r2], #-48	; 0xffffffd0
    104c:	09051501 	stmdbeq	r5, {r0, r8, sl, ip}
    1050:	01040200 	mrseq	r0, R12_usr
    1054:	00100513 	andseq	r0, r0, r3, lsl r5
    1058:	06010402 	streq	r0, [r1], -r2, lsl #8
    105c:	000b052e 	andeq	r0, fp, lr, lsr #10
    1060:	2e010402 	cdpcs	4, 0, cr0, cr1, cr2, {0}
    1064:	01040200 	mrseq	r0, R12_usr
    1068:	05052f06 	streq	r2, [r5, #-3846]	; 0xfffff0fa
    106c:	01040200 	mrseq	r0, R12_usr
    1070:	4e060106 	adfmis	f0, f6, f6
    1074:	01060805 	tsteq	r6, r5, lsl #16
    1078:	02000505 	andeq	r0, r0, #20971520	; 0x1400000
    107c:	2f060104 	svccs	0x00060104
    1080:	02000905 	andeq	r0, r0, #81920	; 0x14000
    1084:	05130104 	ldreq	r0, [r3, #-260]	; 0xfffffefc
    1088:	0402000b 	streq	r0, [r2], #-11
    108c:	05010601 	streq	r0, [r1, #-1537]	; 0xfffff9ff
    1090:	04020009 	streq	r0, [r2], #-9
    1094:	054b0601 	strbeq	r0, [fp, #-1537]	; 0xfffff9ff
    1098:	0402000f 	streq	r0, [r2], #-15
    109c:	05010601 	streq	r0, [r1, #-1537]	; 0xfffff9ff
    10a0:	0402000d 	streq	r0, [r2], #-13
    10a4:	052f0601 	streq	r0, [pc, #-1537]!	; aab <__code_start__-0x7555>
    10a8:	04020005 	streq	r0, [r2], #-5
    10ac:	02010601 	andeq	r0, r1, #1048576	; 0x100000
    10b0:	01010006 	tsteq	r1, r6
    10b4:	0000006e 	andeq	r0, r0, lr, rrx
    10b8:	00260003 	eoreq	r0, r6, r3
    10bc:	01020000 	mrseq	r0, (UNDEF: 2)
    10c0:	000d0efb 	strdeq	r0, [sp], -fp
    10c4:	01010101 	tsteq	r1, r1, lsl #2
    10c8:	01000000 	mrseq	r0, (UNDEF: 0)
    10cc:	2e010000 	cdpcs	0, 0, cr0, cr1, cr0, {0}
    10d0:	62696c2f 	rsbvs	r6, r9, #12032	; 0x2f00
    10d4:	73000063 	movwvc	r0, #99	; 0x63
    10d8:	6d637274 	sfmvs	f7, 2, [r3, #-464]!	; 0xfffffe30
    10dc:	00632e70 	rsbeq	r2, r3, r0, ror lr
    10e0:	00000001 	andeq	r0, r0, r1
    10e4:	05002a05 	streq	r2, [r0, #-2565]	; 0xfffff5fb
    10e8:	008e2402 	addeq	r2, lr, r2, lsl #8
    10ec:	09051400 	stmdbeq	r5, {sl, ip}
    10f0:	060f0513 			; <UNDEFINED> instruction: 0x060f0513
    10f4:	06110501 	ldreq	r0, [r1], -r1, lsl #10
    10f8:	0616052f 	ldreq	r0, [r6], -pc, lsr #10
    10fc:	060f052e 	streq	r0, [pc], -lr, lsr #10
    1100:	0610052d 	ldreq	r0, [r0], -sp, lsr #10
    1104:	2e0f0501 	cfsh32cs	mvfx0, mvfx15, #1
    1108:	02001c05 	andeq	r1, r0, #1280	; 0x500
    110c:	054a0104 	strbeq	r0, [sl, #-260]	; 0xfffffefc
    1110:	04020013 	streq	r0, [r2], #-19	; 0xffffffed
    1114:	09052e01 	stmdbeq	r5, {r0, r9, sl, fp, sp}
    1118:	15054c06 	strne	r4, [r5, #-3078]	; 0xfffff3fa
    111c:	01050106 	tsteq	r5, r6, lsl #2
    1120:	0004022f 	andeq	r0, r4, pc, lsr #4
    1124:	00680101 	rsbeq	r0, r8, r1, lsl #2
    1128:	00030000 	andeq	r0, r3, r0
    112c:	00000026 	andeq	r0, r0, r6, lsr #32
    1130:	0efb0102 	cdpeq	1, 15, cr0, cr11, cr2, {0}
    1134:	0101000d 	tsteq	r1, sp
    1138:	00000101 	andeq	r0, r0, r1, lsl #2
    113c:	00000100 	andeq	r0, r0, r0, lsl #2
    1140:	6c2f2e01 	stcvs	14, cr2, [pc], #-4	; 1144 <__code_start__-0x6ebc>
    1144:	00636269 	rsbeq	r6, r3, r9, ror #4
    1148:	72747300 	rsbsvc	r7, r4, #0, 6
    114c:	2e797063 	cdpcs	0, 7, cr7, cr9, cr3, {3}
    1150:	00010063 	andeq	r0, r1, r3, rrx
    1154:	2a050000 	bcs	14115c <__bss_end__+0x137d04>
    1158:	54020500 	strpl	r0, [r2], #-1280	; 0xfffffb00
    115c:	1400008e 	strne	r0, [r0], #-142	; 0xffffff72
    1160:	13130505 	tstne	r3, #20971520	; 0x1400000
    1164:	11061405 	tstne	r6, r5, lsl #8
    1168:	02002205 	andeq	r2, r0, #1342177280	; 0x50000000
    116c:	2f060104 	svccs	0x00060104
    1170:	02000b05 	andeq	r0, r0, #5120	; 0x1400
    1174:	05010104 	streq	r0, [r1, #-260]	; 0xfffffefc
    1178:	04020015 	streq	r0, [r2], #-21	; 0xffffffeb
    117c:	05010601 	streq	r0, [r1, #-1537]	; 0xfffff9ff
    1180:	04020013 	streq	r0, [r2], #-19	; 0xffffffed
    1184:	0b054a01 	bleq	153990 <__bss_end__+0x14a538>
    1188:	01040200 	mrseq	r0, R12_usr
    118c:	0006024a 	andeq	r0, r6, sl, asr #4
    1190:	00bd0101 	adcseq	r0, sp, r1, lsl #2
    1194:	00030000 	andeq	r0, r3, r0
    1198:	00000081 	andeq	r0, r0, r1, lsl #1
    119c:	0efb0102 	cdpeq	1, 15, cr0, cr11, cr2, {0}
    11a0:	0101000d 	tsteq	r1, sp
    11a4:	00000101 	andeq	r0, r0, r1, lsl #2
    11a8:	00000100 	andeq	r0, r0, r0, lsl #2
    11ac:	6c2f2e01 	stcvs	14, cr2, [pc], #-4	; 11b0 <__code_start__-0x6e50>
    11b0:	00636269 	rsbeq	r6, r3, r9, ror #4
    11b4:	74706f2f 	ldrbtvc	r6, [r0], #-3887	; 0xfffff0d1
    11b8:	3034312f 	eorscc	r3, r4, pc, lsr #2
    11bc:	63672f65 	cmnvs	r7, #404	; 0x194
    11c0:	72612d63 	rsbvc	r2, r1, #6336	; 0x18c0
    11c4:	6f6e2d6d 	svcvs	0x006e2d6d
    11c8:	652d656e 	strvs	r6, [sp, #-1390]!	; 0xfffffa92
    11cc:	2d696261 	sfmcs	f6, 2, [r9, #-388]!	; 0xfffffe7c
    11d0:	332e3031 			; <UNDEFINED> instruction: 0x332e3031
    11d4:	3230322d 	eorscc	r3, r0, #-805306366	; 0xd0000002
    11d8:	30312e31 	eorscc	r2, r1, r1, lsr lr
    11dc:	62696c2f 	rsbvs	r6, r9, #12032	; 0x2f00
    11e0:	6363672f 	cmnvs	r3, #12320768	; 0xbc0000
    11e4:	6d72612f 	ldfvse	f6, [r2, #-188]!	; 0xffffff44
    11e8:	6e6f6e2d 	cdpvs	14, 6, cr6, cr15, cr13, {1}
    11ec:	61652d65 	cmnvs	r5, r5, ror #26
    11f0:	312f6962 			; <UNDEFINED> instruction: 0x312f6962
    11f4:	2e332e30 	mrccs	14, 1, r2, cr3, cr0, {1}
    11f8:	6e692f31 	mcrvs	15, 3, r2, cr9, cr1, {1}
    11fc:	64756c63 	ldrbtvs	r6, [r5], #-3171	; 0xfffff39d
    1200:	73000065 	movwvc	r0, #101	; 0x65
    1204:	636e7274 	cmnvs	lr, #116, 4	; 0x40000007
    1208:	632e706d 			; <UNDEFINED> instruction: 0x632e706d
    120c:	00000100 	andeq	r0, r0, r0, lsl #2
    1210:	64647473 	strbtvs	r7, [r4], #-1139	; 0xfffffb8d
    1214:	682e6665 	stmdavs	lr!, {r0, r2, r5, r6, r9, sl, sp, lr}
    1218:	00000200 	andeq	r0, r0, r0, lsl #4
    121c:	00390500 	eorseq	r0, r9, r0, lsl #10
    1220:	8e740205 	cdphi	2, 7, cr0, cr4, cr5, {0}
    1224:	05150000 	ldreq	r0, [r5, #-0]
    1228:	05131305 	ldreq	r1, [r3, #-773]	; 0xfffffcfb
    122c:	0106010a 	tsteq	r6, sl, lsl #2
    1230:	0609054a 	streq	r0, [r9], -sl, asr #10
    1234:	060c052f 	streq	r0, [ip], -pc, lsr #10
    1238:	2e130501 	cfmul32cs	mvfx0, mvfx3, mvfx1
    123c:	052e0b05 	streq	r0, [lr, #-2821]!	; 0xfffff4fb
    1240:	054b060d 	strbeq	r0, [fp, #-1549]	; 0xfffff9f3
    1244:	2e01061b 	mcrcs	6, 0, r0, cr1, cr11, {0}
    1248:	05300c05 	ldreq	r0, [r0, #-3077]!	; 0xfffff3fb
    124c:	02022f01 	andeq	r2, r2, #1, 30
    1250:	53010100 	movwpl	r0, #4352	; 0x1100
    1254:	03000000 	movweq	r0, #0
    1258:	00003b00 	andeq	r3, r0, r0, lsl #22
    125c:	fb010200 	blx	41a66 <__bss_end__+0x3860e>
    1260:	01000d0e 	tsteq	r0, lr, lsl #26
    1264:	00010101 	andeq	r0, r1, r1, lsl #2
    1268:	00010000 	andeq	r0, r1, r0
    126c:	2f2e0100 	svccs	0x002e0100
    1270:	66617473 			; <UNDEFINED> instruction: 0x66617473
    1274:	72732d66 	rsbsvc	r2, r3, #6528	; 0x1980
    1278:	64000063 	strvs	r0, [r0], #-99	; 0xffffff9d
    127c:	75616665 	strbvc	r6, [r1, #-1637]!	; 0xfffff99b
    1280:	722d746c 	eorvc	r7, sp, #108, 8	; 0x6c000000
    1284:	6f6f6265 	svcvs	0x006f6265
    1288:	61632d74 	smcvs	13012	; 0x32d4
    128c:	756f6c6c 	strbvc	r6, [pc, #-3180]!	; 628 <__code_start__-0x79d8>
    1290:	00632e74 	rsbeq	r2, r3, r4, ror lr
    1294:	00000001 	andeq	r0, r0, r1
    1298:	05001b05 	streq	r1, [r0, #-2821]	; 0xfffff4fb
    129c:	008ea002 	addeq	sl, lr, r2
    12a0:	1c051400 	cfstrsne	mvf1, [r5], {-0}
    12a4:	00020201 	andeq	r0, r2, r1, lsl #4
    12a8:	Address 0x00000000000012a8 is out of bounds.


Disassembly of section .debug_str:

00000000 <.debug_str>:
   0:	726f6873 	rsbvc	r6, pc, #7536640	; 0x730000
   4:	6e752074 	mrcvs	0, 3, r2, cr5, cr4, {3}
   8:	6e676973 			; <UNDEFINED> instruction: 0x6e676973
   c:	69206465 	stmdbvs	r0!, {r0, r2, r5, r6, sl, sp, lr}
  10:	3200746e 	andcc	r7, r0, #1845493760	; 0x6e000000
  14:	6c6c6568 	cfstr64vs	mvdx6, [ip], #-416	; 0xfffffe60
  18:	6e6f2d6f 	cdpvs	13, 6, cr2, cr15, cr15, {3}
  1c:	632e6563 			; <UNDEFINED> instruction: 0x632e6563
  20:	746f6e00 	strbtvc	r6, [pc], #-3584	; 28 <__code_start__-0x7fd8>
  24:	6e69616d 	powvsez	f6, f1, #5.0
  28:	72617500 	rsbvc	r7, r1, #0, 10
  2c:	6e695f74 	mcrvs	15, 3, r5, cr9, cr4, {3}
  30:	75007469 	strvc	r7, [r0, #-1129]	; 0xfffffb97
  34:	6769736e 	strbvs	r7, [r9, -lr, ror #6]!
  38:	2064656e 	rsbcs	r6, r4, lr, ror #10
  3c:	72616863 	rsbvc	r6, r1, #6488064	; 0x630000
  40:	656c6300 	strbvs	r6, [ip, #-768]!	; 0xfffffd00
  44:	725f6e61 	subsvc	r6, pc, #1552	; 0x610
  48:	6f6f6265 	svcvs	0x006f6265
  4c:	6f2f0074 	svcvs	0x002f0074
  50:	312f7470 			; <UNDEFINED> instruction: 0x312f7470
  54:	2f653034 	svccs	0x00653034
  58:	34317363 	ldrtcc	r7, [r1], #-867	; 0xfffffc9d
  5c:	322d6530 	eorcc	r6, sp, #48, 10	; 0xc000000
  60:	6e697732 	mcrvs	7, 3, r7, cr9, cr2, {1}
  64:	62616c2f 	rsbvs	r6, r1, #12032	; 0x2f00
  68:	2d342f73 	ldccs	15, cr2, [r4, #-460]!	; 0xfffffe34
  6c:	74726175 	ldrbtvc	r6, [r2], #-373	; 0xfffffe8b
  70:	7261752f 	rsbvc	r7, r1, #197132288	; 0xbc00000
  74:	65742d74 	ldrbvs	r2, [r4, #-3444]!	; 0xfffff28c
  78:	00737473 	rsbseq	r7, r3, r3, ror r4
  7c:	676e6f6c 	strbvs	r6, [lr, -ip, ror #30]!
  80:	6e6f6c20 	cdpvs	12, 6, cr6, cr15, cr0, {1}
  84:	6e752067 	cdpvs	0, 7, cr2, cr5, cr7, {3}
  88:	6e676973 			; <UNDEFINED> instruction: 0x6e676973
  8c:	69206465 	stmdbvs	r0!, {r0, r2, r5, r6, sl, sp, lr}
  90:	4700746e 	strmi	r7, [r0, -lr, ror #8]
  94:	4320554e 			; <UNDEFINED> instruction: 0x4320554e
  98:	31203939 			; <UNDEFINED> instruction: 0x31203939
  9c:	2e332e30 	mrccs	14, 1, r2, cr3, cr0, {1}
  a0:	30322031 	eorscc	r2, r2, r1, lsr r0
  a4:	38303132 	ldmdacc	r0!, {r1, r4, r5, r8, ip, sp}
  a8:	28203432 	stmdacs	r0!, {r1, r4, r5, sl, ip, sp}
  ac:	656c6572 	strbvs	r6, [ip, #-1394]!	; 0xfffffa8e
  b0:	29657361 	stmdbcs	r5!, {r0, r5, r6, r8, r9, ip, sp, lr}^
  b4:	636d2d20 	cmnvs	sp, #32, 26	; 0x800
  b8:	613d7570 	teqvs	sp, r0, ror r5
  bc:	31316d72 	teqcc	r1, r2, ror sp
  c0:	7a6a3637 	bvc	1a8d9a4 <__bss_end__+0x1a8454c>
  c4:	20732d66 	rsbscs	r2, r3, r6, ror #26
  c8:	75746d2d 	ldrbvc	r6, [r4, #-3373]!	; 0xfffff2d3
  cc:	613d656e 	teqvs	sp, lr, ror #10
  d0:	31316d72 	teqcc	r1, r2, ror sp
  d4:	7a6a3637 	bvc	1a8d9b8 <__bss_end__+0x1a84560>
  d8:	20732d66 	rsbscs	r2, r3, r6, ror #26
  dc:	6c666d2d 	stclvs	13, cr6, [r6], #-180	; 0xffffff4c
  e0:	2d74616f 	ldfcse	f6, [r4, #-444]!	; 0xfffffe44
  e4:	3d696261 	sfmcc	f6, 2, [r9, #-388]!	; 0xfffffe7c
  e8:	74666f73 	strbtvc	r6, [r6], #-3955	; 0xfffff08d
  ec:	616d2d20 	cmnvs	sp, r0, lsr #26
  f0:	2d206d72 	stccs	13, cr6, [r0, #-456]!	; 0xfffffe38
  f4:	6372616d 	cmnvs	r2, #1073741851	; 0x4000001b
  f8:	72613d68 	rsbvc	r3, r1, #104, 26	; 0x1a00
  fc:	6b36766d 	blvs	d9dab8 <__bss_end__+0xd94660>
 100:	672d207a 			; <UNDEFINED> instruction: 0x672d207a
 104:	20626467 	rsbcs	r6, r2, r7, ror #8
 108:	20674f2d 	rsbcs	r4, r7, sp, lsr #30
 10c:	6474732d 	ldrbtvs	r7, [r4], #-813	; 0xfffffcd3
 110:	756e673d 	strbvc	r6, [lr, #-1853]!	; 0xfffff8c3
 114:	2d203939 			; <UNDEFINED> instruction: 0x2d203939
 118:	65726666 	ldrbvs	r6, [r2, #-1638]!	; 0xfffff99a
 11c:	61747365 	cmnvs	r4, r5, ror #6
 120:	6e69646e 	cdpvs	4, 6, cr6, cr9, cr14, {3}
 124:	662d2067 	strtvs	r2, [sp], -r7, rrx
 128:	67696c61 	strbvs	r6, [r9, -r1, ror #24]!
 12c:	75662d6e 	strbvc	r2, [r6, #-3438]!	; 0xfffff292
 130:	6974636e 	ldmdbvs	r4!, {r1, r2, r3, r5, r6, r8, r9, sp, lr}^
 134:	3d736e6f 	ldclcc	14, cr6, [r3, #-444]!	; 0xfffffe44
 138:	6f6c0034 	svcvs	0x006c0034
 13c:	6c20676e 	stcvs	7, cr6, [r0], #-440	; 0xfffffe48
 140:	20676e6f 	rsbcs	r6, r7, pc, ror #28
 144:	00746e69 	rsbseq	r6, r4, r9, ror #28
 148:	726f6873 	rsbvc	r6, pc, #7536640	; 0x730000
 14c:	6e692074 	mcrvs	0, 3, r2, cr9, cr4, {3}
 150:	74730074 	ldrbtvc	r0, [r3], #-116	; 0xffffff8c
 154:	725f7461 	subsvc	r7, pc, #1627389952	; 0x61000000
 158:	63007374 	movwvs	r7, #884	; 0x374
 15c:	5f6c746e 	svcpl	0x006c746e
 160:	655f7872 	ldrbvs	r7, [pc, #-2162]	; fffff8f6 <__bss_end__+0xffff649e>
 164:	6c62616e 	stfvse	f6, [r2], #-440	; 0xfffffe48
 168:	756d0065 	strbvc	r0, [sp, #-101]!	; 0xffffff9b
 16c:	5f747261 	svcpl	0x00747261
 170:	69676572 	stmdbvs	r7!, {r1, r4, r5, r6, r8, sl, sp, lr}^
 174:	72657473 	rsbvc	r7, r5, #1929379840	; 0x73000000
 178:	74730073 	ldrbtvc	r0, [r3], #-115	; 0xffffff8d
 17c:	745f7461 	ldrbvc	r7, [pc], #-1121	; 184 <__code_start__-0x7e7c>
 180:	76615f78 	uqsub16vc	r5, r1, r8
 184:	616c6961 	cmnvs	ip, r1, ror #18
 188:	00656c62 	rsbeq	r6, r5, r2, ror #24
 18c:	74617473 	strbtvc	r7, [r1], #-1139	; 0xfffffb8d
 190:	5f78745f 	svcpl	0x0078745f
 194:	656e6f64 	strbvs	r6, [lr, #-3940]!	; 0xfffff09c
 198:	746e6300 	strbtvc	r6, [lr], #-768	; 0xfffffd00
 19c:	78745f6c 	ldmdavc	r4!, {r2, r3, r5, r6, r8, r9, sl, fp, ip, lr}^
 1a0:	616e655f 	cmnvs	lr, pc, asr r5
 1a4:	00656c62 	rsbeq	r6, r5, r2, ror #24
 1a8:	74617473 	strbtvc	r7, [r1], #-1139	; 0xfffffb8d
 1ac:	5f78745f 	svcpl	0x0078745f
 1b0:	656c6469 	strbvs	r6, [ip, #-1129]!	; 0xfffffb97
 1b4:	78756100 	ldmdavc	r5!, {r8, sp, lr}^
 1b8:	5f626e65 	svcpl	0x00626e65
 1bc:	74726175 	ldrbtvc	r6, [r2], #-373	; 0xfffffe8b
 1c0:	72736c00 	rsbsvc	r6, r3, #0, 24
 1c4:	5f78725f 	svcpl	0x0078725f
 1c8:	7265766f 	rsbvc	r7, r5, #116391936	; 0x6f00000
 1cc:	006e7572 	rsbeq	r7, lr, r2, ror r5
 1d0:	5f72636c 	svcpl	0x0072636c
 1d4:	61746164 	cmnvs	r4, r4, ror #2
 1d8:	7a69735f 	bvc	1a5cf5c <__bss_end__+0x1a53b04>
 1dc:	736c0065 	cmnvc	ip, #101	; 0x65
 1e0:	67657272 			; <UNDEFINED> instruction: 0x67657272
 1e4:	49504700 	ldmdbmi	r0, {r8, r9, sl, lr}^
 1e8:	55465f4f 	strbpl	r5, [r6, #-3919]	; 0xfffff0b1
 1ec:	4f5f434e 	svcmi	0x005f434e
 1f0:	55505455 	ldrbpl	r5, [r0, #-1109]	; 0xfffffbab
 1f4:	636c0054 	cmnvs	ip, #84	; 0x54
 1f8:	67657272 			; <UNDEFINED> instruction: 0x67657272
 1fc:	6569665f 	strbvs	r6, [r9, #-1631]!	; 0xfffff9a1
 200:	0073646c 	rsbseq	r6, r3, ip, ror #8
 204:	74617473 	strbtvc	r7, [r1], #-1139	; 0xfffffb8d
 208:	5f78725f 	svcpl	0x0078725f
 20c:	69617661 	stmdbvs	r1!, {r0, r5, r6, r9, sl, ip, sp, lr}^
 210:	6c62616c 	stfvse	f6, [r2], #-432	; 0xfffffe50
 214:	74730065 	ldrbtvc	r0, [r3], #-101	; 0xffffff9b
 218:	755f7461 	ldrbvc	r7, [pc, #-1121]	; fffffdbf <__bss_end__+0xffff6967>
 21c:	6573756e 	ldrbvs	r7, [r3, #-1390]!	; 0xfffffa92
 220:	736c0064 	cmnvc	ip, #100	; 0x64
 224:	67657272 			; <UNDEFINED> instruction: 0x67657272
 228:	6569665f 	strbvs	r6, [r9, #-1631]!	; 0xfffff9a1
 22c:	0073646c 	rsbseq	r6, r3, ip, ror #8
 230:	74726175 	ldrbtvc	r6, [r2], #-373	; 0xfffffe8b
 234:	7465675f 	strbtvc	r6, [r5], #-1887	; 0xfffff8a1
 238:	73615f63 	cmnvc	r1, #396	; 0x18c
 23c:	00636e79 	rsbeq	r6, r3, r9, ror lr
 240:	4f495047 	svcmi	0x00495047
 244:	4e55465f 	mrcmi	6, 2, r4, cr5, cr15, {2}
 248:	4c415f43 	mcrrmi	15, 4, r5, r1, cr3
 24c:	47003054 	smlsdmi	r0, r4, r0, r3
 250:	5f4f4950 	svcpl	0x004f4950
 254:	434e5546 	movtmi	r5, #58694	; 0xe546
 258:	544c415f 	strbpl	r4, [ip], #-351	; 0xfffffea1
 25c:	50470031 	subpl	r0, r7, r1, lsr r0
 260:	465f4f49 	ldrbmi	r4, [pc], -r9, asr #30
 264:	5f434e55 	svcpl	0x00434e55
 268:	32544c41 	subscc	r4, r4, #16640	; 0x4100
 26c:	49504700 	ldmdbmi	r0, {r8, r9, sl, lr}^
 270:	55465f4f 	strbpl	r5, [r6, #-3919]	; 0xfffff0b1
 274:	415f434e 	cmpmi	pc, lr, asr #6
 278:	0033544c 	eorseq	r5, r3, ip, asr #8
 27c:	4f495047 	svcmi	0x00495047
 280:	4e55465f 	mrcmi	6, 2, r4, cr5, cr15, {2}
 284:	4c415f43 	mcrrmi	15, 4, r5, r1, cr3
 288:	47003454 	smlsdmi	r0, r4, r4, r3
 28c:	5f4f4950 	svcpl	0x004f4950
 290:	434e5546 	movtmi	r5, #58694	; 0xe546
 294:	544c415f 	strbpl	r4, [ip], #-351	; 0xfffffea1
 298:	61750035 	cmnvs	r5, r5, lsr r0
 29c:	635f7472 	cmpvs	pc, #1912602624	; 0x72000000
 2a0:	705f6e61 	subsvc	r6, pc, r1, ror #28
 2a4:	00637475 	rsbeq	r7, r3, r5, ror r4
 2a8:	746e6975 	strbtvc	r6, [lr], #-2421	; 0xfffff68b
 2ac:	00745f38 	rsbseq	r5, r4, r8, lsr pc
 2b0:	72726569 	rsbsvc	r6, r2, #440401920	; 0x1a400000
 2b4:	69006765 	stmdbvs	r0, {r0, r2, r5, r6, r8, r9, sl, sp, lr}
 2b8:	745f7265 	ldrbvc	r7, [pc], #-613	; 2c0 <__code_start__-0x7d40>
 2bc:	6e695f78 	mcrvs	15, 3, r5, cr9, cr8, {3}
 2c0:	72726574 	rsbsvc	r6, r2, #116, 10	; 0x1d000000
 2c4:	00747075 	rsbseq	r7, r4, r5, ror r0
 2c8:	64756162 	ldrbtvs	r6, [r5], #-354	; 0xfffffe9e
 2cc:	7461725f 	strbtvc	r7, [r1], #-607	; 0xfffffda1
 2d0:	6f690065 	svcvs	0x00690065
 2d4:	5f676572 	svcpl	0x00676572
 2d8:	69690074 	stmdbvs	r9!, {r2, r4, r5, r6}^
 2dc:	61675f72 	smcvs	30194	; 0x75f2
 2e0:	74730070 	ldrbtvc	r0, [r3], #-112	; 0xffffff90
 2e4:	635f7461 	cmpvs	pc, #1627389952	; 0x61000000
 2e8:	61007374 	tstvs	r0, r4, ror r3
 2ec:	6e657875 	mcrvs	8, 3, r7, cr5, cr5, {3}
 2f0:	6e755f62 	cdpvs	15, 7, cr5, cr5, cr2, {3}
 2f4:	64657375 	strbtvs	r7, [r5], #-885	; 0xfffffc8b
 2f8:	746e6300 	strbtvc	r6, [lr], #-768	; 0xfffffd00
 2fc:	6765726c 	strbvs	r7, [r5, -ip, ror #4]!
 300:	61747300 	cmnvs	r4, r0, lsl #6
 304:	67657274 			; <UNDEFINED> instruction: 0x67657274
 308:	61747300 	cmnvs	r4, r0, lsl #6
 30c:	78745f74 	ldmdavc	r4!, {r2, r4, r5, r6, r8, r9, sl, fp, ip, lr}^
 310:	6c75665f 	ldclvs	6, cr6, [r5], #-380	; 0xfffffe84
 314:	6175006c 	cmnvs	r5, ip, rrx
 318:	675f7472 			; <UNDEFINED> instruction: 0x675f7472
 31c:	00637465 	rsbeq	r7, r3, r5, ror #8
 320:	5f726569 	svcpl	0x00726569
 324:	73756e75 	cmnvc	r5, #1872	; 0x750
 328:	62006465 	andvs	r6, r0, #1694498816	; 0x65000000
 32c:	5f647561 	svcpl	0x00647561
 330:	65736572 	ldrbvs	r6, [r3, #-1394]!	; 0xfffffa8e
 334:	64657672 	strbtvs	r7, [r5], #-1650	; 0xfffff98e
 338:	72736c00 	rsbsvc	r6, r3, #0, 24
 33c:	5f78745f 	svcpl	0x0078745f
 340:	61746164 	cmnvs	r4, r4, ror #2
 344:	6165725f 	cmnvs	r5, pc, asr r2
 348:	61007964 	tstvs	r0, r4, ror #18
 34c:	6e657875 	mcrvs	8, 3, r7, cr5, cr5, {3}
 350:	69665f62 	stmdbvs	r6!, {r1, r5, r6, r8, r9, sl, fp, ip, lr}^
 354:	73646c65 	cmnvc	r4, #25856	; 0x6500
 358:	72736c00 	rsbsvc	r6, r3, #0, 24
 35c:	7061675f 	rsbvc	r6, r1, pc, asr r7
 360:	72696900 	rsbvc	r6, r9, #0, 18
 364:	5f78725f 	svcpl	0x0078725f
 368:	6f666966 	svcvs	0x00666966
 36c:	656c635f 	strbvs	r6, [ip, #-863]!	; 0xfffffca1
 370:	61007261 	tstvs	r0, r1, ror #4
 374:	72697875 	rsbvc	r7, r9, #7667712	; 0x750000
 378:	50470071 	subpl	r0, r7, r1, ror r0
 37c:	465f4f49 	ldrbmi	r4, [pc], -r9, asr #30
 380:	5f434e55 	svcpl	0x00434e55
 384:	55504e49 	ldrbpl	r4, [r0, #-3657]	; 0xfffff1b7
 388:	4e470054 	mcrmi	0, 2, r0, cr7, cr4, {2}
 38c:	39432055 	stmdbcc	r3, {r0, r2, r4, r6, sp}^
 390:	30312039 	eorscc	r2, r1, r9, lsr r0
 394:	312e332e 			; <UNDEFINED> instruction: 0x312e332e
 398:	32303220 	eorscc	r3, r0, #32, 4
 39c:	32383031 	eorscc	r3, r8, #49	; 0x31
 3a0:	72282034 	eorvc	r2, r8, #52	; 0x34
 3a4:	61656c65 	cmnvs	r5, r5, ror #24
 3a8:	20296573 	eorcs	r6, r9, r3, ror r5
 3ac:	70636d2d 	rsbvc	r6, r3, sp, lsr #26
 3b0:	72613d75 	rsbvc	r3, r1, #7488	; 0x1d40
 3b4:	3731316d 	ldrcc	r3, [r1, -sp, ror #2]!
 3b8:	667a6a36 			; <UNDEFINED> instruction: 0x667a6a36
 3bc:	2d20732d 	stccs	3, cr7, [r0, #-180]!	; 0xffffff4c
 3c0:	6e75746d 	cdpvs	4, 7, cr7, cr5, cr13, {3}
 3c4:	72613d65 	rsbvc	r3, r1, #6464	; 0x1940
 3c8:	3731316d 	ldrcc	r3, [r1, -sp, ror #2]!
 3cc:	667a6a36 			; <UNDEFINED> instruction: 0x667a6a36
 3d0:	2d20732d 	stccs	3, cr7, [r0, #-180]!	; 0xffffff4c
 3d4:	6f6c666d 	svcvs	0x006c666d
 3d8:	612d7461 			; <UNDEFINED> instruction: 0x612d7461
 3dc:	733d6962 	teqvc	sp, #1605632	; 0x188000
 3e0:	2074666f 	rsbscs	r6, r4, pc, ror #12
 3e4:	72616d2d 	rsbvc	r6, r1, #2880	; 0xb40
 3e8:	6d2d206d 	stcvs	0, cr2, [sp, #-436]!	; 0xfffffe4c
 3ec:	68637261 	stmdavs	r3!, {r0, r5, r6, r9, ip, sp, lr}^
 3f0:	6d72613d 	ldfvse	f6, [r2, #-244]!	; 0xffffff0c
 3f4:	7a6b3676 	bvc	1acddd4 <__bss_end__+0x1ac497c>
 3f8:	67672d20 	strbvs	r2, [r7, -r0, lsr #26]!
 3fc:	2d206264 	sfmcs	f6, 4, [r0, #-400]!	; 0xfffffe70
 400:	2d20674f 	stccs	7, cr6, [r0, #-316]!	; 0xfffffec4
 404:	3d647473 	cfstrdcc	mvd7, [r4, #-460]!	; 0xfffffe34
 408:	39756e67 	ldmdbcc	r5!, {r0, r1, r2, r5, r6, r9, sl, fp, sp, lr}^
 40c:	662d2039 			; <UNDEFINED> instruction: 0x662d2039
 410:	65657266 	strbvs	r7, [r5, #-614]!	; 0xfffffd9a
 414:	6e617473 	mcrvs	4, 3, r7, cr1, cr3, {3}
 418:	676e6964 	strbvs	r6, [lr, -r4, ror #18]!
 41c:	78756100 	ldmdavc	r5!, {r8, sp, lr}^
 420:	5f717269 	svcpl	0x00717269
 424:	6c656966 			; <UNDEFINED> instruction: 0x6c656966
 428:	50007364 	andpl	r7, r0, r4, ror #6
 42c:	32335455 	eorscc	r5, r3, #1426063360	; 0x55000000
 430:	72696900 	rsbvc	r6, r9, #0, 18
 434:	5f78745f 	svcpl	0x0078745f
 438:	6f666966 	svcvs	0x00666966
 43c:	656c635f 	strbvs	r6, [ip, #-863]!	; 0xfffffca1
 440:	69007261 	stmdbvs	r0, {r0, r5, r6, r9, ip, sp, lr}
 444:	65727269 	ldrbvs	r7, [r2, #-617]!	; 0xfffffd97
 448:	69665f67 	stmdbvs	r6!, {r0, r1, r2, r5, r6, r8, r9, sl, fp, ip, lr}^
 44c:	73646c65 	cmnvc	r4, #25856	; 0x6500
 450:	5f6f6900 	svcpl	0x006f6900
 454:	61746164 	cmnvs	r4, r4, ror #2
 458:	72636d00 	rsbvc	r6, r3, #0, 26
 45c:	5f676572 	svcpl	0x00676572
 460:	73756e75 	cmnvc	r5, #1872	; 0x750
 464:	75006465 	strvc	r6, [r0, #-1125]	; 0xfffffb9b
 468:	5f747261 	svcpl	0x00747261
 46c:	5f736168 	svcpl	0x00736168
 470:	61746164 	cmnvs	r4, r4, ror #2
 474:	72736d00 	rsbsvc	r6, r3, #0, 26
 478:	5f676572 	svcpl	0x00676572
 47c:	73756e75 	cmnvc	r5, #1872	; 0x750
 480:	69006465 	stmdbvs	r0, {r0, r2, r5, r6, sl, sp, lr}
 484:	65727269 	ldrbvs	r7, [r2, #-617]!	; 0xfffffd97
 488:	61620067 	cmnvs	r2, r7, rrx
 48c:	65726475 	ldrbvs	r6, [r2, #-1141]!	; 0xfffffb8b
 490:	74730067 	ldrbtvc	r0, [r3], #-103	; 0xffffff99
 494:	65727461 	ldrbvs	r7, [r2, #-1121]!	; 0xfffffb9f
 498:	69665f67 	stmdbvs	r6!, {r0, r1, r2, r5, r6, r8, r9, sl, fp, ip, lr}^
 49c:	73646c65 	cmnvc	r4, #25856	; 0x6500
 4a0:	732f2e00 			; <UNDEFINED> instruction: 0x732f2e00
 4a4:	752f6372 	strvc	r6, [pc, #-882]!	; 13a <__code_start__-0x7ec6>
 4a8:	2e747261 	cdpcs	2, 7, cr7, cr4, cr1, {3}
 4ac:	736c0063 	cmnvc	ip, #99	; 0x63
 4b0:	78745f72 	ldmdavc	r4!, {r1, r4, r5, r6, r8, r9, sl, fp, ip, lr}^
 4b4:	65766f5f 	ldrbvs	r6, [r6, #-3935]!	; 0xfffff0a1
 4b8:	6e757272 	mrcvs	2, 3, r7, cr5, cr2, {3}
 4bc:	72656900 	rsbvc	r6, r5, #0, 18
 4c0:	5f78725f 	svcpl	0x0078725f
 4c4:	65746e69 	ldrbvs	r6, [r4, #-3689]!	; 0xfffff197
 4c8:	70757272 	rsbsvc	r7, r5, r2, ror r2
 4cc:	70670074 	rsbvc	r0, r7, r4, ror r0
 4d0:	735f6f69 	cmpvc	pc, #420	; 0x1a4
 4d4:	665f7465 	ldrbvs	r7, [pc], -r5, ror #8
 4d8:	74636e75 	strbtvc	r6, [r3], #-3701	; 0xfffff18b
 4dc:	006e6f69 	rsbeq	r6, lr, r9, ror #30
 4e0:	74617473 	strbtvc	r7, [r1], #-1139	; 0xfffffb8d
 4e4:	5f78725f 	svcpl	0x0078725f
 4e8:	656c6469 	strbvs	r6, [ip, #-1129]!	; 0xfffffb97
 4ec:	61756d00 	cmnvs	r5, r0, lsl #26
 4f0:	725f7472 	subsvc	r7, pc, #1912602624	; 0x72000000
 4f4:	73696765 	cmnvc	r9, #26476544	; 0x1940000
 4f8:	73726574 	cmnvc	r2, #116, 10	; 0x1d000000
 4fc:	6100745f 	tstvs	r0, pc, asr r4
 500:	72697875 	rsbvc	r7, r9, #7667712	; 0x750000
 504:	6e755f71 	mrcvs	15, 3, r5, cr5, cr1, {3}
 508:	64657375 	strbtvs	r7, [r5], #-885	; 0xfffffc8b
 50c:	746e6300 	strbtvc	r6, [lr], #-768	; 0xfffffd00
 510:	6e755f6c 	cdpvs	15, 7, cr5, cr5, cr12, {3}
 514:	64657375 	strbtvs	r7, [r5], #-885	; 0xfffffc8b
 518:	72617500 	rsbvc	r7, r1, #0, 10
 51c:	6c665f74 	stclvs	15, cr5, [r6], #-464	; 0xfffffe30
 520:	5f687375 	svcpl	0x00687375
 524:	75007874 	strvc	r7, [r0, #-2164]	; 0xfffff78c
 528:	5f747261 	svcpl	0x00747261
 52c:	5f6e6163 	svcpl	0x006e6163
 530:	63746567 	cmnvs	r4, #432013312	; 0x19c00000
 534:	72617500 	rsbvc	r7, r1, #0, 10
 538:	78745f74 	ldmdavc	r4!, {r2, r4, r5, r6, r8, r9, sl, fp, ip, lr}^
 53c:	5f73695f 	svcpl	0x0073695f
 540:	74706d65 	ldrbtvc	r6, [r0], #-3429	; 0xfffff29b
 544:	636c0079 	cmnvs	ip, #121	; 0x79
 548:	67657272 			; <UNDEFINED> instruction: 0x67657272
 54c:	706f2f00 	rsbvc	r2, pc, r0, lsl #30
 550:	34312f74 	ldrtcc	r2, [r1], #-3956	; 0xfffff08c
 554:	632f6530 			; <UNDEFINED> instruction: 0x632f6530
 558:	30343173 	eorscc	r3, r4, r3, ror r1
 55c:	32322d65 	eorscc	r2, r2, #6464	; 0x1940
 560:	2f6e6977 	svccs	0x006e6977
 564:	7062696c 	rsbvc	r6, r2, ip, ror #18
 568:	69690069 	stmdbvs	r9!, {r0, r3, r5, r6}^
 56c:	65725f72 	ldrbvs	r5, [r2, #-3954]!	; 0xfffff08e
 570:	76726573 			; <UNDEFINED> instruction: 0x76726573
 574:	69006465 	stmdbvs	r0, {r0, r2, r5, r6, sl, sp, lr}
 578:	6765726f 	strbvs	r7, [r5, -pc, ror #4]!
 57c:	78756100 	ldmdavc	r5!, {r8, sp, lr}^
 580:	6174735f 	cmnvs	r4, pc, asr r3
 584:	73007472 	movwvc	r7, #1138	; 0x472
 588:	74617263 	strbtvc	r7, [r1], #-611	; 0xfffffd9d
 58c:	65726863 	ldrbvs	r6, [r2, #-2147]!	; 0xfffff79d
 590:	6e755f67 	cdpvs	15, 7, cr5, cr5, cr7, {3}
 594:	64657375 	strbtvs	r7, [r5], #-885	; 0xfffffc8b
 598:	78756100 	ldmdavc	r5!, {r8, sp, lr}^
 59c:	00626e65 	rsbeq	r6, r2, r5, ror #28
 5a0:	64756162 	ldrbtvs	r6, [r5], #-354	; 0xfffffe9e
 5a4:	5f676572 	svcpl	0x00676572
 5a8:	6c656966 			; <UNDEFINED> instruction: 0x6c656966
 5ac:	69007364 	stmdbvs	r0, {r2, r5, r6, r8, r9, ip, sp, lr}
 5b0:	65725f6f 	ldrbvs	r5, [r2, #-3951]!	; 0xfffff091
 5b4:	76726573 			; <UNDEFINED> instruction: 0x76726573
 5b8:	63006465 	movwvs	r6, #1125	; 0x465
 5bc:	726c746e 	rsbvc	r7, ip, #1845493760	; 0x6e000000
 5c0:	665f6765 	ldrbvs	r6, [pc], -r5, ror #14
 5c4:	646c6569 	strbtvs	r6, [ip], #-1385	; 0xfffffa97
 5c8:	61750073 	cmnvs	r5, r3, ror r0
 5cc:	705f7472 	subsvc	r7, pc, r2, ror r4	; <UNPREDICTABLE>
 5d0:	00637475 	rsbeq	r7, r3, r5, ror r4
 5d4:	74617473 	strbtvc	r7, [r1], #-1139	; 0xfffffb8d
 5d8:	5f78745f 	svcpl	0x0078745f
 5dc:	74706d65 	ldrbtvc	r6, [r0], #-3429	; 0xfffff29b
 5e0:	61750079 	cmnvs	r5, r9, ror r0
 5e4:	645f7472 	ldrbvs	r7, [pc], #-1138	; 5ec <__code_start__-0x7a14>
 5e8:	62617369 	rsbvs	r7, r1, #-1543503871	; 0xa4000001
 5ec:	6c00656c 	cfstr32vs	mvfx6, [r0], {108}	; 0x6c
 5f0:	725f7273 	subsvc	r7, pc, #805306375	; 0x30000007
 5f4:	61645f78 	smcvs	17912	; 0x45f8
 5f8:	725f6174 	subsvc	r6, pc, #116, 2
 5fc:	79646165 	stmdbvc	r4!, {r0, r2, r5, r6, r8, sp, lr}^
 600:	72656900 	rsbvc	r6, r5, #0, 18
 604:	5f676572 	svcpl	0x00676572
 608:	6c656966 			; <UNDEFINED> instruction: 0x6c656966
 60c:	47007364 	strmi	r7, [r0, -r4, ror #6]
 610:	32335445 	eorscc	r5, r3, #1157627904	; 0x45000000
 614:	72736c00 	rsbsvc	r6, r3, #0, 24
 618:	7365725f 	cmnvc	r5, #-268435451	; 0xf0000005
 61c:	65767265 	ldrbvs	r7, [r6, #-613]!	; 0xfffffd9b
 620:	74730064 	ldrbtvc	r0, [r3], #-100	; 0xffffff9c
 624:	65727461 	ldrbvs	r7, [r2, #-1121]!	; 0xfffffb9f
 628:	00745f67 	rsbseq	r5, r4, r7, ror #30
 62c:	65726f69 	ldrbvs	r6, [r2, #-3945]!	; 0xfffff097
 630:	69665f67 	stmdbvs	r6!, {r0, r1, r2, r5, r6, r8, r9, sl, fp, ip, lr}^
 634:	73646c65 	cmnvc	r4, #25856	; 0x6500
 638:	72636c00 	rsbvc	r6, r3, #0, 24
 63c:	7365725f 	cmnvc	r5, #-268435451	; 0xf0000005
 640:	65767265 	ldrbvs	r7, [r6, #-613]!	; 0xfffffd9b
 644:	74730064 	ldrbtvc	r0, [r3], #-100	; 0xffffff9c
 648:	725f7461 	subsvc	r7, pc, #1627389952	; 0x61000000
 64c:	766f5f78 	uqsub16vc	r5, pc, r8	; <UNPREDICTABLE>
 650:	75727265 	ldrbvc	r7, [r2, #-613]!	; 0xfffffd9b
 654:	6969006e 	stmdbvs	r9!, {r1, r2, r3, r5, r6}^
 658:	6e695f72 	mcrvs	15, 3, r5, cr9, cr2, {3}
 65c:	72726574 	rsbsvc	r6, r2, #116, 10	; 0x1d000000
 660:	5f747075 	svcpl	0x00747075
 664:	646e6570 	strbtvs	r6, [lr], #-1392	; 0xfffffa90
 668:	00676e69 	rsbeq	r6, r7, r9, ror #28
 66c:	73677261 	cmnvc	r7, #268435462	; 0x10000006
 670:	5f617600 	svcpl	0x00617600
 674:	6e697270 	mcrvs	2, 3, r7, cr9, cr0, {3}
 678:	5f006b74 	svcpl	0x00006b74
 67c:	756e675f 	strbvc	r6, [lr, #-1887]!	; 0xfffff8a1
 680:	61765f63 	cmnvs	r6, r3, ror #30
 684:	73696c5f 	cmnvc	r9, #24320	; 0x5f00
 688:	5f5f0074 	svcpl	0x005f0074
 68c:	2e007061 	cdpcs	0, 0, cr7, cr0, cr1, {3}
 690:	62696c2f 	rsbvs	r6, r9, #12032	; 0x2f00
 694:	72702f63 	rsbsvc	r2, r0, #396	; 0x18c
 698:	6b746e69 	blvs	1d1c044 <__bss_end__+0x1d12bec>
 69c:	5f00632e 	svcpl	0x0000632e
 6a0:	5f61765f 	svcpl	0x0061765f
 6a4:	7473696c 	ldrbtvc	r6, [r3], #-2412	; 0xfffff694
 6a8:	746e6900 	strbtvc	r6, [lr], #-2304	; 0xfffff700
 6ac:	616e7265 	cmnvs	lr, r5, ror #4
 6b0:	75705f6c 	ldrbvc	r5, [r0, #-3948]!	; 0xfffff094
 6b4:	72006b74 	andvc	r6, r0, #116, 22	; 0x1d000
 6b8:	705f6970 	subsvc	r6, pc, r0, ror r9	; <UNPREDICTABLE>
 6bc:	68637475 	stmdavs	r3!, {r0, r2, r4, r5, r6, sl, ip, sp, lr}^
 6c0:	2e007261 	cdpcs	2, 0, cr7, cr0, cr1, {3}
 6c4:	62696c2f 	rsbvs	r6, r9, #12032	; 0x2f00
 6c8:	75702f63 	ldrbvc	r2, [r0, #-3939]!	; 0xfffff09d
 6cc:	632e6b74 			; <UNDEFINED> instruction: 0x632e6b74
 6d0:	64736900 	ldrbtvs	r6, [r3], #-2304	; 0xfffff700
 6d4:	74696769 	strbtvc	r6, [r9], #-1897	; 0xfffff897
 6d8:	6e697500 	cdpvs	5, 6, cr7, cr9, cr0, {0}
 6dc:	5f343674 	svcpl	0x00343674
 6e0:	2f2e0074 	svccs	0x002e0074
 6e4:	6362696c 	cmnvs	r2, #108, 18	; 0x1b0000
 6e8:	2d61762f 	stclcs	6, cr7, [r1, #-188]!	; 0xffffff44
 6ec:	6e697270 	mcrvs	2, 3, r7, cr9, cr0, {3}
 6f0:	632e6b74 			; <UNDEFINED> instruction: 0x632e6b74
 6f4:	64697700 	strbtvs	r7, [r9], #-1792	; 0xfffff900
 6f8:	5f006874 	svcpl	0x00006874
 6fc:	4e55465f 	mrcmi	6, 2, r4, cr5, cr15, {2}
 700:	4f495443 	svcmi	0x00495443
 704:	005f5f4e 	subseq	r5, pc, lr, asr #30
 708:	63747570 	cmnvs	r4, #112, 10	; 0x1c000000
 70c:	0070665f 	rsbseq	r6, r0, pc, asr r6
 710:	746e6975 	strbtvc	r6, [lr], #-2421	; 0xfffff68b
 714:	745f3233 	ldrbvc	r3, [pc], #-563	; 71c <__code_start__-0x78e4>
 718:	69707200 	ldmdbvs	r0!, {r9, ip, sp, lr}^
 71c:	7465735f 	strbtvc	r7, [r5], #-863	; 0xfffffca1
 720:	74756f5f 	ldrbtvc	r6, [r5], #-3935	; 0xfffff0a1
 724:	00747570 	rsbseq	r7, r4, r0, ror r5
 728:	5f746d66 	svcpl	0x00746d66
 72c:	72617473 	rsbvc	r7, r1, #1929379840	; 0x73000000
 730:	74730074 	ldrbtvc	r0, [r3], #-116	; 0xffffff8c
 734:	74616372 	strbtvc	r6, [r1], #-882	; 0xfffffc8e
 738:	72747300 	rsbsvc	r7, r4, #0, 6
 73c:	00797063 	rsbseq	r7, r9, r3, rrx
 740:	5f67656e 	svcpl	0x0067656e
 744:	6d650070 	stclvs	0, cr0, [r5, #-448]!	; 0xfffffe40
 748:	70007469 	andvc	r7, r0, r9, ror #8
 74c:	5f737475 	svcpl	0x00737475
 750:	72007066 	andvc	r7, r0, #102	; 0x66
 754:	72657665 	rsbvc	r7, r5, #105906176	; 0x6500000
 758:	73006573 	movwvc	r6, #1395	; 0x573
 75c:	6d637274 	sfmvs	f7, 2, [r3, #-464]!	; 0xfffffe30
 760:	756e0070 	strbvc	r0, [lr, #-112]!	; 0xffffff90
 764:	7300316d 	movwvc	r3, #365	; 0x16d
 768:	636e7274 	cmnvs	lr, #116, 4	; 0x40000007
 76c:	6200706d 	andvs	r7, r0, #109	; 0x6d
 770:	00657361 	rsbeq	r7, r5, r1, ror #6
 774:	6e676973 			; <UNDEFINED> instruction: 0x6e676973
 778:	705f6465 	subsvc	r6, pc, r5, ror #8
 77c:	69707200 	ldmdbvs	r0!, {r9, ip, sp, lr}^
 780:	6265725f 	rsbvs	r7, r5, #-268435451	; 0xf0000005
 784:	00746f6f 	rsbseq	r6, r4, pc, ror #30
 788:	616c6564 	cmnvs	ip, r4, ror #10
 78c:	736d5f79 	cmnvc	sp, #484	; 0x1e4
 790:	732f2e00 			; <UNDEFINED> instruction: 0x732f2e00
 794:	66666174 			; <UNDEFINED> instruction: 0x66666174
 798:	6372732d 	cmnvs	r2, #-1275068416	; 0xb4000000
 79c:	656c632f 	strbvs	r6, [ip, #-815]!	; 0xfffffcd1
 7a0:	722d6e61 	eorvc	r6, sp, #1552	; 0x610
 7a4:	6f6f6265 	svcvs	0x006f6265
 7a8:	00632e74 	rsbeq	r2, r3, r4, ror lr
 7ac:	73625f5f 	cmnvc	r2, #380	; 0x17c
 7b0:	74735f73 	ldrbtvc	r5, [r3], #-3955	; 0xfffff08d
 7b4:	5f747261 	svcpl	0x00747261
 7b8:	635f005f 	cmpvs	pc, #95	; 0x5f
 7bc:	72617473 	rsbvc	r7, r1, #1929379840	; 0x73000000
 7c0:	73620074 	cmnvc	r2, #116	; 0x74
 7c4:	6e655f73 	mcrvs	15, 3, r5, cr5, cr3, {3}
 7c8:	75630064 	strbvc	r0, [r3, #-100]!	; 0xffffff9c
 7cc:	6d6f7473 	cfstrdvs	mvd7, [pc, #-460]!	; 608 <__code_start__-0x79f8>
 7d0:	616f6c5f 	cmnvs	pc, pc, asr ip	; <UNPREDICTABLE>
 7d4:	00726564 	rsbseq	r6, r2, r4, ror #10
 7d8:	74732f2e 	ldrbtvc	r2, [r3], #-3886	; 0xfffff0d2
 7dc:	2d666661 	stclcs	6, cr6, [r6, #-388]!	; 0xfffffe7c
 7e0:	2f637273 	svccs	0x00637273
 7e4:	61747363 	cmnvs	r4, r3, ror #6
 7e8:	632e7472 			; <UNDEFINED> instruction: 0x632e7472
 7ec:	625f5f00 	subsvs	r5, pc, #0, 30
 7f0:	655f7373 	ldrbvs	r7, [pc, #-883]	; 485 <__code_start__-0x7b7b>
 7f4:	5f5f646e 	svcpl	0x005f646e
 7f8:	732f2e00 			; <UNDEFINED> instruction: 0x732f2e00
 7fc:	66666174 			; <UNDEFINED> instruction: 0x66666174
 800:	6372732d 	cmnvs	r2, #-1275068416	; 0xb4000000
 804:	7375632f 	cmnvc	r5, #-1140850688	; 0xbc000000
 808:	2d6d6f74 	stclcs	15, cr6, [sp, #-464]!	; 0xfffffe30
 80c:	64616f6c 	strbtvs	r6, [r1], #-3948	; 0xfffff094
 810:	632e7265 			; <UNDEFINED> instruction: 0x632e7265
 814:	5f4d5000 	svcpl	0x004d5000
 818:	474f4457 	smlsldmi	r4, pc, r7, r4	; <UNPREDICTABLE>
 81c:	62657200 	rsbvs	r7, r5, #0, 4
 820:	5f746f6f 	svcpl	0x00746f6f
 824:	6c6c6163 	stfvse	f6, [ip], #-396	; 0xfffffe74
 828:	0074756f 	rsbseq	r7, r4, pc, ror #10
 82c:	5f746573 	svcpl	0x00746573
 830:	72657375 	rsbvc	r7, r5, #-738197503	; 0xd4000001
 834:	76656c5f 			; <UNDEFINED> instruction: 0x76656c5f
 838:	2e006c65 	cdpcs	12, 0, cr6, cr0, cr5, {3}
 83c:	6174732f 	cmnvs	r4, pc, lsr #6
 840:	732d6666 			; <UNDEFINED> instruction: 0x732d6666
 844:	722f6372 	eorvc	r6, pc, #-939524095	; 0xc8000001
 848:	6f6f6265 	svcvs	0x006f6265
 84c:	00632e74 	rsbeq	r2, r3, r4, ror lr
 850:	505f4d50 	subspl	r4, pc, r0, asr sp	; <UNPREDICTABLE>
 854:	57535341 	ldrbpl	r5, [r3, -r1, asr #6]
 858:	0044524f 	subeq	r5, r4, pc, asr #4
 85c:	755f7461 	ldrbvc	r7, [pc, #-1121]	; 403 <__code_start__-0x7bfd>
 860:	5f726573 	svcpl	0x00726573
 864:	6576656c 	ldrbvs	r6, [r6, #-1388]!	; 0xfffffa94
 868:	4d50006c 	ldclmi	0, cr0, [r0, #-432]	; 0xfffffe50
 86c:	5453525f 	ldrbpl	r5, [r3], #-607	; 0xfffffda1
 870:	52575f43 	subspl	r5, r7, #268	; 0x10c
 874:	5f474643 	svcpl	0x00474643
 878:	4c4c5546 	cfstr64mi	mvdx5, [ip], {70}	; 0x46
 87c:	5345525f 	movtpl	r5, #21087	; 0x525f
 880:	50005445 	andpl	r5, r0, r5, asr #8
 884:	53525f4d 	cmppl	r2, #308	; 0x134
 888:	63004354 	movwvs	r4, #852	; 0x354
 88c:	00727370 	rsbseq	r7, r2, r0, ror r3
 890:	5f766564 	svcpl	0x00766564
 894:	72726162 	rsbsvc	r6, r2, #-2147483624	; 0x80000018
 898:	00726569 	rsbseq	r6, r2, r9, ror #10
 89c:	616c6564 	cmnvs	ip, r4, ror #10
 8a0:	65735f79 	ldrbvs	r5, [r3, #-3961]!	; 0xfffff087
 8a4:	2f2e0063 	svccs	0x002e0063
 8a8:	66617473 			; <UNDEFINED> instruction: 0x66617473
 8ac:	72732d66 	rsbsvc	r2, r3, #6528	; 0x1980
 8b0:	69742f63 	ldmdbvs	r4!, {r0, r1, r5, r6, r8, r9, sl, fp, sp}^
 8b4:	2e72656d 	cdpcs	5, 7, cr6, cr2, cr13, {3}
 8b8:	69740063 	ldmdbvs	r4!, {r0, r1, r5, r6}^
 8bc:	5f72656d 	svcpl	0x0072656d
 8c0:	5f746567 	svcpl	0x00746567
 8c4:	63657375 	cmnvs	r5, #-738197503	; 0xd4000001
 8c8:	6c656400 	cfstrdvs	mvd6, [r5], #-0
 8cc:	755f7961 	ldrbvc	r7, [pc, #-2401]	; ffffff73 <__bss_end__+0xffff6b1b>
 8d0:	69740073 	ldmdbvs	r4!, {r0, r1, r4, r5, r6}^
 8d4:	5f72656d 	svcpl	0x0072656d
 8d8:	5f746567 	svcpl	0x00746567
 8dc:	63657375 	cmnvs	r5, #-738197503	; 0xd4000001
 8e0:	7761725f 			; <UNDEFINED> instruction: 0x7761725f
 8e4:	69706700 	ldmdbvs	r0!, {r8, r9, sl, sp, lr}^
 8e8:	6c635f6f 	stclvs	15, cr5, [r3], #-444	; 0xfffffe44
 8ec:	73003072 	movwvc	r3, #114	; 0x72
 8f0:	74666968 	strbtvc	r6, [r6], #-2408	; 0xfffff698
 8f4:	69706700 	ldmdbvs	r0!, {r8, r9, sl, sp, lr}^
 8f8:	65735f6f 	ldrbvs	r5, [r3, #-3951]!	; 0xfffff091
 8fc:	67003074 	smlsdxvs	r0, r4, r0, r3
 900:	5f6f6970 	svcpl	0x006f6970
 904:	74697277 	strbtvc	r7, [r9], #-631	; 0xfffffd89
 908:	70670065 	rsbvc	r0, r7, r5, rrx
 90c:	725f6f69 	subsvc	r6, pc, #420	; 0x1a4
 910:	00646165 	rsbeq	r6, r4, r5, ror #2
 914:	72732f2e 	rsbsvc	r2, r3, #46, 30	; 0xb8
 918:	70672f63 	rsbvc	r2, r7, r3, ror #30
 91c:	632e6f69 			; <UNDEFINED> instruction: 0x632e6f69
 920:	69706700 	ldmdbvs	r0!, {r8, r9, sl, sp, lr}^
 924:	65735f6f 	ldrbvs	r5, [r3, #-3951]!	; 0xfffff091
 928:	6e695f74 	mcrvs	15, 3, r5, cr9, cr4, {3}
 92c:	00747570 	rsbseq	r7, r4, r0, ror r5
 930:	6f697067 	svcvs	0x00697067
 934:	7465735f 	strbtvc	r7, [r5], #-863	; 0xfffffca1
 938:	66666f5f 	uqsaxvs	r6, r6, pc	; <UNPREDICTABLE>
 93c:	69706700 	ldmdbvs	r0!, {r8, r9, sl, sp, lr}^
 940:	65735f6f 	ldrbvs	r5, [r3, #-3951]!	; 0xfffff091
 944:	756f5f74 	strbvc	r5, [pc, #-3956]!	; fffff9d8 <__bss_end__+0xffff6580>
 948:	74757074 	ldrbtvc	r7, [r5], #-116	; 0xffffff8c
 94c:	69706700 	ldmdbvs	r0!, {r8, r9, sl, sp, lr}^
 950:	75665f6f 	strbvc	r5, [r6, #-3951]!	; 0xfffff091
 954:	745f636e 	ldrbvc	r6, [pc], #-878	; 95c <__code_start__-0x76a4>
 958:	64646100 	strbtvs	r6, [r4], #-256	; 0xffffff00
 95c:	73736572 	cmnvc	r3, #478150656	; 0x1c800000
 960:	69706700 	ldmdbvs	r0!, {r8, r9, sl, sp, lr}^
 964:	656c5f6f 	strbvs	r5, [ip, #-3951]!	; 0xfffff091
 968:	67003076 	smlsdxvs	r0, r6, r0, r3
 96c:	5f6f6970 	svcpl	0x006f6970
 970:	306c6573 	rsbcc	r6, ip, r3, ror r5
 974:	72756300 	rsbsvc	r6, r5, #0, 6
 978:	746e6572 	strbtvc	r6, [lr], #-1394	; 0xfffffa8e
 97c:	69706700 	ldmdbvs	r0!, {r8, r9, sl, sp, lr}^
 980:	65735f6f 	ldrbvs	r5, [r3, #-3951]!	; 0xfffff091
 984:	6e6f5f74 	mcrvs	15, 3, r5, cr15, cr4, {3}
 988:	746e6900 	strbtvc	r6, [lr], #-2304	; 0xfffff700
 98c:	616e7265 	cmnvs	lr, r5, ror #4
 990:	75705f6c 	ldrbvc	r5, [r0, #-3948]!	; 0xfffff094
 994:	61686374 	smcvs	34356	; 0x8634
 998:	70720072 	rsbsvc	r0, r2, r2, ror r0
 99c:	65735f69 	ldrbvs	r5, [r3, #-3945]!	; 0xfffff097
 9a0:	75705f74 	ldrbvc	r5, [r0, #-3956]!	; 0xfffff08c
 9a4:	2e006374 	mcrcs	3, 0, r6, cr0, cr4, {3}
 9a8:	62696c2f 	rsbvs	r6, r9, #12032	; 0x2f00
 9ac:	75702f63 	ldrbvc	r2, [r0, #-3939]!	; 0xfffff09d
 9b0:	61686374 	smcvs	34356	; 0x8634
 9b4:	00632e72 	rsbeq	r2, r3, r2, ror lr
 9b8:	5f697072 	svcpl	0x00697072
 9bc:	65736572 	ldrbvs	r6, [r3, #-1394]!	; 0xfffffa8e
 9c0:	75705f74 	ldrbvc	r5, [r0, #-3956]!	; 0xfffff08c
 9c4:	64006374 	strvs	r6, [r0], #-884	; 0xfffffc8c
 9c8:	00747365 	rsbseq	r7, r4, r5, ror #6
 9cc:	696c2f2e 	stmdbvs	ip!, {r1, r2, r3, r5, r8, r9, sl, fp, sp}^
 9d0:	732f6362 			; <UNDEFINED> instruction: 0x732f6362
 9d4:	61637274 	smcvs	14116	; 0x3724
 9d8:	00632e74 	rsbeq	r2, r3, r4, ror lr
 9dc:	696c2f2e 	stmdbvs	ip!, {r1, r2, r3, r5, r8, r9, sl, fp, sp}^
 9e0:	732f6362 			; <UNDEFINED> instruction: 0x732f6362
 9e4:	6d637274 	sfmvs	f7, 2, [r3, #-464]!	; 0xfffffe30
 9e8:	00632e70 	rsbeq	r2, r3, r0, ror lr
 9ec:	696c2f2e 	stmdbvs	ip!, {r1, r2, r3, r5, r8, r9, sl, fp, sp}^
 9f0:	732f6362 			; <UNDEFINED> instruction: 0x732f6362
 9f4:	70637274 	rsbvc	r7, r3, r4, ror r2
 9f8:	00632e79 	rsbeq	r2, r3, r9, ror lr
 9fc:	657a6973 	ldrbvs	r6, [sl, #-2419]!	; 0xfffff68d
 a00:	2e00745f 	cfmvsrcs	mvf0, r7
 a04:	62696c2f 	rsbvs	r6, r9, #12032	; 0x2f00
 a08:	74732f63 	ldrbtvc	r2, [r3], #-3939	; 0xfffff09d
 a0c:	6d636e72 	stclvs	14, cr6, [r3, #-456]!	; 0xfffffe38
 a10:	00632e70 	rsbeq	r2, r3, r0, ror lr
 a14:	74732f2e 	ldrbtvc	r2, [r3], #-3886	; 0xfffff0d2
 a18:	2d666661 	stclcs	6, cr6, [r6, #-388]!	; 0xfffffe7c
 a1c:	2f637273 	svccs	0x00637273
 a20:	61666564 	cmnvs	r6, r4, ror #10
 a24:	2d746c75 	ldclcs	12, cr6, [r4, #-468]!	; 0xfffffe2c
 a28:	6f626572 	svcvs	0x00626572
 a2c:	632d746f 			; <UNDEFINED> instruction: 0x632d746f
 a30:	6f6c6c61 	svcvs	0x006c6c61
 a34:	632e7475 			; <UNDEFINED> instruction: 0x632e7475
	...

Disassembly of section .debug_frame:

00000000 <.debug_frame>:
   0:	0000000c 	andeq	r0, r0, ip
   4:	ffffffff 			; <UNDEFINED> instruction: 0xffffffff
   8:	7c020001 	stcvc	0, cr0, [r2], {1}
   c:	000d0c0e 	andeq	r0, sp, lr, lsl #24
  10:	00000014 	andeq	r0, r0, r4, lsl r0
  14:	00000000 	andeq	r0, r0, r0
  18:	00008038 	andeq	r8, r0, r8, lsr r0
  1c:	00000018 	andeq	r0, r0, r8, lsl r0
  20:	84080e42 	strhi	r0, [r8], #-3650	; 0xfffff1be
  24:	00018e02 	andeq	r8, r1, r2, lsl #28
  28:	0000000c 	andeq	r0, r0, ip
  2c:	ffffffff 			; <UNDEFINED> instruction: 0xffffffff
  30:	7c020001 	stcvc	0, cr0, [r2], {1}
  34:	000d0c0e 	andeq	r0, sp, lr, lsl #24
  38:	00000018 	andeq	r0, r0, r8, lsl r0
  3c:	00000028 	andeq	r0, r0, r8, lsr #32
  40:	00008050 	andeq	r8, r0, r0, asr r0
  44:	0000003c 	andeq	r0, r0, ip, lsr r0
  48:	8e040e42 	cdphi	14, 0, cr0, cr4, cr2, {2}
  4c:	100e4201 	andne	r4, lr, r1, lsl #4
  50:	00040e52 	andeq	r0, r4, r2, asr lr
  54:	00000018 	andeq	r0, r0, r8, lsl r0
  58:	00000028 	andeq	r0, r0, r8, lsr #32
  5c:	0000808c 	andeq	r8, r0, ip, lsl #1
  60:	00000198 	muleq	r0, r8, r1
  64:	84100e42 	ldrhi	r0, [r0], #-3650	; 0xfffff1be
  68:	86038504 	strhi	r8, [r3], -r4, lsl #10
  6c:	00018e02 	andeq	r8, r1, r2, lsl #28
  70:	00000014 	andeq	r0, r0, r4, lsl r0
  74:	00000028 	andeq	r0, r0, r8, lsr #32
  78:	00008224 	andeq	r8, r0, r4, lsr #4
  7c:	0000003c 	andeq	r0, r0, ip, lsr r0
  80:	84080e42 	strhi	r0, [r8], #-3650	; 0xfffff1be
  84:	00018e02 	andeq	r8, r1, r2, lsl #28
  88:	00000018 	andeq	r0, r0, r8, lsl r0
  8c:	00000028 	andeq	r0, r0, r8, lsr #32
  90:	00008260 	andeq	r8, r0, r0, ror #4
  94:	00000040 	andeq	r0, r0, r0, asr #32
  98:	8e040e42 	cdphi	14, 0, cr0, cr4, cr2, {2}
  9c:	100e4201 	andne	r4, lr, r1, lsl #4
  a0:	00040e54 	andeq	r0, r4, r4, asr lr
  a4:	00000014 	andeq	r0, r0, r4, lsl r0
  a8:	00000028 	andeq	r0, r0, r8, lsr #32
  ac:	000082a0 	andeq	r8, r0, r0, lsr #5
  b0:	00000040 	andeq	r0, r0, r0, asr #32
  b4:	84080e42 	strhi	r0, [r8], #-3650	; 0xfffff1be
  b8:	00018e02 	andeq	r8, r1, r2, lsl #28
  bc:	00000014 	andeq	r0, r0, r4, lsl r0
  c0:	00000028 	andeq	r0, r0, r8, lsr #32
  c4:	000082e0 	andeq	r8, r0, r0, ror #5
  c8:	0000000c 	andeq	r0, r0, ip
  cc:	84080e42 	strhi	r0, [r8], #-3650	; 0xfffff1be
  d0:	00018e02 	andeq	r8, r1, r2, lsl #28
  d4:	00000014 	andeq	r0, r0, r4, lsl r0
  d8:	00000028 	andeq	r0, r0, r8, lsr #32
  dc:	000082ec 	andeq	r8, r0, ip, ror #5
  e0:	00000020 	andeq	r0, r0, r0, lsr #32
  e4:	84080e42 	strhi	r0, [r8], #-3650	; 0xfffff1be
  e8:	00018e02 	andeq	r8, r1, r2, lsl #28
  ec:	00000018 	andeq	r0, r0, r8, lsl r0
  f0:	00000028 	andeq	r0, r0, r8, lsr #32
  f4:	0000830c 	andeq	r8, r0, ip, lsl #6
  f8:	0000003c 	andeq	r0, r0, ip, lsr r0
  fc:	8e040e42 	cdphi	14, 0, cr0, cr4, cr2, {2}
 100:	100e4201 	andne	r4, lr, r1, lsl #4
 104:	00040e52 	andeq	r0, r4, r2, asr lr
 108:	00000014 	andeq	r0, r0, r4, lsl r0
 10c:	00000028 	andeq	r0, r0, r8, lsr #32
 110:	00008348 	andeq	r8, r0, r8, asr #6
 114:	00000014 	andeq	r0, r0, r4, lsl r0
 118:	84080e42 	strhi	r0, [r8], #-3650	; 0xfffff1be
 11c:	00018e02 	andeq	r8, r1, r2, lsl #28
 120:	00000018 	andeq	r0, r0, r8, lsl r0
 124:	00000028 	andeq	r0, r0, r8, lsr #32
 128:	0000835c 	andeq	r8, r0, ip, asr r3
 12c:	00000048 	andeq	r0, r0, r8, asr #32
 130:	84100e42 	ldrhi	r0, [r0], #-3650	; 0xfffff1be
 134:	86038504 	strhi	r8, [r3], -r4, lsl #10
 138:	00018e02 	andeq	r8, r1, r2, lsl #28
 13c:	0000000c 	andeq	r0, r0, ip
 140:	ffffffff 			; <UNDEFINED> instruction: 0xffffffff
 144:	7c020001 	stcvc	0, cr0, [r2], {1}
 148:	000d0c0e 	andeq	r0, sp, lr, lsl #24
 14c:	00000034 	andeq	r0, r0, r4, lsr r0
 150:	0000013c 	andeq	r0, r0, ip, lsr r1
 154:	000083a4 	andeq	r8, r0, r4, lsr #7
 158:	00000058 	andeq	r0, r0, r8, asr r0
 15c:	80100e42 	andshi	r0, r0, r2, asr #28
 160:	82038104 	andhi	r8, r3, #4, 2
 164:	42018302 	andmi	r8, r1, #134217728	; 0x8000000
 168:	07841c0e 	streq	r1, [r4, lr, lsl #24]
 16c:	058e0685 	streq	r0, [lr, #1669]	; 0x685
 170:	5c280e42 	stcpl	14, cr0, [r8], #-264	; 0xfffffef8
 174:	ce421c0e 	cdpgt	12, 4, cr1, cr2, cr14, {0}
 178:	100ec4c5 	andne	ip, lr, r5, asr #9
 17c:	c1c2c342 	bicgt	ip, r2, r2, asr #6
 180:	00000ec0 	andeq	r0, r0, r0, asr #29
 184:	0000000c 	andeq	r0, r0, ip
 188:	ffffffff 			; <UNDEFINED> instruction: 0xffffffff
 18c:	7c020001 	stcvc	0, cr0, [r2], {1}
 190:	000d0c0e 	andeq	r0, sp, lr, lsl #24
 194:	00000014 	andeq	r0, r0, r4, lsl r0
 198:	00000184 	andeq	r0, r0, r4, lsl #3
 19c:	000083fc 	strdeq	r8, [r0], -ip
 1a0:	00000034 	andeq	r0, r0, r4, lsr r0
 1a4:	84080e42 	strhi	r0, [r8], #-3650	; 0xfffff1be
 1a8:	00018e02 	andeq	r8, r1, r2, lsl #28
 1ac:	0000000c 	andeq	r0, r0, ip
 1b0:	ffffffff 			; <UNDEFINED> instruction: 0xffffffff
 1b4:	7c020001 	stcvc	0, cr0, [r2], {1}
 1b8:	000d0c0e 	andeq	r0, sp, lr, lsl #24
 1bc:	0000000c 	andeq	r0, r0, ip
 1c0:	000001ac 	andeq	r0, r0, ip, lsr #3
 1c4:	00008430 	andeq	r8, r0, r0, lsr r4
 1c8:	00000014 	andeq	r0, r0, r4, lsl r0
 1cc:	0000000c 	andeq	r0, r0, ip
 1d0:	000001ac 	andeq	r0, r0, ip, lsr #3
 1d4:	00008444 	andeq	r8, r0, r4, asr #8
 1d8:	00000028 	andeq	r0, r0, r8, lsr #32
 1dc:	0000000c 	andeq	r0, r0, ip
 1e0:	000001ac 	andeq	r0, r0, ip, lsr #3
 1e4:	0000846c 	andeq	r8, r0, ip, ror #8
 1e8:	0000003c 	andeq	r0, r0, ip, lsr r0
 1ec:	00000024 	andeq	r0, r0, r4, lsr #32
 1f0:	000001ac 	andeq	r0, r0, ip, lsr #3
 1f4:	000084a8 	andeq	r8, r0, r8, lsr #9
 1f8:	000001b4 			; <UNDEFINED> instruction: 0x000001b4
 1fc:	84140e42 	ldrhi	r0, [r4], #-3650	; 0xfffff1be
 200:	86048505 	strhi	r8, [r4], -r5, lsl #10
 204:	8e028703 	cdphi	7, 0, cr8, cr2, cr3, {0}
 208:	600e4201 	andvs	r4, lr, r1, lsl #4
 20c:	0e0a9a02 	vmlaeq.f32	s18, s20, s4
 210:	000b4214 	andeq	r4, fp, r4, lsl r2
 214:	00000014 	andeq	r0, r0, r4, lsl r0
 218:	000001ac 	andeq	r0, r0, ip, lsr #3
 21c:	0000865c 	andeq	r8, r0, ip, asr r6
 220:	00000064 	andeq	r0, r0, r4, rrx
 224:	8e040e54 	mcrhi	14, 0, r0, cr4, cr4, {2}
 228:	100e4201 	andne	r4, lr, r1, lsl #4
 22c:	0000002c 	andeq	r0, r0, ip, lsr #32
 230:	000001ac 	andeq	r0, r0, ip, lsr #3
 234:	000086c0 	andeq	r8, r0, r0, asr #13
 238:	00000498 	muleq	r0, r8, r4
 23c:	84240e42 	strthi	r0, [r4], #-3650	; 0xfffff1be
 240:	86088509 	strhi	r8, [r8], -r9, lsl #10
 244:	88068707 	stmdahi	r6, {r0, r1, r2, r8, r9, sl, pc}
 248:	8a048905 	bhi	122664 <__bss_end__+0x11920c>
 24c:	8e028b03 	vmlahi.f64	d8, d2, d3
 250:	b80e4201 	stmdalt	lr, {r0, r9, lr}
 254:	022c0302 	eoreq	r0, ip, #134217728	; 0x8000000
 258:	0000240e 	andeq	r2, r0, lr, lsl #8
 25c:	0000000c 	andeq	r0, r0, ip
 260:	ffffffff 			; <UNDEFINED> instruction: 0xffffffff
 264:	7c020001 	stcvc	0, cr0, [r2], {1}
 268:	000d0c0e 	andeq	r0, sp, lr, lsl #24
 26c:	00000014 	andeq	r0, r0, r4, lsl r0
 270:	0000025c 	andeq	r0, r0, ip, asr r2
 274:	00008b58 	andeq	r8, r0, r8, asr fp
 278:	0000002c 	andeq	r0, r0, ip, lsr #32
 27c:	84080e42 	strhi	r0, [r8], #-3650	; 0xfffff1be
 280:	00018e02 	andeq	r8, r1, r2, lsl #28
 284:	0000000c 	andeq	r0, r0, ip
 288:	ffffffff 			; <UNDEFINED> instruction: 0xffffffff
 28c:	7c020001 	stcvc	0, cr0, [r2], {1}
 290:	000d0c0e 	andeq	r0, sp, lr, lsl #24
 294:	00000014 	andeq	r0, r0, r4, lsl r0
 298:	00000284 	andeq	r0, r0, r4, lsl #5
 29c:	00008b84 	andeq	r8, r0, r4, lsl #23
 2a0:	00000040 	andeq	r0, r0, r0, asr #32
 2a4:	84080e42 	strhi	r0, [r8], #-3650	; 0xfffff1be
 2a8:	00018e02 	andeq	r8, r1, r2, lsl #28
 2ac:	0000000c 	andeq	r0, r0, ip
 2b0:	ffffffff 			; <UNDEFINED> instruction: 0xffffffff
 2b4:	7c020001 	stcvc	0, cr0, [r2], {1}
 2b8:	000d0c0e 	andeq	r0, sp, lr, lsl #24
 2bc:	0000000c 	andeq	r0, r0, ip
 2c0:	000002ac 	andeq	r0, r0, ip, lsr #5
 2c4:	00008bc4 	andeq	r8, r0, r4, asr #23
 2c8:	00000004 	andeq	r0, r0, r4
 2cc:	0000000c 	andeq	r0, r0, ip
 2d0:	ffffffff 			; <UNDEFINED> instruction: 0xffffffff
 2d4:	7c020001 	stcvc	0, cr0, [r2], {1}
 2d8:	000d0c0e 	andeq	r0, sp, lr, lsl #24
 2dc:	0000000c 	andeq	r0, r0, ip
 2e0:	000002cc 	andeq	r0, r0, ip, asr #5
 2e4:	00008bc8 	andeq	r8, r0, r8, asr #23
 2e8:	00000018 	andeq	r0, r0, r8, lsl r0
 2ec:	0000000c 	andeq	r0, r0, ip
 2f0:	000002cc 	andeq	r0, r0, ip, asr #5
 2f4:	00008be0 	andeq	r8, r0, r0, ror #23
 2f8:	00000014 	andeq	r0, r0, r4, lsl r0
 2fc:	00000014 	andeq	r0, r0, r4, lsl r0
 300:	000002cc 	andeq	r0, r0, ip, asr #5
 304:	00008bf4 	strdeq	r8, [r0], -r4
 308:	00000054 	andeq	r0, r0, r4, asr r0
 30c:	84080e42 	strhi	r0, [r8], #-3650	; 0xfffff1be
 310:	00018e02 	andeq	r8, r1, r2, lsl #28
 314:	0000000c 	andeq	r0, r0, ip
 318:	ffffffff 			; <UNDEFINED> instruction: 0xffffffff
 31c:	7c020001 	stcvc	0, cr0, [r2], {1}
 320:	000d0c0e 	andeq	r0, sp, lr, lsl #24
 324:	00000014 	andeq	r0, r0, r4, lsl r0
 328:	00000314 	andeq	r0, r0, r4, lsl r3
 32c:	00008c48 	andeq	r8, r0, r8, asr #24
 330:	00000014 	andeq	r0, r0, r4, lsl r0
 334:	84080e42 	strhi	r0, [r8], #-3650	; 0xfffff1be
 338:	00018e02 	andeq	r8, r1, r2, lsl #28
 33c:	00000014 	andeq	r0, r0, r4, lsl r0
 340:	00000314 	andeq	r0, r0, r4, lsl r3
 344:	00008c5c 	andeq	r8, r0, ip, asr ip
 348:	0000001c 	andeq	r0, r0, ip, lsl r0
 34c:	84080e42 	strhi	r0, [r8], #-3650	; 0xfffff1be
 350:	00018e02 	andeq	r8, r1, r2, lsl #28
 354:	00000018 	andeq	r0, r0, r8, lsl r0
 358:	00000314 	andeq	r0, r0, r4, lsl r3
 35c:	00008c78 	andeq	r8, r0, r8, ror ip
 360:	00000024 	andeq	r0, r0, r4, lsr #32
 364:	84100e42 	ldrhi	r0, [r0], #-3650	; 0xfffff1be
 368:	86038504 	strhi	r8, [r3], -r4, lsl #10
 36c:	00018e02 	andeq	r8, r1, r2, lsl #28
 370:	00000014 	andeq	r0, r0, r4, lsl r0
 374:	00000314 	andeq	r0, r0, r4, lsl r3
 378:	00008c9c 	muleq	r0, ip, ip
 37c:	00000018 	andeq	r0, r0, r8, lsl r0
 380:	84080e42 	strhi	r0, [r8], #-3650	; 0xfffff1be
 384:	00018e02 	andeq	r8, r1, r2, lsl #28
 388:	00000014 	andeq	r0, r0, r4, lsl r0
 38c:	00000314 	andeq	r0, r0, r4, lsl r3
 390:	00008cb4 			; <UNDEFINED> instruction: 0x00008cb4
 394:	00000018 	andeq	r0, r0, r8, lsl r0
 398:	84080e42 	strhi	r0, [r8], #-3650	; 0xfffff1be
 39c:	00018e02 	andeq	r8, r1, r2, lsl #28
 3a0:	0000000c 	andeq	r0, r0, ip
 3a4:	ffffffff 			; <UNDEFINED> instruction: 0xffffffff
 3a8:	7c020001 	stcvc	0, cr0, [r2], {1}
 3ac:	000d0c0e 	andeq	r0, sp, lr, lsl #24
 3b0:	0000001c 	andeq	r0, r0, ip, lsl r0
 3b4:	000003a0 	andeq	r0, r0, r0, lsr #7
 3b8:	00008ccc 	andeq	r8, r0, ip, asr #25
 3bc:	00000054 	andeq	r0, r0, r4, asr r0
 3c0:	84180e42 	ldrhi	r0, [r8], #-3650	; 0xfffff1be
 3c4:	86058506 	strhi	r8, [r5], -r6, lsl #10
 3c8:	88038704 	stmdahi	r3, {r2, r8, r9, sl, pc}
 3cc:	00018e02 	andeq	r8, r1, r2, lsl #28
 3d0:	00000014 	andeq	r0, r0, r4, lsl r0
 3d4:	000003a0 	andeq	r0, r0, r0, lsr #7
 3d8:	00008d20 	andeq	r8, r0, r0, lsr #26
 3dc:	00000010 	andeq	r0, r0, r0, lsl r0
 3e0:	84080e42 	strhi	r0, [r8], #-3650	; 0xfffff1be
 3e4:	00018e02 	andeq	r8, r1, r2, lsl #28
 3e8:	00000014 	andeq	r0, r0, r4, lsl r0
 3ec:	000003a0 	andeq	r0, r0, r0, lsr #7
 3f0:	00008d30 	andeq	r8, r0, r0, lsr sp
 3f4:	0000001c 	andeq	r0, r0, ip, lsl r0
 3f8:	84080e42 	strhi	r0, [r8], #-3650	; 0xfffff1be
 3fc:	00018e02 	andeq	r8, r1, r2, lsl #28
 400:	00000014 	andeq	r0, r0, r4, lsl r0
 404:	000003a0 	andeq	r0, r0, r0, lsr #7
 408:	00008d4c 	andeq	r8, r0, ip, asr #26
 40c:	0000001c 	andeq	r0, r0, ip, lsl r0
 410:	84080e42 	strhi	r0, [r8], #-3650	; 0xfffff1be
 414:	00018e02 	andeq	r8, r1, r2, lsl #28
 418:	00000014 	andeq	r0, r0, r4, lsl r0
 41c:	000003a0 	andeq	r0, r0, r0, lsr #7
 420:	00008d68 	andeq	r8, r0, r8, ror #26
 424:	0000001c 	andeq	r0, r0, ip, lsl r0
 428:	84080e42 	strhi	r0, [r8], #-3650	; 0xfffff1be
 42c:	00018e02 	andeq	r8, r1, r2, lsl #28
 430:	00000014 	andeq	r0, r0, r4, lsl r0
 434:	000003a0 	andeq	r0, r0, r0, lsr #7
 438:	00008d84 	andeq	r8, r0, r4, lsl #27
 43c:	00000010 	andeq	r0, r0, r0, lsl r0
 440:	84080e42 	strhi	r0, [r8], #-3650	; 0xfffff1be
 444:	00018e02 	andeq	r8, r1, r2, lsl #28
 448:	00000014 	andeq	r0, r0, r4, lsl r0
 44c:	000003a0 	andeq	r0, r0, r0, lsr #7
 450:	00008d94 	muleq	r0, r4, sp
 454:	00000020 	andeq	r0, r0, r0, lsr #32
 458:	84080e42 	strhi	r0, [r8], #-3650	; 0xfffff1be
 45c:	00018e02 	andeq	r8, r1, r2, lsl #28
 460:	0000000c 	andeq	r0, r0, ip
 464:	ffffffff 			; <UNDEFINED> instruction: 0xffffffff
 468:	7c020001 	stcvc	0, cr0, [r2], {1}
 46c:	000d0c0e 	andeq	r0, sp, lr, lsl #24
 470:	00000014 	andeq	r0, r0, r4, lsl r0
 474:	00000460 	andeq	r0, r0, r0, ror #8
 478:	00008db4 			; <UNDEFINED> instruction: 0x00008db4
 47c:	00000014 	andeq	r0, r0, r4, lsl r0
 480:	84080e42 	strhi	r0, [r8], #-3650	; 0xfffff1be
 484:	00018e02 	andeq	r8, r1, r2, lsl #28
 488:	0000000c 	andeq	r0, r0, ip
 48c:	00000460 	andeq	r0, r0, r0, ror #8
 490:	00008dc8 	andeq	r8, r0, r8, asr #27
 494:	00000018 	andeq	r0, r0, r8, lsl r0
 498:	0000000c 	andeq	r0, r0, ip
 49c:	00000460 	andeq	r0, r0, r0, ror #8
 4a0:	00008de0 	andeq	r8, r0, r0, ror #27
 4a4:	00000010 	andeq	r0, r0, r0, lsl r0
 4a8:	0000000c 	andeq	r0, r0, ip
 4ac:	ffffffff 			; <UNDEFINED> instruction: 0xffffffff
 4b0:	7c020001 	stcvc	0, cr0, [r2], {1}
 4b4:	000d0c0e 	andeq	r0, sp, lr, lsl #24
 4b8:	0000000c 	andeq	r0, r0, ip
 4bc:	000004a8 	andeq	r0, r0, r8, lsr #9
 4c0:	00008df0 	strdeq	r8, [r0], -r0
 4c4:	00000034 	andeq	r0, r0, r4, lsr r0
 4c8:	0000000c 	andeq	r0, r0, ip
 4cc:	ffffffff 			; <UNDEFINED> instruction: 0xffffffff
 4d0:	7c020001 	stcvc	0, cr0, [r2], {1}
 4d4:	000d0c0e 	andeq	r0, sp, lr, lsl #24
 4d8:	0000000c 	andeq	r0, r0, ip
 4dc:	000004c8 	andeq	r0, r0, r8, asr #9
 4e0:	00008e24 	andeq	r8, r0, r4, lsr #28
 4e4:	00000030 	andeq	r0, r0, r0, lsr r0
 4e8:	0000000c 	andeq	r0, r0, ip
 4ec:	ffffffff 			; <UNDEFINED> instruction: 0xffffffff
 4f0:	7c020001 	stcvc	0, cr0, [r2], {1}
 4f4:	000d0c0e 	andeq	r0, sp, lr, lsl #24
 4f8:	0000000c 	andeq	r0, r0, ip
 4fc:	000004e8 	andeq	r0, r0, r8, ror #9
 500:	00008e54 	andeq	r8, r0, r4, asr lr
 504:	00000020 	andeq	r0, r0, r0, lsr #32
 508:	0000000c 	andeq	r0, r0, ip
 50c:	ffffffff 			; <UNDEFINED> instruction: 0xffffffff
 510:	7c020001 	stcvc	0, cr0, [r2], {1}
 514:	000d0c0e 	andeq	r0, sp, lr, lsl #24
 518:	0000000c 	andeq	r0, r0, ip
 51c:	00000508 	andeq	r0, r0, r8, lsl #10
 520:	00008e74 	andeq	r8, r0, r4, ror lr
 524:	0000002c 	andeq	r0, r0, ip, lsr #32
 528:	0000000c 	andeq	r0, r0, ip
 52c:	ffffffff 			; <UNDEFINED> instruction: 0xffffffff
 530:	7c020001 	stcvc	0, cr0, [r2], {1}
 534:	000d0c0e 	andeq	r0, sp, lr, lsl #24
 538:	0000000c 	andeq	r0, r0, ip
 53c:	00000528 	andeq	r0, r0, r8, lsr #10
 540:	00008ea0 	andeq	r8, r0, r0, lsr #29
 544:	00000004 	andeq	r0, r0, r4

Disassembly of section .debug_loc:

00000000 <.debug_loc>:
   0:	02dc0001 	sbcseq	r0, ip, #1
   4:	02f80000 	rscseq	r0, r8, #0
   8:	00030000 	andeq	r0, r3, r0
   c:	009f6c91 	umullseq	r6, pc, r1, ip	; <UNPREDICTABLE>
	...
  18:	50000101 	andpl	r0, r0, r1, lsl #2
  1c:	64000002 	strvs	r0, [r0], #-2
  20:	01000002 	tsteq	r0, r2
  24:	02645000 	rsbeq	r5, r4, #0
  28:	02900000 	addseq	r0, r0, #0
  2c:	00010000 	andeq	r0, r1, r0
  30:	00000054 	andeq	r0, r0, r4, asr r0
  34:	00000000 	andeq	r0, r0, r0
  38:	30000100 	andcc	r0, r0, r0, lsl #2
  3c:	50000002 	andpl	r0, r0, r2
  40:	03000002 	movweq	r0, #2
  44:	9f6c9100 	svcls	0x006c9100
	...
  50:	02000200 	andeq	r0, r0, #0, 4
  54:	02000000 	andeq	r0, r0, #0
  58:	00010000 	andeq	r0, r1, r0
  5c:	00000050 	andeq	r0, r0, r0, asr r0
  60:	00000000 	andeq	r0, r0, r0
  64:	00000100 	andeq	r0, r0, r0, lsl #2
  68:	10000002 	andne	r0, r0, r2
  6c:	06000002 	streq	r0, [r0], -r2
  70:	08c4f200 	stmiaeq	r4, {r9, ip, sp, lr, pc}^
	...
  7c:	01000000 	mrseq	r0, (UNDEF: 0)
  80:	00002000 	andeq	r2, r0, r0
  84:	00003c00 	andeq	r3, r0, r0, lsl #24
  88:	91000300 	mrsls	r0, LR_irq
  8c:	00009f6c 	andeq	r9, r0, ip, ror #30
	...
  9c:	0000002c 	andeq	r0, r0, ip, lsr #32
  a0:	00000038 	andeq	r0, r0, r8, lsr r0
  a4:	38500001 	ldmdacc	r0, {r0}^
  a8:	48000000 	stmdami	r0, {}	; <UNPREDICTABLE>
  ac:	01000000 	mrseq	r0, (UNDEF: 0)
  b0:	00485400 	subeq	r5, r8, r0, lsl #8
  b4:	00580000 	subseq	r0, r8, r0
  b8:	00010000 	andeq	r0, r1, r0
  bc:	00000050 	andeq	r0, r0, r0, asr r0
	...
  cc:	00000c00 	andeq	r0, r0, r0, lsl #24
  d0:	50000100 	andpl	r0, r0, r0, lsl #2
  d4:	0000000c 	andeq	r0, r0, ip
  d8:	00000034 	andeq	r0, r0, r4, lsr r0
  dc:	00540001 	subseq	r0, r4, r1
	...
  ec:	00029000 	andeq	r9, r2, r0
  f0:	0002c000 	andeq	ip, r2, r0
  f4:	50000100 	andpl	r0, r0, r0, lsl #2
  f8:	000002c0 	andeq	r0, r0, r0, asr #5
  fc:	000006f4 	strdeq	r0, [r0], -r4
 100:	f4590001 			; <UNDEFINED> instruction: 0xf4590001
 104:	28000006 	stmdacs	r0, {r1, r2}
 108:	04000007 	streq	r0, [r0], #-7
 10c:	5001f300 	andpl	pc, r1, r0, lsl #6
 110:	0000009f 	muleq	r0, pc, r0	; <UNPREDICTABLE>
	...
 11c:	90000000 	andls	r0, r0, r0
 120:	a8000002 	stmdage	r0, {r1}
 124:	01000002 	tsteq	r0, r2
 128:	02a85100 	adceq	r5, r8, #0, 2
 12c:	02c00000 	sbceq	r0, r0, #0
 130:	00030000 	andeq	r0, r3, r0
 134:	c09f0171 	addsgt	r0, pc, r1, ror r1	; <UNPREDICTABLE>
 138:	28000002 	stmdacs	r0, {r1}
 13c:	04000007 	streq	r0, [r0], #-7
 140:	5101f300 	mrspl	pc, SP_irq	; <UNPREDICTABLE>
 144:	0000009f 	muleq	r0, pc, r0	; <UNPREDICTABLE>
	...
 158:	00029000 	andeq	r9, r2, r0
 15c:	0002c000 	andeq	ip, r2, r0
 160:	52000100 	andpl	r0, r0, #0, 2
 164:	000002c0 	andeq	r0, r0, r0, asr #5
 168:	000003f4 	strdeq	r0, [r0], -r4
 16c:	f4560001 			; <UNDEFINED> instruction: 0xf4560001
 170:	a8000003 	stmdage	r0, {r0, r1}
 174:	01000004 	tsteq	r0, r4
 178:	04a85b00 	strteq	r5, [r8], #2816	; 0xb00
 17c:	04c80000 	strbeq	r0, [r8], #0
 180:	00010000 	andeq	r0, r1, r0
 184:	0004c856 	andeq	ip, r4, r6, asr r8
 188:	00054c00 	andeq	r4, r5, r0, lsl #24
 18c:	5b000100 	blpl	594 <__code_start__-0x7a6c>
 190:	0000054c 	andeq	r0, r0, ip, asr #10
 194:	000006f4 	strdeq	r0, [r0], -r4
 198:	00560001 	subseq	r0, r6, r1
 19c:	00000000 	andeq	r0, r0, r0
 1a0:	01000000 	mrseq	r0, (UNDEF: 0)
 1a4:	01010000 	mrseq	r0, (UNDEF: 1)
	...
 1b0:	02020000 	andeq	r0, r2, #0
 1b4:	a4000000 	strge	r0, [r0], #-0
 1b8:	c0000002 	andgt	r0, r0, r2
 1bc:	01000002 	tsteq	r0, r2
 1c0:	02c05000 	sbceq	r5, r0, #0
 1c4:	02cc0000 	sbceq	r0, ip, #0
 1c8:	00010000 	andeq	r0, r1, r0
 1cc:	0002cc54 	andeq	ip, r2, r4, asr ip
 1d0:	0002d000 	andeq	sp, r2, r0
 1d4:	74000300 	strvc	r0, [r0], #-768	; 0xfffffd00
 1d8:	02d09f01 	sbcseq	r9, r0, #1, 30
 1dc:	02f40000 	rscseq	r0, r4, #0
 1e0:	00010000 	andeq	r0, r1, r0
 1e4:	0002f454 	andeq	pc, r2, r4, asr r4	; <UNPREDICTABLE>
 1e8:	0002f800 	andeq	pc, r2, r0, lsl #16
 1ec:	74000300 	strvc	r0, [r0], #-768	; 0xfffffd00
 1f0:	02f89f01 	rscseq	r9, r8, #1, 30
 1f4:	06c40000 	strbeq	r0, [r4], r0
 1f8:	00010000 	andeq	r0, r1, r0
 1fc:	0006c454 	andeq	ip, r6, r4, asr r4
 200:	0006c800 	andeq	ip, r6, r0, lsl #16
 204:	74000300 	strvc	r0, [r0], #-768	; 0xfffffd00
 208:	06c89f01 	strbeq	r9, [r8], r1, lsl #30
 20c:	06e00000 	strbteq	r0, [r0], r0
 210:	00010000 	andeq	r0, r1, r0
 214:	0006e054 	andeq	lr, r6, r4, asr r0
 218:	0006e800 	andeq	lr, r6, r0, lsl #16
 21c:	74000300 	strvc	r0, [r0], #-768	; 0xfffffd00
 220:	06e89f01 	strbteq	r9, [r8], r1, lsl #30
 224:	06f40000 	ldrbteq	r0, [r4], r0
 228:	00010000 	andeq	r0, r1, r0
 22c:	00000054 	andeq	r0, r0, r4, asr r0
	...
 238:	0002ac00 	andeq	sl, r2, r0, lsl #24
 23c:	0006f400 	andeq	pc, r6, r0, lsl #8
 240:	58000100 	stmdapl	r0, {r8}
 244:	000006f4 	strdeq	r0, [r0], -r4
 248:	00000728 	andeq	r0, r0, r8, lsr #14
 24c:	01f3000a 	mvnseq	r0, sl
 250:	5001f351 	andpl	pc, r1, r1, asr r3	; <UNPREDICTABLE>
 254:	9f1c3122 	svcls	0x001c3122
	...
 260:	00000001 	andeq	r0, r0, r1
 264:	04100000 	ldreq	r0, [r0], #-0
 268:	04640000 	strbteq	r0, [r4], #-0
 26c:	00010000 	andeq	r0, r1, r0
 270:	0004c857 	andeq	ip, r4, r7, asr r8
 274:	0004ec00 	andeq	lr, r4, r0, lsl #24
 278:	57000100 	strpl	r0, [r0, -r0, lsl #2]
 27c:	00000530 	andeq	r0, r0, r0, lsr r5
 280:	0000054c 	andeq	r0, r0, ip, asr #10
 284:	00570001 	subseq	r0, r7, r1
 288:	00000000 	andeq	r0, r0, r0
 28c:	01000000 	mrseq	r0, (UNDEF: 0)
 290:	b4000000 	strlt	r0, [r0], #-0
 294:	c0000002 	andgt	r0, r0, r2
 298:	01000002 	tsteq	r0, r2
 29c:	02c05200 	sbceq	r5, r0, #0, 4
 2a0:	07280000 	streq	r0, [r8, -r0]!
 2a4:	00030000 	andeq	r0, r3, r0
 2a8:	007dc891 			; <UNDEFINED> instruction: 0x007dc891
	...
 2bc:	00000101 	andeq	r0, r0, r1, lsl #2
	...
 2c8:	00046400 	andeq	r6, r4, r0, lsl #8
 2cc:	00047c00 	andeq	r7, r4, r0, lsl #24
 2d0:	50000100 	andpl	r0, r0, r0, lsl #2
 2d4:	0000047c 	andeq	r0, r0, ip, ror r4
 2d8:	000004a8 	andeq	r0, r0, r8, lsr #9
 2dc:	ec570001 	mrrc	0, 0, r0, r7, cr1
 2e0:	04000004 	streq	r0, [r0], #-4
 2e4:	01000005 	tsteq	r0, r5
 2e8:	05045000 	streq	r5, [r4, #-0]
 2ec:	05300000 	ldreq	r0, [r0, #-0]!
 2f0:	00010000 	andeq	r0, r1, r0
 2f4:	00059457 	andeq	r9, r5, r7, asr r4
 2f8:	00059400 	andeq	r9, r5, r0, lsl #8
 2fc:	50000100 	andpl	r0, r0, r0, lsl #2
 300:	00000594 	muleq	r0, r4, r5
 304:	0000059c 	muleq	r0, ip, r5
 308:	cc570001 	mrrcgt	0, 0, r0, r7, cr1
 30c:	d0000005 	andle	r0, r0, r5
 310:	01000005 	tsteq	r0, r5
 314:	06005000 	streq	r5, [r0], -r0
 318:	06040000 	streq	r0, [r4], -r0
 31c:	00010000 	andeq	r0, r1, r0
 320:	00063450 	andeq	r3, r6, r0, asr r4
 324:	00063800 	andeq	r3, r6, r0, lsl #16
 328:	50000100 	andpl	r0, r0, r0, lsl #2
 32c:	0000067c 	andeq	r0, r0, ip, ror r6
 330:	00000680 	andeq	r0, r0, r0, lsl #13
 334:	c0500001 	subsgt	r0, r0, r1
 338:	e0000006 	and	r0, r0, r6
 33c:	01000006 	tsteq	r0, r6
 340:	00005700 	andeq	r5, r0, r0, lsl #14
 344:	00000000 	andeq	r0, r0, r0
 348:	00020000 	andeq	r0, r2, r0
 34c:	00000000 	andeq	r0, r0, r0
 350:	00000300 	andeq	r0, r0, r0, lsl #6
 354:	00000308 	andeq	r0, r0, r8, lsl #6
 358:	9f300002 	svcls	0x00300002
 35c:	00000308 	andeq	r0, r0, r8, lsl #6
 360:	0000030c 	andeq	r0, r0, ip, lsl #6
 364:	14550001 	ldrbne	r0, [r5], #-1
 368:	e0000003 	and	r0, r0, r3
 36c:	01000006 	tsteq	r0, r6
 370:	00005500 	andeq	r5, r0, r0, lsl #10
 374:	00000000 	andeq	r0, r0, r0
 378:	00010000 	andeq	r0, r1, r0
	...
 384:	000003c0 	andeq	r0, r0, r0, asr #7
 388:	00000444 	andeq	r0, r0, r4, asr #8
 38c:	44560001 	ldrbmi	r0, [r6], #-1
 390:	a8000004 	stmdage	r0, {r2}
 394:	03000004 	movweq	r0, #4
 398:	9f7e7b00 	svcls	0x007e7b00
 39c:	000004a8 	andeq	r0, r0, r8, lsr #9
 3a0:	000004cc 	andeq	r0, r0, ip, asr #9
 3a4:	cc560001 	mrrcgt	0, 0, r0, r6, cr1
 3a8:	30000004 	andcc	r0, r0, r4
 3ac:	03000005 	movweq	r0, #5
 3b0:	9f7e7b00 	svcls	0x007e7b00
 3b4:	00000530 	andeq	r0, r0, r0, lsr r5
 3b8:	0000054c 	andeq	r0, r0, ip, asr #10
 3bc:	00560001 	subseq	r0, r6, r1
	...
 3cc:	00007800 	andeq	r7, r0, r0, lsl #16
 3d0:	00009c00 	andeq	r9, r0, r0, lsl #24
 3d4:	50000100 	andpl	r0, r0, r0, lsl #2
 3d8:	0000009c 	muleq	r0, ip, r0
 3dc:	00000104 	andeq	r0, r0, r4, lsl #2
 3e0:	02700003 	rsbseq	r0, r0, #3
 3e4:	0001049f 	muleq	r1, pc, r4	; <UNPREDICTABLE>
 3e8:	00022c00 	andeq	r2, r2, r0, lsl #24
 3ec:	f3000400 	vshl.u8	d0, d0, d0
 3f0:	009f5001 	addseq	r5, pc, r1
	...
 408:	78000000 	stmdavc	r0, {}	; <UNPREDICTABLE>
 40c:	e8000000 	stmda	r0, {}	; <UNPREDICTABLE>
 410:	01000000 	mrseq	r0, (UNDEF: 0)
 414:	00e85100 	rsceq	r5, r8, r0, lsl #2
 418:	015c0000 	cmpeq	ip, r0
 41c:	00010000 	andeq	r0, r1, r0
 420:	00015c55 	andeq	r5, r1, r5, asr ip
 424:	00016000 	andeq	r6, r1, r0
 428:	51000100 	mrspl	r0, (UNDEF: 16)
 42c:	00000160 	andeq	r0, r0, r0, ror #2
 430:	000001b8 			; <UNDEFINED> instruction: 0x000001b8
 434:	b8550001 	ldmdalt	r5, {r0}^
 438:	c8000001 	stmdagt	r0, {r0}
 43c:	01000001 	tsteq	r0, r1
 440:	01c85100 	biceq	r5, r8, r0, lsl #2
 444:	01ec0000 	mvneq	r0, r0
 448:	00010000 	andeq	r0, r1, r0
 44c:	0001ec55 	andeq	lr, r1, r5, asr ip
 450:	00020000 	andeq	r0, r2, r0
 454:	51000100 	mrspl	r0, (UNDEF: 16)
 458:	00000200 	andeq	r0, r0, r0, lsl #4
 45c:	0000022c 	andeq	r0, r0, ip, lsr #4
 460:	00550001 	subseq	r0, r5, r1
	...
 46c:	78000000 	stmdavc	r0, {}	; <UNPREDICTABLE>
 470:	8c000000 	stchi	0, cr0, [r0], {-0}
 474:	01000000 	mrseq	r0, (UNDEF: 0)
 478:	008c5200 	addeq	r5, ip, r0, lsl #4
 47c:	022c0000 	eoreq	r0, ip, #0
 480:	00010000 	andeq	r0, r1, r0
 484:	00000054 	andeq	r0, r0, r4, asr r0
	...
 490:	00010000 	andeq	r0, r1, r0
 494:	00000000 	andeq	r0, r0, r0
 498:	00007800 	andeq	r7, r0, r0, lsl #16
 49c:	0000fc00 	andeq	pc, r0, r0, lsl #24
 4a0:	53000100 	movwpl	r0, #256	; 0x100
 4a4:	00000154 	andeq	r0, r0, r4, asr r1
 4a8:	00000188 	andeq	r0, r0, r8, lsl #3
 4ac:	88530001 	ldmdahi	r3, {r0}^
 4b0:	94000001 	strls	r0, [r0], #-1
 4b4:	04000001 	streq	r0, [r0], #-1
 4b8:	5301f300 	movwpl	pc, #4864	; 0x1300	; <UNPREDICTABLE>
 4bc:	0001b89f 	muleq	r1, pc, r8	; <UNPREDICTABLE>
 4c0:	0001f000 	andeq	pc, r1, r0
 4c4:	53000100 	movwpl	r0, #256	; 0x100
 4c8:	000001f0 	strdeq	r0, [r0], -r0	; <UNPREDICTABLE>
 4cc:	00000207 	andeq	r0, r0, r7, lsl #4
 4d0:	075c0001 	ldrbeq	r0, [ip, -r1]
 4d4:	2c000002 	stccs	0, cr0, [r0], {2}
 4d8:	04000002 	streq	r0, [r0], #-2
 4dc:	5301f300 	movwpl	pc, #4864	; 0x1300	; <UNPREDICTABLE>
 4e0:	0000009f 	muleq	r0, pc, r0	; <UNPREDICTABLE>
	...
 4ec:	78000000 	stmdavc	r0, {}	; <UNPREDICTABLE>
 4f0:	94000000 	strls	r0, [r0], #-0
 4f4:	02000000 	andeq	r0, r0, #0
 4f8:	94009100 	strls	r9, [r0], #-256	; 0xffffff00
 4fc:	9b000000 	blls	504 <__code_start__-0x7afc>
 500:	01000001 	tsteq	r0, r1
 504:	01b85200 			; <UNDEFINED> instruction: 0x01b85200
 508:	01fc0000 	mvnseq	r0, r0
 50c:	00010000 	andeq	r0, r1, r0
 510:	00000052 	andeq	r0, r0, r2, asr r0
 514:	00000000 	andeq	r0, r0, r0
 518:	00000100 	andeq	r0, r0, r0, lsl #2
 51c:	00000101 	andeq	r0, r0, r1, lsl #2
 520:	00000000 	andeq	r0, r0, r0
 524:	01010000 	mrseq	r0, (UNDEF: 1)
 528:	00000101 	andeq	r0, r0, r1, lsl #2
 52c:	00000101 	andeq	r0, r0, r1, lsl #2
 530:	00000000 	andeq	r0, r0, r0
 534:	94000000 	strls	r0, [r0], #-0
 538:	04000000 	streq	r0, [r0], #-0
 53c:	04000001 	streq	r0, [r0], #-1
 540:	7fa09100 	svcvc	0x00a09100
 544:	0001049f 	muleq	r1, pc, r4	; <UNPREDICTABLE>
 548:	00014400 	andeq	r4, r1, r0, lsl #8
 54c:	50000100 	andpl	r0, r0, r0, lsl #2
 550:	00000144 	andeq	r0, r0, r4, asr #2
 554:	00000150 	andeq	r0, r0, r0, asr r1
 558:	02710003 	rsbseq	r0, r1, #3
 55c:	0001509f 	muleq	r1, pc, r0	; <UNPREDICTABLE>
 560:	00015400 	andeq	r5, r1, r0, lsl #8
 564:	50000100 	andpl	r0, r0, r0, lsl #2
 568:	00000154 	andeq	r0, r0, r4, asr r1
 56c:	00000160 	andeq	r0, r0, r0, ror #2
 570:	a0910004 	addsge	r0, r1, r4
 574:	01609f7f 	smceq	2559	; 0x9ff
 578:	01740000 	cmneq	r4, r0
 57c:	00010000 	andeq	r0, r1, r0
 580:	00017451 	andeq	r7, r1, r1, asr r4
 584:	00018000 	andeq	r8, r1, r0
 588:	71000300 	mrsvc	r0, LR_irq
 58c:	01809f7f 	orreq	r9, r0, pc, ror pc
 590:	018c0000 	orreq	r0, ip, r0
 594:	00030000 	andeq	r0, r3, r0
 598:	8c9f0171 	ldfhis	f0, [pc], {113}	; 0x71
 59c:	9b000001 	blls	5a8 <__code_start__-0x7a58>
 5a0:	01000001 	tsteq	r0, r1
 5a4:	01b85000 			; <UNDEFINED> instruction: 0x01b85000
 5a8:	01b80000 			; <UNDEFINED> instruction: 0x01b80000
 5ac:	00040000 	andeq	r0, r4, r0
 5b0:	9f7fa091 	svcls	0x007fa091
 5b4:	000001b8 			; <UNDEFINED> instruction: 0x000001b8
 5b8:	000001c4 	andeq	r0, r0, r4, asr #3
 5bc:	a1910004 	orrsge	r0, r1, r4
 5c0:	01c49f7f 	biceq	r9, r4, pc, ror pc
 5c4:	01c80000 	biceq	r0, r8, r0
 5c8:	00040000 	andeq	r0, r4, r0
 5cc:	9f7fa091 	svcls	0x007fa091
 5d0:	000001c8 	andeq	r0, r0, r8, asr #3
 5d4:	000001dc 	ldrdeq	r0, [r0], -ip
 5d8:	dc500001 	mrrcle	0, 0, r0, r0, cr1	; <UNPREDICTABLE>
 5dc:	ec000001 	stc	0, cr0, [r0], {1}
 5e0:	03000001 	movweq	r0, #1
 5e4:	9f7f7000 	svcls	0x007f7000
 5e8:	000001ec 	andeq	r0, r0, ip, ror #3
 5ec:	0000022c 	andeq	r0, r0, ip, lsr #4
 5f0:	a0910004 	addsge	r0, r1, r4
 5f4:	00009f7f 	andeq	r9, r0, pc, ror pc
	...
 600:	00010100 	andeq	r0, r1, r0, lsl #2
	...
 610:	00980000 	addseq	r0, r8, r0
 614:	00e40000 	rsceq	r0, r4, r0
 618:	00010000 	andeq	r0, r1, r0
 61c:	0000e45c 	andeq	lr, r0, ip, asr r4
 620:	0000fc00 	andeq	pc, r0, r0, lsl #24
 624:	53000100 	movwpl	r0, #256	; 0x100
 628:	000000fc 	strdeq	r0, [r0], -ip
 62c:	00000154 	andeq	r0, r0, r4, asr r1
 630:	545c0001 	ldrbpl	r0, [ip], #-1
 634:	60000001 	andvs	r0, r0, r1
 638:	01000001 	tsteq	r0, r1
 63c:	01605300 	cmneq	r0, r0, lsl #6
 640:	017c0000 	cmneq	ip, r0
 644:	00010000 	andeq	r0, r1, r0
 648:	0001b85c 	andeq	fp, r1, ip, asr r8
 64c:	0001c800 	andeq	ip, r1, r0, lsl #16
 650:	53000100 	movwpl	r0, #256	; 0x100
 654:	000001c8 	andeq	r0, r0, r8, asr #3
 658:	000001e4 	andeq	r0, r0, r4, ror #3
 65c:	ec5c0001 	mrrc	0, 0, r0, ip, cr1
 660:	f0000001 			; <UNDEFINED> instruction: 0xf0000001
 664:	01000001 	tsteq	r0, r1
 668:	01f05300 	mvnseq	r5, r0, lsl #6
 66c:	02070000 	andeq	r0, r7, #0
 670:	00010000 	andeq	r0, r1, r0
 674:	0002075c 	andeq	r0, r2, ip, asr r7
 678:	00022c00 	andeq	r2, r2, r0, lsl #24
 67c:	f3000400 	vshl.u8	d0, d0, d0
 680:	009f5301 	addseq	r5, pc, r1, lsl #6
 684:	00000000 	andeq	r0, r0, r0
 688:	01000000 	mrseq	r0, (UNDEF: 0)
 68c:	00000101 	andeq	r0, r0, r1, lsl #2
 690:	e4000000 	str	r0, [r0], #-0
 694:	f8000000 			; <UNDEFINED> instruction: 0xf8000000
 698:	02000000 	andeq	r0, r0, #0
 69c:	f89f3000 			; <UNDEFINED> instruction: 0xf89f3000
 6a0:	00000000 	andeq	r0, r0, r0
 6a4:	02000001 	andeq	r0, r0, #1
 6a8:	049f3100 	ldreq	r3, [pc], #256	; 6b0 <__code_start__-0x7950>
 6ac:	54000001 	strpl	r0, [r0], #-1
 6b0:	01000001 	tsteq	r0, r1
 6b4:	01545600 	cmpeq	r4, r0, lsl #12
 6b8:	015c0000 	cmpeq	ip, r0
 6bc:	00020000 	andeq	r0, r2, r0
 6c0:	00009f30 	andeq	r9, r0, r0, lsr pc
	...
 6cc:	00010100 	andeq	r0, r1, r0, lsl #2
 6d0:	00010100 	andeq	r0, r1, r0, lsl #2
 6d4:	0000003c 	andeq	r0, r0, ip, lsr r0
 6d8:	0000005c 	andeq	r0, r0, ip, asr r0
 6dc:	5c500001 	mrrcpl	0, 0, r0, r0, cr1	; <UNPREDICTABLE>
 6e0:	5c000000 	stcpl	0, cr0, [r0], {-0}
 6e4:	01000000 	mrseq	r0, (UNDEF: 0)
 6e8:	005c5200 	subseq	r5, ip, r0, lsl #4
 6ec:	00640000 	rsbeq	r0, r4, r0
 6f0:	00030000 	andeq	r0, r3, r0
 6f4:	649f0172 	ldrvs	r0, [pc], #370	; 6fc <__code_start__-0x7904>
 6f8:	6c000000 	stcvs	0, cr0, [r0], {-0}
 6fc:	01000000 	mrseq	r0, (UNDEF: 0)
 700:	006c5200 	rsbeq	r5, ip, r0, lsl #4
 704:	00780000 	rsbseq	r0, r8, r0
 708:	00030000 	andeq	r0, r3, r0
 70c:	009f0172 	addseq	r0, pc, r2, ror r1	; <UNPREDICTABLE>
	...
 718:	3c000000 	stccc	0, cr0, [r0], {-0}
 71c:	54000000 	strpl	r0, [r0], #-0
 720:	01000000 	mrseq	r0, (UNDEF: 0)
 724:	00545100 	subseq	r5, r4, r0, lsl #2
 728:	00780000 	rsbseq	r0, r8, r0
 72c:	00040000 	andeq	r0, r4, r0
 730:	9f5101f3 	svcls	0x005101f3
	...
 740:	00010100 	andeq	r0, r1, r0, lsl #2
 744:	0000003c 	andeq	r0, r0, ip, lsr r0
 748:	00000054 	andeq	r0, r0, r4, asr r0
 74c:	54520001 	ldrbpl	r0, [r2], #-1
 750:	60000000 	andvs	r0, r0, r0
 754:	01000000 	mrseq	r0, (UNDEF: 0)
 758:	00605100 	rsbeq	r5, r0, r0, lsl #2
 75c:	00640000 	rsbeq	r0, r4, r0
 760:	00030000 	andeq	r0, r3, r0
 764:	649f0171 	ldrvs	r0, [pc], #369	; 76c <__code_start__-0x7894>
 768:	78000000 	stmdavc	r0, {}	; <UNPREDICTABLE>
 76c:	01000000 	mrseq	r0, (UNDEF: 0)
 770:	00005100 	andeq	r5, r0, r0, lsl #2
	...
 77c:	003c0000 	eorseq	r0, ip, r0
 780:	00500000 	subseq	r0, r0, r0
 784:	00010000 	andeq	r0, r1, r0
 788:	00005053 	andeq	r5, r0, r3, asr r0
 78c:	00007000 	andeq	r7, r0, r0
 790:	53000100 	movwpl	r0, #256	; 0x100
	...
 7a4:	00440000 	subeq	r0, r4, r0
 7a8:	004c0000 	subeq	r0, ip, r0
 7ac:	00010000 	andeq	r0, r1, r0
 7b0:	00004c5c 	andeq	r4, r0, ip, asr ip
 7b4:	00005000 	andeq	r5, r0, r0
 7b8:	72000800 	andvc	r0, r0, #0, 16
 7bc:	1c007300 	stcne	3, cr7, [r0], {-0}
 7c0:	509f0123 	addspl	r0, pc, r3, lsr #2
 7c4:	58000000 	stmdapl	r0, {}	; <UNPREDICTABLE>
 7c8:	09000000 	stmdbeq	r0, {}	; <UNPREDICTABLE>
 7cc:	f3007200 	vhsub.u8	d7, d0, d0
 7d0:	231c5301 	tstcs	ip, #67108864	; 0x4000000
 7d4:	00589f01 	subseq	r9, r8, r1, lsl #30
 7d8:	005c0000 	subseq	r0, ip, r0
 7dc:	00090000 	andeq	r0, r9, r0
 7e0:	01f30071 	mvnseq	r0, r1, ror r0
 7e4:	02231c53 	eoreq	r1, r3, #21248	; 0x5300
 7e8:	00005c9f 	muleq	r0, pc, ip	; <UNPREDICTABLE>
 7ec:	00007800 	andeq	r7, r0, r0, lsl #16
 7f0:	f3000a00 	vpmax.u8	d0, d0, d0
 7f4:	01f35201 	mvnseq	r5, r1, lsl #4
 7f8:	01231c53 			; <UNDEFINED> instruction: 0x01231c53
 7fc:	0000009f 	muleq	r0, pc, r0	; <UNPREDICTABLE>
 800:	00000000 	andeq	r0, r0, r0
 804:	50000100 	andpl	r0, r0, r0, lsl #2
 808:	78000000 	stmdavc	r0, {}	; <UNPREDICTABLE>
 80c:	01000000 	mrseq	r0, (UNDEF: 0)
 810:	00005000 	andeq	r5, r0, r0
 814:	00000000 	andeq	r0, r0, r0
 818:	01000000 	mrseq	r0, (UNDEF: 0)
 81c:	00000001 	andeq	r0, r0, r1
 820:	00000014 	andeq	r0, r0, r4, lsl r0
 824:	0000001c 	andeq	r0, r0, ip, lsl r0
 828:	1c500001 	mrrcne	0, 0, r0, r0, cr1	; <UNPREDICTABLE>
 82c:	24000000 	strcs	r0, [r0], #-0
 830:	03000000 	movweq	r0, #0
 834:	9f017000 	svcls	0x00017000
 838:	00000024 	andeq	r0, r0, r4, lsr #32
 83c:	0000003c 	andeq	r0, r0, ip, lsr r0
 840:	00500001 	subseq	r0, r0, r1
	...
 84c:	14000000 	strne	r0, [r0], #-0
 850:	18000000 	stmdane	r0, {}	; <UNPREDICTABLE>
 854:	01000000 	mrseq	r0, (UNDEF: 0)
 858:	00185100 	andseq	r5, r8, r0, lsl #2
 85c:	003c0000 	eorseq	r0, ip, r0
 860:	00040000 	andeq	r0, r4, r0
 864:	9f5101f3 	svcls	0x005101f3
	...
 870:	00180000 	andseq	r0, r8, r0
 874:	003c0000 	eorseq	r0, ip, r0
 878:	00010000 	andeq	r0, r1, r0
 87c:	00000051 	andeq	r0, r0, r1, asr r0
	...
 88c:	04000000 	streq	r0, [r0], #-0
 890:	01000000 	mrseq	r0, (UNDEF: 0)
 894:	00045000 	andeq	r5, r4, r0
 898:	000c0000 	andeq	r0, ip, r0
 89c:	00030000 	andeq	r0, r3, r0
 8a0:	0c9f3070 	ldceq	0, cr3, [pc], {112}	; 0x70
 8a4:	14000000 	strne	r0, [r0], #-0
 8a8:	04000000 	streq	r0, [r0], #-0
 8ac:	5001f300 	andpl	pc, r1, r0, lsl #6
 8b0:	0000009f 	muleq	r0, pc, r0	; <UNPREDICTABLE>
	...
 8bc:	00022c00 	andeq	r2, r2, r0, lsl #24
 8c0:	00027000 	andeq	r7, r2, r0
 8c4:	50000100 	andpl	r0, r0, r0, lsl #2
 8c8:	00000270 	andeq	r0, r0, r0, ror r2
 8cc:	00000290 	muleq	r0, r0, r2
 8d0:	01f30004 	mvnseq	r0, r4
 8d4:	00009f50 	andeq	r9, r0, r0, asr pc
	...
 8e0:	022c0000 	eoreq	r0, ip, #0
 8e4:	026c0000 	rsbeq	r0, ip, #0
 8e8:	00010000 	andeq	r0, r1, r0
 8ec:	00026c51 	andeq	r6, r2, r1, asr ip
 8f0:	00029000 	andeq	r9, r2, r0
 8f4:	f3000400 	vshl.u8	d0, d0, d0
 8f8:	009f5101 	addseq	r5, pc, r1, lsl #2
	...
 904:	00000101 	andeq	r0, r0, r1, lsl #2
 908:	00001000 	andeq	r1, r0, r0
 90c:	00001000 	andeq	r1, r0, r0
 910:	53000100 	movwpl	r0, #256	; 0x100
 914:	00000010 	andeq	r0, r0, r0, lsl r0
 918:	00000018 	andeq	r0, r0, r8, lsl r0
 91c:	04730003 	ldrbteq	r0, [r3], #-3
 920:	0000189f 	muleq	r0, pc, r8	; <UNPREDICTABLE>
 924:	00002700 	andeq	r2, r0, r0, lsl #14
 928:	53000100 	movwpl	r0, #256	; 0x100
	...
 934:	8c140001 	ldchi	0, cr0, [r4], {1}
 938:	8c300000 	ldchi	0, cr0, [r0], #-0
 93c:	00060000 	andeq	r0, r6, r0
 940:	10001c0c 	andne	r1, r0, ip, lsl #24
 944:	00009f20 	andeq	r9, r0, r0, lsr #30
 948:	00000000 	andeq	r0, r0, r0
 94c:	00020000 	andeq	r0, r2, r0
 950:	00008c14 	andeq	r8, r0, r4, lsl ip
 954:	00008c30 	andeq	r8, r0, r0, lsr ip
 958:	240c0006 	strcs	r0, [ip], #-6
 95c:	9f201000 	svcls	0x00201000
	...
 968:	8c140003 	ldchi	0, cr0, [r4], {3}
 96c:	8c300000 	ldchi	0, cr0, [r0], #-0
 970:	00050000 	andeq	r0, r5, r0
 974:	2447b408 	strbcs	fp, [r7], #-1032	; 0xfffffbf8
 978:	0000009f 	muleq	r0, pc, r0	; <UNPREDICTABLE>
 97c:	00000000 	andeq	r0, r0, r0
 980:	14000400 	strne	r0, [r0], #-1024	; 0xfffffc00
 984:	3000008c 	andcc	r0, r0, ip, lsl #1
 988:	0300008c 	movweq	r0, #140	; 0x8c
 98c:	9f200800 	svcls	0x00200800
	...
 998:	00000002 	andeq	r0, r0, r2
 99c:	8be00000 	blhi	ff8009a4 <__bss_end__+0xff7f754c>
 9a0:	8be40000 	blhi	ff9009a8 <__bss_end__+0xff8f7550>
 9a4:	00020000 	andeq	r0, r2, r0
 9a8:	8be49f30 	blhi	ff928670 <__bss_end__+0xff91f218>
 9ac:	8be80000 	blhi	ffa009b4 <__bss_end__+0xff9f755c>
 9b0:	00010000 	andeq	r0, r1, r0
 9b4:	008bec53 	addeq	lr, fp, r3, asr ip
 9b8:	008bf400 	addeq	pc, fp, r0, lsl #8
 9bc:	53000100 	movwpl	r0, #256	; 0x100
	...
 9c8:	00000002 	andeq	r0, r0, r2
 9cc:	00008bc8 	andeq	r8, r0, r8, asr #23
 9d0:	00008bcc 	andeq	r8, r0, ip, asr #23
 9d4:	9f300002 	svcls	0x00300002
 9d8:	00008bcc 	andeq	r8, r0, ip, asr #23
 9dc:	00008bd0 	ldrdeq	r8, [r0], -r0
 9e0:	00500001 	subseq	r0, r0, r1
	...
 9ec:	6c000000 	stcvs	0, cr0, [r0], {-0}
 9f0:	78000000 	stmdavc	r0, {}	; <UNPREDICTABLE>
 9f4:	01000000 	mrseq	r0, (UNDEF: 0)
 9f8:	00785000 	rsbseq	r5, r8, r0
 9fc:	00840000 	addeq	r0, r4, r0
 a00:	00040000 	andeq	r0, r4, r0
 a04:	9f5001f3 	svcls	0x005001f3
	...
 a14:	00000054 	andeq	r0, r0, r4, asr r0
 a18:	00000060 	andeq	r0, r0, r0, rrx
 a1c:	60500001 	subsvs	r0, r0, r1
 a20:	6c000000 	stcvs	0, cr0, [r0], {-0}
 a24:	04000000 	streq	r0, [r0], #-0
 a28:	5001f300 	andpl	pc, r1, r0, lsl #6
 a2c:	0000009f 	muleq	r0, pc, r0	; <UNPREDICTABLE>
	...
 a38:	00003000 	andeq	r3, r0, r0
 a3c:	00003b00 	andeq	r3, r0, r0, lsl #22
 a40:	50000100 	andpl	r0, r0, r0, lsl #2
 a44:	0000003b 	andeq	r0, r0, fp, lsr r0
 a48:	00000054 	andeq	r0, r0, r4, asr r0
 a4c:	00550001 	subseq	r0, r5, r1
	...
 a58:	00004000 	andeq	r4, r0, r0
 a5c:	00005400 	andeq	r5, r0, r0, lsl #8
 a60:	54000100 	strpl	r0, [r0], #-256	; 0xffffff00
	...
 a6c:	00440000 	subeq	r0, r4, r0
 a70:	00480000 	subeq	r0, r8, r0
 a74:	00010000 	andeq	r0, r1, r0
 a78:	00000050 	andeq	r0, r0, r0, asr r0
	...
 a84:	00002400 	andeq	r2, r0, r0, lsl #8
 a88:	00002700 	andeq	r2, r0, r0, lsl #14
 a8c:	50000100 	andpl	r0, r0, r0, lsl #2
 a90:	00000027 	andeq	r0, r0, r7, lsr #32
 a94:	00000030 	andeq	r0, r0, r0, lsr r0
 a98:	00540001 	subseq	r0, r4, r1
	...
 aa4:	c8000000 	stmdagt	r0, {}	; <UNPREDICTABLE>
 aa8:	d4000000 	strle	r0, [r0], #-0
 aac:	01000000 	mrseq	r0, (UNDEF: 0)
 ab0:	00d45000 	sbcseq	r5, r4, r0
 ab4:	00e80000 	rsceq	r0, r8, r0
 ab8:	00010000 	andeq	r0, r1, r0
 abc:	00000054 	andeq	r0, r0, r4, asr r0
	...
 ac8:	0000b800 	andeq	fp, r0, r0, lsl #16
 acc:	0000c300 	andeq	ip, r0, r0, lsl #6
 ad0:	50000100 	andpl	r0, r0, r0, lsl #2
 ad4:	000000c3 	andeq	r0, r0, r3, asr #1
 ad8:	000000c8 	andeq	r0, r0, r8, asr #1
 adc:	01f30004 	mvnseq	r0, r4
 ae0:	00009f50 	andeq	r9, r0, r0, asr pc
	...
 af0:	009c0000 	addseq	r0, ip, r0
 af4:	00ab0000 	adceq	r0, fp, r0
 af8:	00010000 	andeq	r0, r1, r0
 afc:	0000ab50 	andeq	sl, r0, r0, asr fp
 b00:	0000b000 	andeq	fp, r0, r0
 b04:	f3000400 	vshl.u8	d0, d0, d0
 b08:	b09f5001 	addslt	r5, pc, r1
 b0c:	b3000000 	movwlt	r0, #0
 b10:	01000000 	mrseq	r0, (UNDEF: 0)
 b14:	00b35000 	adcseq	r5, r3, r0
 b18:	00b80000 	adcseq	r0, r8, r0
 b1c:	00040000 	andeq	r0, r4, r0
 b20:	9f5001f3 	svcls	0x005001f3
	...
 b34:	0000009c 	muleq	r0, ip, r0
 b38:	000000ab 	andeq	r0, r0, fp, lsr #1
 b3c:	ab510001 	blge	1440b48 <__bss_end__+0x14376f0>
 b40:	b0000000 	andlt	r0, r0, r0
 b44:	04000000 	streq	r0, [r0], #-0
 b48:	5101f300 	mrspl	pc, SP_irq	; <UNPREDICTABLE>
 b4c:	0000b09f 	muleq	r0, pc, r0	; <UNPREDICTABLE>
 b50:	0000b300 	andeq	fp, r0, r0, lsl #6
 b54:	51000100 	mrspl	r0, (UNDEF: 16)
 b58:	000000b3 	strheq	r0, [r0], -r3
 b5c:	000000b8 	strheq	r0, [r0], -r8
 b60:	01f30004 	mvnseq	r0, r4
 b64:	00009f51 	andeq	r9, r0, r1, asr pc
	...
 b70:	00800000 	addeq	r0, r0, r0
 b74:	00900000 	addseq	r0, r0, r0
 b78:	00010000 	andeq	r0, r1, r0
 b7c:	00009050 	andeq	r9, r0, r0, asr r0
 b80:	00009c00 	andeq	r9, r0, r0, lsl #24
 b84:	f3000400 	vshl.u8	d0, d0, d0
 b88:	009f5001 	addseq	r5, pc, r1
	...
 b94:	64000000 	strvs	r0, [r0], #-0
 b98:	74000000 	strvc	r0, [r0], #-0
 b9c:	01000000 	mrseq	r0, (UNDEF: 0)
 ba0:	00745000 	rsbseq	r5, r4, r0
 ba4:	00800000 	addeq	r0, r0, r0
 ba8:	00040000 	andeq	r0, r4, r0
 bac:	9f5001f3 	svcls	0x005001f3
	...
 bbc:	00000054 	andeq	r0, r0, r4, asr r0
 bc0:	0000005f 	andeq	r0, r0, pc, asr r0
 bc4:	5f500001 	svcpl	0x00500001
 bc8:	64000000 	strvs	r0, [r0], #-0
 bcc:	04000000 	streq	r0, [r0], #-0
 bd0:	5001f300 	andpl	pc, r1, r0, lsl #6
 bd4:	0000009f 	muleq	r0, pc, r0	; <UNPREDICTABLE>
	...
 be4:	00002800 	andeq	r2, r0, r0, lsl #16
 be8:	50000100 	andpl	r0, r0, r0, lsl #2
 bec:	00000028 	andeq	r0, r0, r8, lsr #32
 bf0:	00000054 	andeq	r0, r0, r4, asr r0
 bf4:	00540001 	subseq	r0, r4, r1
	...
 c04:	2b000000 	blcs	c0c <__code_start__-0x73f4>
 c08:	01000000 	mrseq	r0, (UNDEF: 0)
 c0c:	002b5100 	eoreq	r5, fp, r0, lsl #2
 c10:	00540000 	subseq	r0, r4, r0
 c14:	00040000 	andeq	r0, r4, r0
 c18:	9f5101f3 	svcls	0x005101f3
	...
 c24:	00240000 	eoreq	r0, r4, r0
 c28:	00540000 	subseq	r0, r4, r0
 c2c:	00010000 	andeq	r0, r1, r0
 c30:	00000057 	andeq	r0, r0, r7, asr r0
 c34:	00000000 	andeq	r0, r0, r0
 c38:	2c000000 	stccs	0, cr0, [r0], {-0}
 c3c:	48000000 	stmdami	r0, {}	; <UNPREDICTABLE>
 c40:	01000000 	mrseq	r0, (UNDEF: 0)
 c44:	00005000 	andeq	r5, r0, r0
	...
 c50:	00000038 	andeq	r0, r0, r8, lsr r0
 c54:	00000054 	andeq	r0, r0, r4, asr r0
 c58:	00550001 	subseq	r0, r5, r1
	...
 c68:	0b000000 	bleq	c70 <__code_start__-0x7390>
 c6c:	01000000 	mrseq	r0, (UNDEF: 0)
 c70:	000b5000 	andeq	r5, fp, r0
 c74:	00140000 	andseq	r0, r4, r0
 c78:	00010000 	andeq	r0, r1, r0
 c7c:	00000054 	andeq	r0, r0, r4, asr r0
	...
 c8c:	00001c00 	andeq	r1, r0, r0, lsl #24
 c90:	51000100 	mrspl	r0, (UNDEF: 16)
 c94:	0000001c 	andeq	r0, r0, ip, lsl r0
 c98:	00000034 	andeq	r0, r0, r4, lsr r0
 c9c:	01f30004 	mvnseq	r0, r4
 ca0:	00009f51 	andeq	r9, r0, r1, asr pc
 ca4:	00000000 	andeq	r0, r0, r0
 ca8:	00020000 	andeq	r0, r2, r0
 cac:	01000000 	mrseq	r0, (UNDEF: 0)
 cb0:	00000001 	andeq	r0, r0, r1
 cb4:	00000000 	andeq	r0, r0, r0
 cb8:	00000004 	andeq	r0, r0, r4
 cbc:	04500001 	ldrbeq	r0, [r0], #-1
 cc0:	1c000000 	stcne	0, cr0, [r0], {-0}
 cc4:	01000000 	mrseq	r0, (UNDEF: 0)
 cc8:	001c5200 	andseq	r5, ip, r0, lsl #4
 ccc:	00240000 	eoreq	r0, r4, r0
 cd0:	00010000 	andeq	r0, r1, r0
 cd4:	00002453 	andeq	r2, r0, r3, asr r4
 cd8:	00002800 	andeq	r2, r0, r0, lsl #16
 cdc:	73000300 	movwvc	r0, #768	; 0x300
 ce0:	00289f01 	eoreq	r9, r8, r1, lsl #30
 ce4:	00340000 	eorseq	r0, r4, r0
 ce8:	00010000 	andeq	r0, r1, r0
 cec:	00000053 	andeq	r0, r0, r3, asr r0
 cf0:	00000000 	andeq	r0, r0, r0
 cf4:	00000300 	andeq	r0, r0, r0, lsl #6
 cf8:	00000000 	andeq	r0, r0, r0
 cfc:	00002400 	andeq	r2, r0, r0, lsl #8
 d00:	51000100 	mrspl	r0, (UNDEF: 16)
 d04:	00000024 	andeq	r0, r0, r4, lsr #32
 d08:	00000034 	andeq	r0, r0, r4, lsr r0
 d0c:	7f710003 	svcvc	0x00710003
 d10:	0000009f 	muleq	r0, pc, r0	; <UNPREDICTABLE>
	...
 d1c:	00001000 	andeq	r1, r0, r0
 d20:	00001c00 	andeq	r1, r0, r0, lsl #24
 d24:	5c000100 	stfpls	f0, [r0], {-0}
 d28:	00000024 	andeq	r0, r0, r4, lsr #32
 d2c:	00000034 	andeq	r0, r0, r4, lsr r0
 d30:	00520001 	subseq	r0, r2, r1
	...
 d40:	08000000 	stmdaeq	r0, {}	; <UNPREDICTABLE>
 d44:	01000000 	mrseq	r0, (UNDEF: 0)
 d48:	00085000 	andeq	r5, r8, r0
 d4c:	00280000 	eoreq	r0, r8, r0
 d50:	00010000 	andeq	r0, r1, r0
 d54:	00000050 	andeq	r0, r0, r0, asr r0
	...
 d64:	00000c00 	andeq	r0, r0, r0, lsl #24
 d68:	51000100 	mrspl	r0, (UNDEF: 16)
 d6c:	0000000c 	andeq	r0, r0, ip
 d70:	00000030 	andeq	r0, r0, r0, lsr r0
 d74:	00510001 	subseq	r0, r1, r1
	...
 d88:	00000400 	andeq	r0, r0, r0, lsl #8
 d8c:	51000100 	mrspl	r0, (UNDEF: 16)
 d90:	00000004 	andeq	r0, r0, r4
 d94:	0000000c 	andeq	r0, r0, ip
 d98:	0c510001 	mrrceq	0, 0, r0, r1, cr1
 d9c:	20000000 	andcs	r0, r0, r0
 da0:	03000000 	movweq	r0, #0
 da4:	9f7f7100 	svcls	0x007f7100
	...
 db0:	00000002 	andeq	r0, r0, r2
 db4:	00000000 	andeq	r0, r0, r0
 db8:	00040000 	andeq	r0, r4, r0
 dbc:	00010000 	andeq	r0, r1, r0
 dc0:	00000450 	andeq	r0, r0, r0, asr r4
 dc4:	00001400 	andeq	r1, r0, r0, lsl #8
 dc8:	5c000100 	stfpls	f0, [r0], {-0}
 dcc:	00000014 	andeq	r0, r0, r4, lsl r0
 dd0:	00000020 	andeq	r0, r0, r0, lsr #32
 dd4:	7f7c0003 	svcvc	0x007c0003
 dd8:	0000009f 	muleq	r0, pc, r0	; <UNPREDICTABLE>
 ddc:	00000000 	andeq	r0, r0, r0
 de0:	03030000 	movweq	r0, #12288	; 0x3000
 de4:	008e7400 	addeq	r7, lr, r0, lsl #8
 de8:	008e7400 	addeq	r7, lr, r0, lsl #8
 dec:	50000100 	andpl	r0, r0, r0, lsl #2
 df0:	00008e74 	andeq	r8, r0, r4, ror lr
 df4:	00008ea0 	andeq	r8, r0, r0, lsr #29
 df8:	01f30004 	mvnseq	r0, r4
 dfc:	00009f50 	andeq	r9, r0, r0, asr pc
 e00:	00000000 	andeq	r0, r0, r0
 e04:	03000000 	movweq	r0, #0
 e08:	8e740003 	cdphi	0, 7, cr0, cr4, cr3, {0}
 e0c:	8e740000 	cdphi	0, 7, cr0, cr4, cr0, {0}
 e10:	00010000 	andeq	r0, r1, r0
 e14:	008e7451 	addeq	r7, lr, r1, asr r4
 e18:	008ea000 	addeq	sl, lr, r0
 e1c:	f3000400 	vshl.u8	d0, d0, d0
 e20:	009f5101 	addseq	r5, pc, r1, lsl #2
	...
 e2c:	00000303 	andeq	r0, r0, r3, lsl #6
 e30:	008e7400 	addeq	r7, lr, r0, lsl #8
 e34:	008e7400 	addeq	r7, lr, r0, lsl #8
 e38:	52000100 	andpl	r0, r0, #0, 2
 e3c:	00008e74 	andeq	r8, r0, r4, ror lr
 e40:	00008e7c 	andeq	r8, r0, ip, ror lr
 e44:	7c520001 	mrrcvc	0, 0, r0, r2, cr1
 e48:	a000008e 	andge	r0, r0, lr, lsl #1
 e4c:	0300008e 	movweq	r0, #142	; 0x8e
 e50:	9f017200 	svcls	0x00017200
	...
 e5c:	00010102 	andeq	r0, r1, r2, lsl #2
 e60:	00000000 	andeq	r0, r0, r0
 e64:	00008e74 	andeq	r8, r0, r4, ror lr
 e68:	00008e80 	andeq	r8, r0, r0, lsl #29
 e6c:	80500001 	subshi	r0, r0, r1
 e70:	8400008e 	strhi	r0, [r0], #-142	; 0xffffff72
 e74:	0300008e 	movweq	r0, #142	; 0x8e
 e78:	9f017000 	svcls	0x00017000
 e7c:	00008e84 	andeq	r8, r0, r4, lsl #29
 e80:	00008e94 	muleq	r0, r4, lr
 e84:	98500001 	ldmdals	r0, {r0}^
 e88:	9c00008e 	stcls	0, cr0, [r0], {142}	; 0x8e
 e8c:	0100008e 	smlabbeq	r0, lr, r0, r0
 e90:	00005000 	andeq	r5, r0, r0
 e94:	00000000 	andeq	r0, r0, r0
 e98:	00020000 	andeq	r0, r2, r0
 e9c:	00000000 	andeq	r0, r0, r0
 ea0:	00008e74 	andeq	r8, r0, r4, ror lr
 ea4:	00008e84 	andeq	r8, r0, r4, lsl #29
 ea8:	84510001 	ldrbhi	r0, [r1], #-1
 eac:	8800008e 	stmdahi	r0, {r1, r2, r3, r7}
 eb0:	0300008e 	movweq	r0, #142	; 0x8e
 eb4:	9f017100 	svcls	0x00017100
 eb8:	00008e88 	andeq	r8, r0, r8, lsl #29
 ebc:	00008ea0 	andeq	r8, r0, r0, lsr #29
 ec0:	00510001 	subseq	r0, r1, r1
 ec4:	00000000 	andeq	r0, r0, r0
 ec8:	Address 0x0000000000000ec8 is out of bounds.


Disassembly of section .debug_ranges:

00000000 <.debug_ranges>:
   0:	00008bc8 	andeq	r8, r0, r8, asr #23
   4:	00008c48 	andeq	r8, r0, r8, asr #24
	...
  10:	00008e74 	andeq	r8, r0, r4, ror lr
  14:	00008ea0 	andeq	r8, r0, r0, lsr #29
	...
